ARM GAS  /tmp/cco7EvgI.s 			page 1


   1              		.cpu cortex-m4
   2              		.arch armv7e-m
   3              		.fpu softvfp
   4              		.eabi_attribute 20, 1
   5              		.eabi_attribute 21, 1
   6              		.eabi_attribute 23, 3
   7              		.eabi_attribute 24, 1
   8              		.eabi_attribute 25, 1
   9              		.eabi_attribute 26, 1
  10              		.eabi_attribute 30, 1
  11              		.eabi_attribute 34, 1
  12              		.eabi_attribute 18, 4
  13              		.file	"gd32f4xx_rcu.c"
  14              		.text
  15              		.section	.text.rcu_periph_clock_enable,"ax",%progbits
  16              		.align	1
  17              		.global	rcu_periph_clock_enable
  18              		.syntax unified
  19              		.thumb
  20              		.thumb_func
  22              	rcu_periph_clock_enable:
  23              		@ args = 0, pretend = 0, frame = 0
  24              		@ frame_needed = 0, uses_anonymous_args = 0
  25              		@ link register save eliminated.
  26 0000 8309     		lsrs	r3, r0, #6
  27 0002 03F18043 		add	r3, r3, #1073741824
  28 0006 03F50E33 		add	r3, r3, #145408
  29 000a 1A68     		ldr	r2, [r3]
  30 000c 00F01F00 		and	r0, r0, #31
  31 0010 0121     		movs	r1, #1
  32 0012 8140     		lsls	r1, r1, r0
  33 0014 0A43     		orrs	r2, r2, r1
  34 0016 1A60     		str	r2, [r3]
  35 0018 7047     		bx	lr
  37              		.section	.text.rcu_periph_clock_disable,"ax",%progbits
  38              		.align	1
  39              		.global	rcu_periph_clock_disable
  40              		.syntax unified
  41              		.thumb
  42              		.thumb_func
  44              	rcu_periph_clock_disable:
  45              		@ args = 0, pretend = 0, frame = 0
  46              		@ frame_needed = 0, uses_anonymous_args = 0
  47              		@ link register save eliminated.
  48 0000 8309     		lsrs	r3, r0, #6
  49 0002 03F18043 		add	r3, r3, #1073741824
  50 0006 03F50E33 		add	r3, r3, #145408
  51 000a 1A68     		ldr	r2, [r3]
  52 000c 00F01F00 		and	r0, r0, #31
  53 0010 0121     		movs	r1, #1
  54 0012 8140     		lsls	r1, r1, r0
  55 0014 22EA0102 		bic	r2, r2, r1
  56 0018 1A60     		str	r2, [r3]
  57 001a 7047     		bx	lr
  59              		.section	.text.rcu_periph_clock_sleep_enable,"ax",%progbits
  60              		.align	1
  61              		.global	rcu_periph_clock_sleep_enable
ARM GAS  /tmp/cco7EvgI.s 			page 2


  62              		.syntax unified
  63              		.thumb
  64              		.thumb_func
  66              	rcu_periph_clock_sleep_enable:
  67              		@ args = 0, pretend = 0, frame = 0
  68              		@ frame_needed = 0, uses_anonymous_args = 0
  69              		@ link register save eliminated.
  70 0000 8309     		lsrs	r3, r0, #6
  71 0002 03F18043 		add	r3, r3, #1073741824
  72 0006 03F50E33 		add	r3, r3, #145408
  73 000a 1A68     		ldr	r2, [r3]
  74 000c 00F01F00 		and	r0, r0, #31
  75 0010 0121     		movs	r1, #1
  76 0012 8140     		lsls	r1, r1, r0
  77 0014 0A43     		orrs	r2, r2, r1
  78 0016 1A60     		str	r2, [r3]
  79 0018 7047     		bx	lr
  81              		.section	.text.rcu_periph_clock_sleep_disable,"ax",%progbits
  82              		.align	1
  83              		.global	rcu_periph_clock_sleep_disable
  84              		.syntax unified
  85              		.thumb
  86              		.thumb_func
  88              	rcu_periph_clock_sleep_disable:
  89              		@ args = 0, pretend = 0, frame = 0
  90              		@ frame_needed = 0, uses_anonymous_args = 0
  91              		@ link register save eliminated.
  92 0000 8309     		lsrs	r3, r0, #6
  93 0002 03F18043 		add	r3, r3, #1073741824
  94 0006 03F50E33 		add	r3, r3, #145408
  95 000a 1A68     		ldr	r2, [r3]
  96 000c 00F01F00 		and	r0, r0, #31
  97 0010 0121     		movs	r1, #1
  98 0012 8140     		lsls	r1, r1, r0
  99 0014 22EA0102 		bic	r2, r2, r1
 100 0018 1A60     		str	r2, [r3]
 101 001a 7047     		bx	lr
 103              		.section	.text.rcu_periph_reset_enable,"ax",%progbits
 104              		.align	1
 105              		.global	rcu_periph_reset_enable
 106              		.syntax unified
 107              		.thumb
 108              		.thumb_func
 110              	rcu_periph_reset_enable:
 111              		@ args = 0, pretend = 0, frame = 0
 112              		@ frame_needed = 0, uses_anonymous_args = 0
 113              		@ link register save eliminated.
 114 0000 8309     		lsrs	r3, r0, #6
 115 0002 03F18043 		add	r3, r3, #1073741824
 116 0006 03F50E33 		add	r3, r3, #145408
 117 000a 1A68     		ldr	r2, [r3]
 118 000c 00F01F00 		and	r0, r0, #31
 119 0010 0121     		movs	r1, #1
 120 0012 8140     		lsls	r1, r1, r0
 121 0014 0A43     		orrs	r2, r2, r1
 122 0016 1A60     		str	r2, [r3]
 123 0018 7047     		bx	lr
ARM GAS  /tmp/cco7EvgI.s 			page 3


 125              		.section	.text.rcu_periph_reset_disable,"ax",%progbits
 126              		.align	1
 127              		.global	rcu_periph_reset_disable
 128              		.syntax unified
 129              		.thumb
 130              		.thumb_func
 132              	rcu_periph_reset_disable:
 133              		@ args = 0, pretend = 0, frame = 0
 134              		@ frame_needed = 0, uses_anonymous_args = 0
 135              		@ link register save eliminated.
 136 0000 8309     		lsrs	r3, r0, #6
 137 0002 03F18043 		add	r3, r3, #1073741824
 138 0006 03F50E33 		add	r3, r3, #145408
 139 000a 1A68     		ldr	r2, [r3]
 140 000c 00F01F00 		and	r0, r0, #31
 141 0010 0121     		movs	r1, #1
 142 0012 8140     		lsls	r1, r1, r0
 143 0014 22EA0102 		bic	r2, r2, r1
 144 0018 1A60     		str	r2, [r3]
 145 001a 7047     		bx	lr
 147              		.section	.text.rcu_bkp_reset_enable,"ax",%progbits
 148              		.align	1
 149              		.global	rcu_bkp_reset_enable
 150              		.syntax unified
 151              		.thumb
 152              		.thumb_func
 154              	rcu_bkp_reset_enable:
 155              		@ args = 0, pretend = 0, frame = 0
 156              		@ frame_needed = 0, uses_anonymous_args = 0
 157              		@ link register save eliminated.
 158 0000 034A     		ldr	r2, .L8
 159 0002 D2F87038 		ldr	r3, [r2, #2160]
 160 0006 43F48033 		orr	r3, r3, #65536
 161 000a C2F87038 		str	r3, [r2, #2160]
 162 000e 7047     		bx	lr
 163              	.L9:
 164              		.align	2
 165              	.L8:
 166 0010 00300240 		.word	1073885184
 168              		.section	.text.rcu_bkp_reset_disable,"ax",%progbits
 169              		.align	1
 170              		.global	rcu_bkp_reset_disable
 171              		.syntax unified
 172              		.thumb
 173              		.thumb_func
 175              	rcu_bkp_reset_disable:
 176              		@ args = 0, pretend = 0, frame = 0
 177              		@ frame_needed = 0, uses_anonymous_args = 0
 178              		@ link register save eliminated.
 179 0000 034A     		ldr	r2, .L11
 180 0002 D2F87038 		ldr	r3, [r2, #2160]
 181 0006 23F48033 		bic	r3, r3, #65536
 182 000a C2F87038 		str	r3, [r2, #2160]
 183 000e 7047     		bx	lr
 184              	.L12:
 185              		.align	2
 186              	.L11:
ARM GAS  /tmp/cco7EvgI.s 			page 4


 187 0010 00300240 		.word	1073885184
 189              		.section	.text.rcu_system_clock_source_config,"ax",%progbits
 190              		.align	1
 191              		.global	rcu_system_clock_source_config
 192              		.syntax unified
 193              		.thumb
 194              		.thumb_func
 196              	rcu_system_clock_source_config:
 197              		@ args = 0, pretend = 0, frame = 0
 198              		@ frame_needed = 0, uses_anonymous_args = 0
 199              		@ link register save eliminated.
 200 0000 044A     		ldr	r2, .L14
 201 0002 D2F80838 		ldr	r3, [r2, #2056]
 202 0006 23F00303 		bic	r3, r3, #3
 203 000a 0343     		orrs	r3, r3, r0
 204 000c C2F80838 		str	r3, [r2, #2056]
 205 0010 7047     		bx	lr
 206              	.L15:
 207 0012 00BF     		.align	2
 208              	.L14:
 209 0014 00300240 		.word	1073885184
 211              		.section	.text.rcu_system_clock_source_get,"ax",%progbits
 212              		.align	1
 213              		.global	rcu_system_clock_source_get
 214              		.syntax unified
 215              		.thumb
 216              		.thumb_func
 218              	rcu_system_clock_source_get:
 219              		@ args = 0, pretend = 0, frame = 0
 220              		@ frame_needed = 0, uses_anonymous_args = 0
 221              		@ link register save eliminated.
 222 0000 024B     		ldr	r3, .L17
 223 0002 D3F80808 		ldr	r0, [r3, #2056]
 224 0006 00F00C00 		and	r0, r0, #12
 225 000a 7047     		bx	lr
 226              	.L18:
 227              		.align	2
 228              	.L17:
 229 000c 00300240 		.word	1073885184
 231              		.section	.text.rcu_ahb_clock_config,"ax",%progbits
 232              		.align	1
 233              		.global	rcu_ahb_clock_config
 234              		.syntax unified
 235              		.thumb
 236              		.thumb_func
 238              	rcu_ahb_clock_config:
 239              		@ args = 0, pretend = 0, frame = 0
 240              		@ frame_needed = 0, uses_anonymous_args = 0
 241              		@ link register save eliminated.
 242 0000 044A     		ldr	r2, .L20
 243 0002 D2F80838 		ldr	r3, [r2, #2056]
 244 0006 23F0F003 		bic	r3, r3, #240
 245 000a 0343     		orrs	r3, r3, r0
 246 000c C2F80838 		str	r3, [r2, #2056]
 247 0010 7047     		bx	lr
 248              	.L21:
 249 0012 00BF     		.align	2
ARM GAS  /tmp/cco7EvgI.s 			page 5


 250              	.L20:
 251 0014 00300240 		.word	1073885184
 253              		.section	.text.rcu_apb1_clock_config,"ax",%progbits
 254              		.align	1
 255              		.global	rcu_apb1_clock_config
 256              		.syntax unified
 257              		.thumb
 258              		.thumb_func
 260              	rcu_apb1_clock_config:
 261              		@ args = 0, pretend = 0, frame = 0
 262              		@ frame_needed = 0, uses_anonymous_args = 0
 263              		@ link register save eliminated.
 264 0000 044A     		ldr	r2, .L23
 265 0002 D2F80838 		ldr	r3, [r2, #2056]
 266 0006 23F4E053 		bic	r3, r3, #7168
 267 000a 0343     		orrs	r3, r3, r0
 268 000c C2F80838 		str	r3, [r2, #2056]
 269 0010 7047     		bx	lr
 270              	.L24:
 271 0012 00BF     		.align	2
 272              	.L23:
 273 0014 00300240 		.word	1073885184
 275              		.section	.text.rcu_apb2_clock_config,"ax",%progbits
 276              		.align	1
 277              		.global	rcu_apb2_clock_config
 278              		.syntax unified
 279              		.thumb
 280              		.thumb_func
 282              	rcu_apb2_clock_config:
 283              		@ args = 0, pretend = 0, frame = 0
 284              		@ frame_needed = 0, uses_anonymous_args = 0
 285              		@ link register save eliminated.
 286 0000 044A     		ldr	r2, .L26
 287 0002 D2F80838 		ldr	r3, [r2, #2056]
 288 0006 23F46043 		bic	r3, r3, #57344
 289 000a 0343     		orrs	r3, r3, r0
 290 000c C2F80838 		str	r3, [r2, #2056]
 291 0010 7047     		bx	lr
 292              	.L27:
 293 0012 00BF     		.align	2
 294              	.L26:
 295 0014 00300240 		.word	1073885184
 297              		.section	.text.rcu_ckout0_config,"ax",%progbits
 298              		.align	1
 299              		.global	rcu_ckout0_config
 300              		.syntax unified
 301              		.thumb
 302              		.thumb_func
 304              	rcu_ckout0_config:
 305              		@ args = 0, pretend = 0, frame = 0
 306              		@ frame_needed = 0, uses_anonymous_args = 0
 307              		@ link register save eliminated.
 308 0000 044A     		ldr	r2, .L29
 309 0002 D2F80838 		ldr	r3, [r2, #2056]
 310 0006 23F0EC63 		bic	r3, r3, #123731968
 311 000a 0343     		orrs	r3, r3, r0
 312 000c 0B43     		orrs	r3, r3, r1
ARM GAS  /tmp/cco7EvgI.s 			page 6


 313 000e C2F80838 		str	r3, [r2, #2056]
 314 0012 7047     		bx	lr
 315              	.L30:
 316              		.align	2
 317              	.L29:
 318 0014 00300240 		.word	1073885184
 320              		.section	.text.rcu_ckout1_config,"ax",%progbits
 321              		.align	1
 322              		.global	rcu_ckout1_config
 323              		.syntax unified
 324              		.thumb
 325              		.thumb_func
 327              	rcu_ckout1_config:
 328              		@ args = 0, pretend = 0, frame = 0
 329              		@ frame_needed = 0, uses_anonymous_args = 0
 330              		@ link register save eliminated.
 331 0000 044A     		ldr	r2, .L32
 332 0002 D2F80838 		ldr	r3, [r2, #2056]
 333 0006 23F07843 		bic	r3, r3, #-134217728
 334 000a 0343     		orrs	r3, r3, r0
 335 000c 0B43     		orrs	r3, r3, r1
 336 000e C2F80838 		str	r3, [r2, #2056]
 337 0012 7047     		bx	lr
 338              	.L33:
 339              		.align	2
 340              	.L32:
 341 0014 00300240 		.word	1073885184
 343              		.section	.text.rcu_pll_config,"ax",%progbits
 344              		.align	1
 345              		.global	rcu_pll_config
 346              		.syntax unified
 347              		.thumb
 348              		.thumb_func
 350              	rcu_pll_config:
 351              		@ args = 4, pretend = 0, frame = 0
 352              		@ frame_needed = 0, uses_anonymous_args = 0
 353              		@ link register save eliminated.
 354 0000 10B4     		push	{r4}
 355 0002 214C     		ldr	r4, .L47
 356 0004 D4F88048 		ldr	r4, [r4, #2176]
 357 0008 002C     		cmp	r4, #0
 358 000a 26DB     		blt	.L46
 359 000c 4FF0000C 		mov	ip, #0
 360              	.L35:
 361 0010 8C1E     		subs	r4, r1, #2
 362 0012 3D2C     		cmp	r4, #61
 363 0014 2AD8     		bhi	.L39
 364 0016 0CF1400C 		add	ip, ip, #64
 365 001a 9445     		cmp	ip, r2
 366 001c 29D8     		bhi	.L40
 367 001e B2F5FA7F 		cmp	r2, #500
 368 0022 28D8     		bhi	.L41
 369 0024 082B     		cmp	r3, #8
 370 0026 28D8     		bhi	.L42
 371 0028 4FF4AA74 		mov	r4, #340
 372 002c DC40     		lsrs	r4, r4, r3
 373 002e 14F0010F 		tst	r4, #1
ARM GAS  /tmp/cco7EvgI.s 			page 7


 374 0032 24D0     		beq	.L43
 375 0034 019C     		ldr	r4, [sp, #4]
 376 0036 023C     		subs	r4, r4, #2
 377 0038 0D2C     		cmp	r4, #13
 378 003a 22D8     		bhi	.L44
 379 003c 41EA8211 		orr	r1, r1, r2, lsl #6
 380 0040 5B08     		lsrs	r3, r3, #1
 381 0042 013B     		subs	r3, r3, #1
 382 0044 41EA0343 		orr	r3, r1, r3, lsl #16
 383 0048 1843     		orrs	r0, r0, r3
 384 004a 019B     		ldr	r3, [sp, #4]
 385 004c 40EA0360 		orr	r0, r0, r3, lsl #24
 386 0050 0D4A     		ldr	r2, .L47
 387 0052 C2F80408 		str	r0, [r2, #2052]
 388 0056 0120     		movs	r0, #1
 389 0058 09E0     		b	.L36
 390              	.L46:
 391 005a 14F0804F 		tst	r4, #1073741824
 392 005e 02D0     		beq	.L38
 393 0060 4FF0070C 		mov	ip, #7
 394 0064 D4E7     		b	.L35
 395              	.L38:
 396 0066 4FF0050C 		mov	ip, #5
 397 006a D1E7     		b	.L35
 398              	.L39:
 399 006c 0020     		movs	r0, #0
 400              	.L36:
 401 006e 10BC     		pop	{r4}
 402 0070 7047     		bx	lr
 403              	.L40:
 404 0072 0020     		movs	r0, #0
 405 0074 FBE7     		b	.L36
 406              	.L41:
 407 0076 0020     		movs	r0, #0
 408 0078 F9E7     		b	.L36
 409              	.L42:
 410 007a 0020     		movs	r0, #0
 411 007c F7E7     		b	.L36
 412              	.L43:
 413 007e 0020     		movs	r0, #0
 414 0080 F5E7     		b	.L36
 415              	.L44:
 416 0082 0020     		movs	r0, #0
 417 0084 F3E7     		b	.L36
 418              	.L48:
 419 0086 00BF     		.align	2
 420              	.L47:
 421 0088 00300240 		.word	1073885184
 423              		.section	.text.rcu_plli2s_config,"ax",%progbits
 424              		.align	1
 425              		.global	rcu_plli2s_config
 426              		.syntax unified
 427              		.thumb
 428              		.thumb_func
 430              	rcu_plli2s_config:
 431              		@ args = 0, pretend = 0, frame = 0
 432              		@ frame_needed = 0, uses_anonymous_args = 0
ARM GAS  /tmp/cco7EvgI.s 			page 8


 433              		@ link register save eliminated.
 434 0000 A0F13203 		sub	r3, r0, #50
 435 0004 B3F5E17F 		cmp	r3, #450
 436 0008 0AD8     		bhi	.L51
 437 000a 8B1E     		subs	r3, r1, #2
 438 000c 052B     		cmp	r3, #5
 439 000e 09D8     		bhi	.L52
 440 0010 0907     		lsls	r1, r1, #28
 441 0012 41EA8010 		orr	r0, r1, r0, lsl #6
 442 0016 044B     		ldr	r3, .L53
 443 0018 C3F88408 		str	r0, [r3, #2180]
 444 001c 0120     		movs	r0, #1
 445 001e 7047     		bx	lr
 446              	.L51:
 447 0020 0020     		movs	r0, #0
 448 0022 7047     		bx	lr
 449              	.L52:
 450 0024 0020     		movs	r0, #0
 451 0026 7047     		bx	lr
 452              	.L54:
 453              		.align	2
 454              	.L53:
 455 0028 00300240 		.word	1073885184
 457              		.section	.text.rcu_pllsai_config,"ax",%progbits
 458              		.align	1
 459              		.global	rcu_pllsai_config
 460              		.syntax unified
 461              		.thumb
 462              		.thumb_func
 464              	rcu_pllsai_config:
 465              		@ args = 0, pretend = 0, frame = 0
 466              		@ frame_needed = 0, uses_anonymous_args = 0
 467              		@ link register save eliminated.
 468 0000 A0F13203 		sub	r3, r0, #50
 469 0004 B3F5E17F 		cmp	r3, #450
 470 0008 16D8     		bhi	.L57
 471 000a 0829     		cmp	r1, #8
 472 000c 16D8     		bhi	.L58
 473 000e 4FF4AA73 		mov	r3, #340
 474 0012 CB40     		lsrs	r3, r3, r1
 475 0014 13F0010F 		tst	r3, #1
 476 0018 12D0     		beq	.L59
 477 001a 931E     		subs	r3, r2, #2
 478 001c 052B     		cmp	r3, #5
 479 001e 11D8     		bhi	.L60
 480 0020 4908     		lsrs	r1, r1, #1
 481 0022 0139     		subs	r1, r1, #1
 482 0024 0904     		lsls	r1, r1, #16
 483 0026 41EA8010 		orr	r0, r1, r0, lsl #6
 484 002a 40EA0272 		orr	r2, r0, r2, lsl #28
 485 002e 064B     		ldr	r3, .L61
 486 0030 C3F88828 		str	r2, [r3, #2184]
 487 0034 0120     		movs	r0, #1
 488 0036 7047     		bx	lr
 489              	.L57:
 490 0038 0020     		movs	r0, #0
 491 003a 7047     		bx	lr
ARM GAS  /tmp/cco7EvgI.s 			page 9


 492              	.L58:
 493 003c 0020     		movs	r0, #0
 494 003e 7047     		bx	lr
 495              	.L59:
 496 0040 0020     		movs	r0, #0
 497 0042 7047     		bx	lr
 498              	.L60:
 499 0044 0020     		movs	r0, #0
 500 0046 7047     		bx	lr
 501              	.L62:
 502              		.align	2
 503              	.L61:
 504 0048 00300240 		.word	1073885184
 506              		.section	.text.rcu_rtc_clock_config,"ax",%progbits
 507              		.align	1
 508              		.global	rcu_rtc_clock_config
 509              		.syntax unified
 510              		.thumb
 511              		.thumb_func
 513              	rcu_rtc_clock_config:
 514              		@ args = 0, pretend = 0, frame = 0
 515              		@ frame_needed = 0, uses_anonymous_args = 0
 516              		@ link register save eliminated.
 517 0000 044A     		ldr	r2, .L64
 518 0002 D2F87038 		ldr	r3, [r2, #2160]
 519 0006 23F44073 		bic	r3, r3, #768
 520 000a 0343     		orrs	r3, r3, r0
 521 000c C2F87038 		str	r3, [r2, #2160]
 522 0010 7047     		bx	lr
 523              	.L65:
 524 0012 00BF     		.align	2
 525              	.L64:
 526 0014 00300240 		.word	1073885184
 528              		.section	.text.rcu_rtc_div_config,"ax",%progbits
 529              		.align	1
 530              		.global	rcu_rtc_div_config
 531              		.syntax unified
 532              		.thumb
 533              		.thumb_func
 535              	rcu_rtc_div_config:
 536              		@ args = 0, pretend = 0, frame = 0
 537              		@ frame_needed = 0, uses_anonymous_args = 0
 538              		@ link register save eliminated.
 539 0000 044A     		ldr	r2, .L67
 540 0002 D2F80838 		ldr	r3, [r2, #2056]
 541 0006 23F4F813 		bic	r3, r3, #2031616
 542 000a 0343     		orrs	r3, r3, r0
 543 000c C2F80838 		str	r3, [r2, #2056]
 544 0010 7047     		bx	lr
 545              	.L68:
 546 0012 00BF     		.align	2
 547              	.L67:
 548 0014 00300240 		.word	1073885184
 550              		.section	.text.rcu_i2s_clock_config,"ax",%progbits
 551              		.align	1
 552              		.global	rcu_i2s_clock_config
 553              		.syntax unified
ARM GAS  /tmp/cco7EvgI.s 			page 10


 554              		.thumb
 555              		.thumb_func
 557              	rcu_i2s_clock_config:
 558              		@ args = 0, pretend = 0, frame = 0
 559              		@ frame_needed = 0, uses_anonymous_args = 0
 560              		@ link register save eliminated.
 561 0000 044A     		ldr	r2, .L70
 562 0002 D2F80838 		ldr	r3, [r2, #2056]
 563 0006 23F40003 		bic	r3, r3, #8388608
 564 000a 0343     		orrs	r3, r3, r0
 565 000c C2F80838 		str	r3, [r2, #2056]
 566 0010 7047     		bx	lr
 567              	.L71:
 568 0012 00BF     		.align	2
 569              	.L70:
 570 0014 00300240 		.word	1073885184
 572              		.section	.text.rcu_ck48m_clock_config,"ax",%progbits
 573              		.align	1
 574              		.global	rcu_ck48m_clock_config
 575              		.syntax unified
 576              		.thumb
 577              		.thumb_func
 579              	rcu_ck48m_clock_config:
 580              		@ args = 0, pretend = 0, frame = 0
 581              		@ frame_needed = 0, uses_anonymous_args = 0
 582              		@ link register save eliminated.
 583 0000 044A     		ldr	r2, .L73
 584 0002 D2F8C038 		ldr	r3, [r2, #2240]
 585 0006 23F00103 		bic	r3, r3, #1
 586 000a 0343     		orrs	r3, r3, r0
 587 000c C2F8C038 		str	r3, [r2, #2240]
 588 0010 7047     		bx	lr
 589              	.L74:
 590 0012 00BF     		.align	2
 591              	.L73:
 592 0014 00300240 		.word	1073885184
 594              		.section	.text.rcu_pll48m_clock_config,"ax",%progbits
 595              		.align	1
 596              		.global	rcu_pll48m_clock_config
 597              		.syntax unified
 598              		.thumb
 599              		.thumb_func
 601              	rcu_pll48m_clock_config:
 602              		@ args = 0, pretend = 0, frame = 0
 603              		@ frame_needed = 0, uses_anonymous_args = 0
 604              		@ link register save eliminated.
 605 0000 044A     		ldr	r2, .L76
 606 0002 D2F8C038 		ldr	r3, [r2, #2240]
 607 0006 23F00203 		bic	r3, r3, #2
 608 000a 0343     		orrs	r3, r3, r0
 609 000c C2F8C038 		str	r3, [r2, #2240]
 610 0010 7047     		bx	lr
 611              	.L77:
 612 0012 00BF     		.align	2
 613              	.L76:
 614 0014 00300240 		.word	1073885184
 616              		.section	.text.rcu_timer_clock_prescaler_config,"ax",%progbits
ARM GAS  /tmp/cco7EvgI.s 			page 11


 617              		.align	1
 618              		.global	rcu_timer_clock_prescaler_config
 619              		.syntax unified
 620              		.thumb
 621              		.thumb_func
 623              	rcu_timer_clock_prescaler_config:
 624              		@ args = 0, pretend = 0, frame = 0
 625              		@ frame_needed = 0, uses_anonymous_args = 0
 626              		@ link register save eliminated.
 627 0000 6FF08073 		mvn	r3, #16777216
 628 0004 9842     		cmp	r0, r3
 629 0006 06D0     		beq	.L81
 630 0008 064A     		ldr	r2, .L82
 631 000a D2F88C38 		ldr	r3, [r2, #2188]
 632 000e 0343     		orrs	r3, r3, r0
 633 0010 C2F88C38 		str	r3, [r2, #2188]
 634 0014 7047     		bx	lr
 635              	.L81:
 636 0016 034A     		ldr	r2, .L82
 637 0018 D2F88C38 		ldr	r3, [r2, #2188]
 638 001c 0340     		ands	r3, r3, r0
 639 001e C2F88C38 		str	r3, [r2, #2188]
 640 0022 7047     		bx	lr
 641              	.L83:
 642              		.align	2
 643              	.L82:
 644 0024 00300240 		.word	1073885184
 646              		.section	.text.rcu_tli_clock_div_config,"ax",%progbits
 647              		.align	1
 648              		.global	rcu_tli_clock_div_config
 649              		.syntax unified
 650              		.thumb
 651              		.thumb_func
 653              	rcu_tli_clock_div_config:
 654              		@ args = 0, pretend = 0, frame = 0
 655              		@ frame_needed = 0, uses_anonymous_args = 0
 656              		@ link register save eliminated.
 657 0000 044A     		ldr	r2, .L85
 658 0002 D2F88C38 		ldr	r3, [r2, #2188]
 659 0006 23F44033 		bic	r3, r3, #196608
 660 000a 0343     		orrs	r3, r3, r0
 661 000c C2F88C38 		str	r3, [r2, #2188]
 662 0010 7047     		bx	lr
 663              	.L86:
 664 0012 00BF     		.align	2
 665              	.L85:
 666 0014 00300240 		.word	1073885184
 668              		.section	.text.rcu_lxtal_drive_capability_config,"ax",%progbits
 669              		.align	1
 670              		.global	rcu_lxtal_drive_capability_config
 671              		.syntax unified
 672              		.thumb
 673              		.thumb_func
 675              	rcu_lxtal_drive_capability_config:
 676              		@ args = 0, pretend = 0, frame = 0
 677              		@ frame_needed = 0, uses_anonymous_args = 0
 678              		@ link register save eliminated.
ARM GAS  /tmp/cco7EvgI.s 			page 12


 679 0000 044A     		ldr	r2, .L88
 680 0002 D2F87038 		ldr	r3, [r2, #2160]
 681 0006 23F00803 		bic	r3, r3, #8
 682 000a 0343     		orrs	r3, r3, r0
 683 000c C2F87038 		str	r3, [r2, #2160]
 684 0010 7047     		bx	lr
 685              	.L89:
 686 0012 00BF     		.align	2
 687              	.L88:
 688 0014 00300240 		.word	1073885184
 690              		.section	.text.rcu_osci_on,"ax",%progbits
 691              		.align	1
 692              		.global	rcu_osci_on
 693              		.syntax unified
 694              		.thumb
 695              		.thumb_func
 697              	rcu_osci_on:
 698              		@ args = 0, pretend = 0, frame = 0
 699              		@ frame_needed = 0, uses_anonymous_args = 0
 700              		@ link register save eliminated.
 701 0000 8309     		lsrs	r3, r0, #6
 702 0002 03F18043 		add	r3, r3, #1073741824
 703 0006 03F50E33 		add	r3, r3, #145408
 704 000a 1A68     		ldr	r2, [r3]
 705 000c 00F01F00 		and	r0, r0, #31
 706 0010 0121     		movs	r1, #1
 707 0012 8140     		lsls	r1, r1, r0
 708 0014 0A43     		orrs	r2, r2, r1
 709 0016 1A60     		str	r2, [r3]
 710 0018 7047     		bx	lr
 712              		.section	.text.rcu_osci_off,"ax",%progbits
 713              		.align	1
 714              		.global	rcu_osci_off
 715              		.syntax unified
 716              		.thumb
 717              		.thumb_func
 719              	rcu_osci_off:
 720              		@ args = 0, pretend = 0, frame = 0
 721              		@ frame_needed = 0, uses_anonymous_args = 0
 722              		@ link register save eliminated.
 723 0000 8309     		lsrs	r3, r0, #6
 724 0002 03F18043 		add	r3, r3, #1073741824
 725 0006 03F50E33 		add	r3, r3, #145408
 726 000a 1A68     		ldr	r2, [r3]
 727 000c 00F01F00 		and	r0, r0, #31
 728 0010 0121     		movs	r1, #1
 729 0012 8140     		lsls	r1, r1, r0
 730 0014 22EA0102 		bic	r2, r2, r1
 731 0018 1A60     		str	r2, [r3]
 732 001a 7047     		bx	lr
 734              		.section	.text.rcu_osci_bypass_mode_enable,"ax",%progbits
 735              		.align	1
 736              		.global	rcu_osci_bypass_mode_enable
 737              		.syntax unified
 738              		.thumb
 739              		.thumb_func
 741              	rcu_osci_bypass_mode_enable:
ARM GAS  /tmp/cco7EvgI.s 			page 13


 742              		@ args = 0, pretend = 0, frame = 0
 743              		@ frame_needed = 0, uses_anonymous_args = 0
 744              		@ link register save eliminated.
 745 0000 1028     		cmp	r0, #16
 746 0002 03D0     		beq	.L93
 747 0004 B0F5E05F 		cmp	r0, #7168
 748 0008 0ED0     		beq	.L94
 749 000a 7047     		bx	lr
 750              	.L93:
 751 000c 0D4B     		ldr	r3, .L96
 752 000e D3F80028 		ldr	r2, [r3, #2048]
 753 0012 D3F80018 		ldr	r1, [r3, #2048]
 754 0016 21F48031 		bic	r1, r1, #65536
 755 001a C3F80018 		str	r1, [r3, #2048]
 756 001e 42F48022 		orr	r2, r2, #262144
 757 0022 C3F80028 		str	r2, [r3, #2048]
 758 0026 7047     		bx	lr
 759              	.L94:
 760 0028 064B     		ldr	r3, .L96
 761 002a D3F87028 		ldr	r2, [r3, #2160]
 762 002e D3F87018 		ldr	r1, [r3, #2160]
 763 0032 21F00101 		bic	r1, r1, #1
 764 0036 C3F87018 		str	r1, [r3, #2160]
 765 003a 42F00402 		orr	r2, r2, #4
 766 003e C3F87028 		str	r2, [r3, #2160]
 767 0042 7047     		bx	lr
 768              	.L97:
 769              		.align	2
 770              	.L96:
 771 0044 00300240 		.word	1073885184
 773              		.section	.text.rcu_osci_bypass_mode_disable,"ax",%progbits
 774              		.align	1
 775              		.global	rcu_osci_bypass_mode_disable
 776              		.syntax unified
 777              		.thumb
 778              		.thumb_func
 780              	rcu_osci_bypass_mode_disable:
 781              		@ args = 0, pretend = 0, frame = 0
 782              		@ frame_needed = 0, uses_anonymous_args = 0
 783              		@ link register save eliminated.
 784 0000 1028     		cmp	r0, #16
 785 0002 03D0     		beq	.L99
 786 0004 B0F5E05F 		cmp	r0, #7168
 787 0008 0ED0     		beq	.L100
 788 000a 7047     		bx	lr
 789              	.L99:
 790 000c 0D4B     		ldr	r3, .L102
 791 000e D3F80028 		ldr	r2, [r3, #2048]
 792 0012 D3F80018 		ldr	r1, [r3, #2048]
 793 0016 21F48031 		bic	r1, r1, #65536
 794 001a C3F80018 		str	r1, [r3, #2048]
 795 001e 22F48022 		bic	r2, r2, #262144
 796 0022 C3F80028 		str	r2, [r3, #2048]
 797 0026 7047     		bx	lr
 798              	.L100:
 799 0028 064B     		ldr	r3, .L102
 800 002a D3F87028 		ldr	r2, [r3, #2160]
ARM GAS  /tmp/cco7EvgI.s 			page 14


 801 002e D3F87018 		ldr	r1, [r3, #2160]
 802 0032 21F00101 		bic	r1, r1, #1
 803 0036 C3F87018 		str	r1, [r3, #2160]
 804 003a 22F00402 		bic	r2, r2, #4
 805 003e C3F87028 		str	r2, [r3, #2160]
 806 0042 7047     		bx	lr
 807              	.L103:
 808              		.align	2
 809              	.L102:
 810 0044 00300240 		.word	1073885184
 812              		.section	.text.rcu_irc16m_adjust_value_set,"ax",%progbits
 813              		.align	1
 814              		.global	rcu_irc16m_adjust_value_set
 815              		.syntax unified
 816              		.thumb
 817              		.thumb_func
 819              	rcu_irc16m_adjust_value_set:
 820              		@ args = 0, pretend = 0, frame = 0
 821              		@ frame_needed = 0, uses_anonymous_args = 0
 822              		@ link register save eliminated.
 823 0000 054A     		ldr	r2, .L105
 824 0002 D2F80038 		ldr	r3, [r2, #2048]
 825 0006 23F0F803 		bic	r3, r3, #248
 826 000a C000     		lsls	r0, r0, #3
 827 000c C0B2     		uxtb	r0, r0
 828 000e 1843     		orrs	r0, r0, r3
 829 0010 C2F80008 		str	r0, [r2, #2048]
 830 0014 7047     		bx	lr
 831              	.L106:
 832 0016 00BF     		.align	2
 833              	.L105:
 834 0018 00300240 		.word	1073885184
 836              		.section	.text.rcu_spread_spectrum_config,"ax",%progbits
 837              		.align	1
 838              		.global	rcu_spread_spectrum_config
 839              		.syntax unified
 840              		.thumb
 841              		.thumb_func
 843              	rcu_spread_spectrum_config:
 844              		@ args = 0, pretend = 0, frame = 0
 845              		@ frame_needed = 0, uses_anonymous_args = 0
 846              		@ link register save eliminated.
 847 0000 10B4     		push	{r4}
 848 0002 064C     		ldr	r4, .L109
 849 0004 D4F88038 		ldr	r3, [r4, #2176]
 850 0008 03F03043 		and	r3, r3, #-1342177280
 851 000c 0343     		orrs	r3, r3, r0
 852 000e 43EA4133 		orr	r3, r3, r1, lsl #13
 853 0012 1343     		orrs	r3, r3, r2
 854 0014 C4F88038 		str	r3, [r4, #2176]
 855 0018 10BC     		pop	{r4}
 856 001a 7047     		bx	lr
 857              	.L110:
 858              		.align	2
 859              	.L109:
 860 001c 00300240 		.word	1073885184
 862              		.section	.text.rcu_spread_spectrum_enable,"ax",%progbits
ARM GAS  /tmp/cco7EvgI.s 			page 15


 863              		.align	1
 864              		.global	rcu_spread_spectrum_enable
 865              		.syntax unified
 866              		.thumb
 867              		.thumb_func
 869              	rcu_spread_spectrum_enable:
 870              		@ args = 0, pretend = 0, frame = 0
 871              		@ frame_needed = 0, uses_anonymous_args = 0
 872              		@ link register save eliminated.
 873 0000 034A     		ldr	r2, .L112
 874 0002 D2F88038 		ldr	r3, [r2, #2176]
 875 0006 43F00043 		orr	r3, r3, #-2147483648
 876 000a C2F88038 		str	r3, [r2, #2176]
 877 000e 7047     		bx	lr
 878              	.L113:
 879              		.align	2
 880              	.L112:
 881 0010 00300240 		.word	1073885184
 883              		.section	.text.rcu_spread_spectrum_disable,"ax",%progbits
 884              		.align	1
 885              		.global	rcu_spread_spectrum_disable
 886              		.syntax unified
 887              		.thumb
 888              		.thumb_func
 890              	rcu_spread_spectrum_disable:
 891              		@ args = 0, pretend = 0, frame = 0
 892              		@ frame_needed = 0, uses_anonymous_args = 0
 893              		@ link register save eliminated.
 894 0000 034A     		ldr	r2, .L115
 895 0002 D2F88038 		ldr	r3, [r2, #2176]
 896 0006 23F00043 		bic	r3, r3, #-2147483648
 897 000a C2F88038 		str	r3, [r2, #2176]
 898 000e 7047     		bx	lr
 899              	.L116:
 900              		.align	2
 901              	.L115:
 902 0010 00300240 		.word	1073885184
 904              		.section	.text.rcu_hxtal_clock_monitor_enable,"ax",%progbits
 905              		.align	1
 906              		.global	rcu_hxtal_clock_monitor_enable
 907              		.syntax unified
 908              		.thumb
 909              		.thumb_func
 911              	rcu_hxtal_clock_monitor_enable:
 912              		@ args = 0, pretend = 0, frame = 0
 913              		@ frame_needed = 0, uses_anonymous_args = 0
 914              		@ link register save eliminated.
 915 0000 034A     		ldr	r2, .L118
 916 0002 D2F80038 		ldr	r3, [r2, #2048]
 917 0006 43F40023 		orr	r3, r3, #524288
 918 000a C2F80038 		str	r3, [r2, #2048]
 919 000e 7047     		bx	lr
 920              	.L119:
 921              		.align	2
 922              	.L118:
 923 0010 00300240 		.word	1073885184
 925              		.section	.text.rcu_hxtal_clock_monitor_disable,"ax",%progbits
ARM GAS  /tmp/cco7EvgI.s 			page 16


 926              		.align	1
 927              		.global	rcu_hxtal_clock_monitor_disable
 928              		.syntax unified
 929              		.thumb
 930              		.thumb_func
 932              	rcu_hxtal_clock_monitor_disable:
 933              		@ args = 0, pretend = 0, frame = 0
 934              		@ frame_needed = 0, uses_anonymous_args = 0
 935              		@ link register save eliminated.
 936 0000 034A     		ldr	r2, .L121
 937 0002 D2F80038 		ldr	r3, [r2, #2048]
 938 0006 23F40023 		bic	r3, r3, #524288
 939 000a C2F80038 		str	r3, [r2, #2048]
 940 000e 7047     		bx	lr
 941              	.L122:
 942              		.align	2
 943              	.L121:
 944 0010 00300240 		.word	1073885184
 946              		.section	.text.rcu_voltage_key_unlock,"ax",%progbits
 947              		.align	1
 948              		.global	rcu_voltage_key_unlock
 949              		.syntax unified
 950              		.thumb
 951              		.thumb_func
 953              	rcu_voltage_key_unlock:
 954              		@ args = 0, pretend = 0, frame = 0
 955              		@ frame_needed = 0, uses_anonymous_args = 0
 956              		@ link register save eliminated.
 957 0000 024B     		ldr	r3, .L124
 958 0002 034A     		ldr	r2, .L124+4
 959 0004 C3F80029 		str	r2, [r3, #2304]
 960 0008 7047     		bx	lr
 961              	.L125:
 962 000a 00BF     		.align	2
 963              	.L124:
 964 000c 00300240 		.word	1073885184
 965 0010 4D3C2B1A 		.word	439041101
 967              		.section	.text.rcu_deepsleep_voltage_set,"ax",%progbits
 968              		.align	1
 969              		.global	rcu_deepsleep_voltage_set
 970              		.syntax unified
 971              		.thumb
 972              		.thumb_func
 974              	rcu_deepsleep_voltage_set:
 975              		@ args = 0, pretend = 0, frame = 0
 976              		@ frame_needed = 0, uses_anonymous_args = 0
 977              		@ link register save eliminated.
 978 0000 00F00700 		and	r0, r0, #7
 979 0004 014B     		ldr	r3, .L127
 980 0006 C3F83409 		str	r0, [r3, #2356]
 981 000a 7047     		bx	lr
 982              	.L128:
 983              		.align	2
 984              	.L127:
 985 000c 00300240 		.word	1073885184
 987              		.section	.text.rcu_clock_freq_get,"ax",%progbits
 988              		.align	1
ARM GAS  /tmp/cco7EvgI.s 			page 17


 989              		.global	rcu_clock_freq_get
 990              		.syntax unified
 991              		.thumb
 992              		.thumb_func
 994              	rcu_clock_freq_get:
 995              		@ args = 0, pretend = 0, frame = 32
 996              		@ frame_needed = 0, uses_anonymous_args = 0
 997 0000 10B5     		push	{r4, lr}
 998 0002 88B0     		sub	sp, sp, #32
 999 0004 8446     		mov	ip, r0
 1000 0006 344C     		ldr	r4, .L143
 1001 0008 94E80F00 		ldm	r4, {r0, r1, r2, r3}
 1002 000c 0DF1200E 		add	lr, sp, #32
 1003 0010 0EE90F00 		stmdb	lr, {r0, r1, r2, r3}
 1004 0014 02AB     		add	r3, sp, #8
 1005 0016 1034     		adds	r4, r4, #16
 1006 0018 94E80300 		ldm	r4, {r0, r1}
 1007 001c 83E80300 		stm	r3, {r0, r1}
 1008 0020 6B46     		mov	r3, sp
 1009 0022 83E80300 		stm	r3, {r0, r1}
 1010 0026 2D4B     		ldr	r3, .L143+4
 1011 0028 D3F80838 		ldr	r3, [r3, #2056]
 1012 002c C3F38103 		ubfx	r3, r3, #2, #2
 1013 0030 012B     		cmp	r3, #1
 1014 0032 1FD0     		beq	.L138
 1015 0034 022B     		cmp	r3, #2
 1016 0036 1FD1     		bne	.L139
 1017 0038 284A     		ldr	r2, .L143+4
 1018 003a D2F80448 		ldr	r4, [r2, #2052]
 1019 003e 04F03F04 		and	r4, r4, #63
 1020 0042 D2F80418 		ldr	r1, [r2, #2052]
 1021 0046 C1F38811 		ubfx	r1, r1, #6, #9
 1022 004a D2F80438 		ldr	r3, [r2, #2052]
 1023 004e C3F30143 		ubfx	r3, r3, #16, #2
 1024 0052 0133     		adds	r3, r3, #1
 1025 0054 5B00     		lsls	r3, r3, #1
 1026 0056 D2F80428 		ldr	r2, [r2, #2052]
 1027 005a 12F4800F 		tst	r2, #4194304
 1028 005e 07D0     		beq	.L140
 1029 0060 1F48     		ldr	r0, .L143+8
 1030              	.L131:
 1031 0062 B0FBF4F0 		udiv	r0, r0, r4
 1032 0066 01FB00F0 		mul	r0, r1, r0
 1033 006a B0FBF3F0 		udiv	r0, r0, r3
 1034 006e 04E0     		b	.L130
 1035              	.L140:
 1036 0070 1C48     		ldr	r0, .L143+12
 1037 0072 F6E7     		b	.L131
 1038              	.L138:
 1039 0074 1A48     		ldr	r0, .L143+8
 1040 0076 00E0     		b	.L130
 1041              	.L139:
 1042 0078 1A48     		ldr	r0, .L143+12
 1043              	.L130:
 1044 007a 1849     		ldr	r1, .L143+4
 1045 007c D1F80838 		ldr	r3, [r1, #2056]
 1046 0080 C3F30313 		ubfx	r3, r3, #4, #4
ARM GAS  /tmp/cco7EvgI.s 			page 18


 1047 0084 2033     		adds	r3, r3, #32
 1048 0086 6B44     		add	r3, sp, r3
 1049 0088 13F8102C 		ldrb	r2, [r3, #-16]	@ zero_extendqisi2
 1050 008c 20FA02F2 		lsr	r2, r0, r2
 1051 0090 D1F80838 		ldr	r3, [r1, #2056]
 1052 0094 C3F38223 		ubfx	r3, r3, #10, #3
 1053 0098 2033     		adds	r3, r3, #32
 1054 009a 6B44     		add	r3, sp, r3
 1055 009c 13F8183C 		ldrb	r3, [r3, #-24]	@ zero_extendqisi2
 1056 00a0 22FA03F4 		lsr	r4, r2, r3
 1057 00a4 D1F80838 		ldr	r3, [r1, #2056]
 1058 00a8 C3F34233 		ubfx	r3, r3, #13, #3
 1059 00ac 2033     		adds	r3, r3, #32
 1060 00ae 6B44     		add	r3, sp, r3
 1061 00b0 13F8203C 		ldrb	r3, [r3, #-32]	@ zero_extendqisi2
 1062 00b4 22FA03F3 		lsr	r3, r2, r3
 1063 00b8 BCF1030F 		cmp	ip, #3
 1064 00bc 03D8     		bhi	.L132
 1065 00be DFE80CF0 		tbb	[pc, ip]
 1066              	.L134:
 1067 00c2 05       		.byte	(.L129-.L134)/2
 1068 00c3 04       		.byte	(.L136-.L134)/2
 1069 00c4 07       		.byte	(.L135-.L134)/2
 1070 00c5 09       		.byte	(.L133-.L134)/2
 1071              		.p2align 1
 1072              	.L132:
 1073 00c6 0020     		movs	r0, #0
 1074 00c8 00E0     		b	.L129
 1075              	.L136:
 1076 00ca 1046     		mov	r0, r2
 1077              	.L129:
 1078 00cc 08B0     		add	sp, sp, #32
 1079              		@ sp needed
 1080 00ce 10BD     		pop	{r4, pc}
 1081              	.L135:
 1082 00d0 2046     		mov	r0, r4
 1083 00d2 FBE7     		b	.L129
 1084              	.L133:
 1085 00d4 1846     		mov	r0, r3
 1086 00d6 F9E7     		b	.L129
 1087              	.L144:
 1088              		.align	2
 1089              	.L143:
 1090 00d8 00000000 		.word	.LANCHOR0
 1091 00dc 00300240 		.word	1073885184
 1092 00e0 40787D01 		.word	25000000
 1093 00e4 0024F400 		.word	16000000
 1095              		.section	.text.rcu_flag_get,"ax",%progbits
 1096              		.align	1
 1097              		.global	rcu_flag_get
 1098              		.syntax unified
 1099              		.thumb
 1100              		.thumb_func
 1102              	rcu_flag_get:
 1103              		@ args = 0, pretend = 0, frame = 0
 1104              		@ frame_needed = 0, uses_anonymous_args = 0
 1105              		@ link register save eliminated.
ARM GAS  /tmp/cco7EvgI.s 			page 19


 1106 0000 8309     		lsrs	r3, r0, #6
 1107 0002 03F18043 		add	r3, r3, #1073741824
 1108 0006 03F50E33 		add	r3, r3, #145408
 1109 000a 1B68     		ldr	r3, [r3]
 1110 000c 00F01F00 		and	r0, r0, #31
 1111 0010 C340     		lsrs	r3, r3, r0
 1112 0012 13F0010F 		tst	r3, #1
 1113 0016 01D0     		beq	.L147
 1114 0018 0120     		movs	r0, #1
 1115 001a 7047     		bx	lr
 1116              	.L147:
 1117 001c 0020     		movs	r0, #0
 1118 001e 7047     		bx	lr
 1120              		.section	.text.rcu_osci_stab_wait,"ax",%progbits
 1121              		.align	1
 1122              		.global	rcu_osci_stab_wait
 1123              		.syntax unified
 1124              		.thumb
 1125              		.thumb_func
 1127              	rcu_osci_stab_wait:
 1128              		@ args = 0, pretend = 0, frame = 0
 1129              		@ frame_needed = 0, uses_anonymous_args = 0
 1130 0000 10B5     		push	{r4, lr}
 1131 0002 1C28     		cmp	r0, #28
 1132 0004 13D8     		bhi	.L149
 1133 0006 1C28     		cmp	r0, #28
 1134 0008 00F2B280 		bhi	.L176
 1135 000c DFE800F0 		tbb	[pc, r0]
 1136              	.L152:
 1137 0010 56       		.byte	(.L177-.L152)/2
 1138 0011 B0       		.byte	(.L176-.L152)/2
 1139 0012 B0       		.byte	(.L176-.L152)/2
 1140 0013 B0       		.byte	(.L176-.L152)/2
 1141 0014 B0       		.byte	(.L176-.L152)/2
 1142 0015 B0       		.byte	(.L176-.L152)/2
 1143 0016 B0       		.byte	(.L176-.L152)/2
 1144 0017 B0       		.byte	(.L176-.L152)/2
 1145 0018 B0       		.byte	(.L176-.L152)/2
 1146 0019 B0       		.byte	(.L176-.L152)/2
 1147 001a B0       		.byte	(.L176-.L152)/2
 1148 001b B0       		.byte	(.L176-.L152)/2
 1149 001c B0       		.byte	(.L176-.L152)/2
 1150 001d B0       		.byte	(.L176-.L152)/2
 1151 001e B0       		.byte	(.L176-.L152)/2
 1152 001f B0       		.byte	(.L176-.L152)/2
 1153 0020 32       		.byte	(.L178-.L152)/2
 1154 0021 B0       		.byte	(.L176-.L152)/2
 1155 0022 B0       		.byte	(.L176-.L152)/2
 1156 0023 B0       		.byte	(.L176-.L152)/2
 1157 0024 B0       		.byte	(.L176-.L152)/2
 1158 0025 B0       		.byte	(.L176-.L152)/2
 1159 0026 B0       		.byte	(.L176-.L152)/2
 1160 0027 B0       		.byte	(.L176-.L152)/2
 1161 0028 8B       		.byte	(.L179-.L152)/2
 1162 0029 B0       		.byte	(.L176-.L152)/2
 1163 002a 9C       		.byte	(.L180-.L152)/2
 1164 002b B0       		.byte	(.L176-.L152)/2
ARM GAS  /tmp/cco7EvgI.s 			page 20


 1165 002c AD       		.byte	(.L181-.L152)/2
 1166 002d 00       		.p2align 1
 1167              	.L149:
 1168 002e B0F5E85F 		cmp	r0, #7424
 1169 0032 67D0     		beq	.L182
 1170 0034 43F21003 		movw	r3, #12304
 1171 0038 9842     		cmp	r0, r3
 1172 003a 02D1     		bne	.L194
 1173 003c 0020     		movs	r0, #0
 1174 003e 0446     		mov	r4, r0
 1175 0040 44E0     		b	.L158
 1176              	.L194:
 1177 0042 B0F5E05F 		cmp	r0, #7168
 1178 0046 02D1     		bne	.L195
 1179 0048 0020     		movs	r0, #0
 1180 004a 0446     		mov	r4, r0
 1181 004c 1AE0     		b	.L159
 1182              	.L195:
 1183 004e 0020     		movs	r0, #0
 1184 0050 8FE0     		b	.L150
 1185              	.L161:
 1186 0052 1120     		movs	r0, #17
 1187 0054 FFF7FEFF 		bl	rcu_flag_get
 1188 0058 0134     		adds	r4, r4, #1
 1189              	.L155:
 1190 005a 18B9     		cbnz	r0, .L160
 1191 005c 4FF6FF73 		movw	r3, #65535
 1192 0060 9C42     		cmp	r4, r3
 1193 0062 F6D1     		bne	.L161
 1194              	.L160:
 1195 0064 1120     		movs	r0, #17
 1196 0066 FFF7FEFF 		bl	rcu_flag_get
 1197 006a 0028     		cmp	r0, #0
 1198 006c 00F08180 		beq	.L150
 1199 0070 0120     		movs	r0, #1
 1200 0072 7EE0     		b	.L150
 1201              	.L178:
 1202 0074 0020     		movs	r0, #0
 1203 0076 0446     		mov	r4, r0
 1204 0078 EFE7     		b	.L155
 1205              	.L163:
 1206 007a 41F60140 		movw	r0, #7169
 1207 007e FFF7FEFF 		bl	rcu_flag_get
 1208 0082 0134     		adds	r4, r4, #1
 1209              	.L159:
 1210 0084 18B9     		cbnz	r0, .L162
 1211 0086 6FF07043 		mvn	r3, #-268435456
 1212 008a 9C42     		cmp	r4, r3
 1213 008c F5D1     		bne	.L163
 1214              	.L162:
 1215 008e 41F60140 		movw	r0, #7169
 1216 0092 FFF7FEFF 		bl	rcu_flag_get
 1217 0096 0028     		cmp	r0, #0
 1218 0098 6BD0     		beq	.L150
 1219 009a 0120     		movs	r0, #1
 1220 009c 69E0     		b	.L150
 1221              	.L165:
ARM GAS  /tmp/cco7EvgI.s 			page 21


 1222 009e 0120     		movs	r0, #1
 1223 00a0 FFF7FEFF 		bl	rcu_flag_get
 1224 00a4 0134     		adds	r4, r4, #1
 1225              	.L156:
 1226 00a6 10B9     		cbnz	r0, .L164
 1227 00a8 B4F5A06F 		cmp	r4, #1280
 1228 00ac F7D1     		bne	.L165
 1229              	.L164:
 1230 00ae 0120     		movs	r0, #1
 1231 00b0 FFF7FEFF 		bl	rcu_flag_get
 1232 00b4 0028     		cmp	r0, #0
 1233 00b6 5CD0     		beq	.L150
 1234 00b8 0120     		movs	r0, #1
 1235 00ba 5AE0     		b	.L150
 1236              	.L177:
 1237 00bc 0020     		movs	r0, #0
 1238 00be 0446     		mov	r4, r0
 1239 00c0 F1E7     		b	.L156
 1240              	.L167:
 1241 00c2 43F21100 		movw	r0, #12305
 1242 00c6 FFF7FEFF 		bl	rcu_flag_get
 1243 00ca 0134     		adds	r4, r4, #1
 1244              	.L158:
 1245 00cc 10B9     		cbnz	r0, .L166
 1246 00ce 294B     		ldr	r3, .L196
 1247 00d0 9C42     		cmp	r4, r3
 1248 00d2 F6D1     		bne	.L167
 1249              	.L166:
 1250 00d4 43F21100 		movw	r0, #12305
 1251 00d8 FFF7FEFF 		bl	rcu_flag_get
 1252 00dc 0028     		cmp	r0, #0
 1253 00de 48D0     		beq	.L150
 1254 00e0 0120     		movs	r0, #1
 1255 00e2 46E0     		b	.L150
 1256              	.L169:
 1257 00e4 41F60150 		movw	r0, #7425
 1258 00e8 FFF7FEFF 		bl	rcu_flag_get
 1259 00ec 0134     		adds	r4, r4, #1
 1260              	.L157:
 1261 00ee 10B9     		cbnz	r0, .L168
 1262 00f0 204B     		ldr	r3, .L196
 1263 00f2 9C42     		cmp	r4, r3
 1264 00f4 F6D1     		bne	.L169
 1265              	.L168:
 1266 00f6 41F60150 		movw	r0, #7425
 1267 00fa FFF7FEFF 		bl	rcu_flag_get
 1268 00fe C0B3     		cbz	r0, .L150
 1269 0100 0120     		movs	r0, #1
 1270 0102 36E0     		b	.L150
 1271              	.L182:
 1272 0104 0020     		movs	r0, #0
 1273 0106 0446     		mov	r4, r0
 1274 0108 F1E7     		b	.L157
 1275              	.L171:
 1276 010a 1920     		movs	r0, #25
 1277 010c FFF7FEFF 		bl	rcu_flag_get
 1278 0110 0134     		adds	r4, r4, #1
ARM GAS  /tmp/cco7EvgI.s 			page 22


 1279              	.L154:
 1280 0112 10B9     		cbnz	r0, .L170
 1281 0114 174B     		ldr	r3, .L196
 1282 0116 9C42     		cmp	r4, r3
 1283 0118 F7D1     		bne	.L171
 1284              	.L170:
 1285 011a 1920     		movs	r0, #25
 1286 011c FFF7FEFF 		bl	rcu_flag_get
 1287 0120 38B3     		cbz	r0, .L150
 1288 0122 0120     		movs	r0, #1
 1289 0124 25E0     		b	.L150
 1290              	.L179:
 1291 0126 0020     		movs	r0, #0
 1292 0128 0446     		mov	r4, r0
 1293 012a F2E7     		b	.L154
 1294              	.L173:
 1295 012c 1B20     		movs	r0, #27
 1296 012e FFF7FEFF 		bl	rcu_flag_get
 1297 0132 0134     		adds	r4, r4, #1
 1298              	.L153:
 1299 0134 10B9     		cbnz	r0, .L172
 1300 0136 0F4B     		ldr	r3, .L196
 1301 0138 9C42     		cmp	r4, r3
 1302 013a F7D1     		bne	.L173
 1303              	.L172:
 1304 013c 1B20     		movs	r0, #27
 1305 013e FFF7FEFF 		bl	rcu_flag_get
 1306 0142 B0B1     		cbz	r0, .L150
 1307 0144 0120     		movs	r0, #1
 1308 0146 14E0     		b	.L150
 1309              	.L180:
 1310 0148 0020     		movs	r0, #0
 1311 014a 0446     		mov	r4, r0
 1312 014c F2E7     		b	.L153
 1313              	.L175:
 1314 014e 1D20     		movs	r0, #29
 1315 0150 FFF7FEFF 		bl	rcu_flag_get
 1316 0154 0134     		adds	r4, r4, #1
 1317              	.L151:
 1318 0156 10B9     		cbnz	r0, .L174
 1319 0158 064B     		ldr	r3, .L196
 1320 015a 9C42     		cmp	r4, r3
 1321 015c F7D1     		bne	.L175
 1322              	.L174:
 1323 015e 1D20     		movs	r0, #29
 1324 0160 FFF7FEFF 		bl	rcu_flag_get
 1325 0164 28B1     		cbz	r0, .L150
 1326 0166 0120     		movs	r0, #1
 1327 0168 03E0     		b	.L150
 1328              	.L181:
 1329 016a 0020     		movs	r0, #0
 1330 016c 0446     		mov	r4, r0
 1331 016e F2E7     		b	.L151
 1332              	.L176:
 1333 0170 0020     		movs	r0, #0
 1334              	.L150:
 1335 0172 10BD     		pop	{r4, pc}
ARM GAS  /tmp/cco7EvgI.s 			page 23


 1336              	.L197:
 1337              		.align	2
 1338              	.L196:
 1339 0174 FFFF0F00 		.word	1048575
 1341              		.section	.text.rcu_deinit,"ax",%progbits
 1342              		.align	1
 1343              		.global	rcu_deinit
 1344              		.syntax unified
 1345              		.thumb
 1346              		.thumb_func
 1348              	rcu_deinit:
 1349              		@ args = 0, pretend = 0, frame = 0
 1350              		@ frame_needed = 0, uses_anonymous_args = 0
 1351 0000 10B5     		push	{r4, lr}
 1352 0002 1C4C     		ldr	r4, .L200
 1353 0004 D4F80038 		ldr	r3, [r4, #2048]
 1354 0008 43F00103 		orr	r3, r3, #1
 1355 000c C4F80038 		str	r3, [r4, #2048]
 1356 0010 0020     		movs	r0, #0
 1357 0012 FFF7FEFF 		bl	rcu_osci_stab_wait
 1358 0016 D4F80838 		ldr	r3, [r4, #2056]
 1359 001a 23F00303 		bic	r3, r3, #3
 1360 001e C4F80838 		str	r3, [r4, #2056]
 1361 0022 D4F80038 		ldr	r3, [r4, #2048]
 1362 0026 23F0A853 		bic	r3, r3, #352321536
 1363 002a 23F41023 		bic	r3, r3, #589824
 1364 002e C4F80038 		str	r3, [r4, #2048]
 1365 0032 D4F80038 		ldr	r3, [r4, #2048]
 1366 0036 23F48023 		bic	r3, r3, #262144
 1367 003a C4F80038 		str	r3, [r4, #2048]
 1368 003e D4F80838 		ldr	r3, [r4, #2056]
 1369 0042 03F44373 		and	r3, r3, #780
 1370 0046 C4F80838 		str	r3, [r4, #2056]
 1371 004a 0B4B     		ldr	r3, .L200+4
 1372 004c C4F80438 		str	r3, [r4, #2052]
 1373 0050 0A4A     		ldr	r2, .L200+8
 1374 0052 C4F88428 		str	r2, [r4, #2180]
 1375 0056 C4F88838 		str	r3, [r4, #2184]
 1376 005a 0023     		movs	r3, #0
 1377 005c C4F80C38 		str	r3, [r4, #2060]
 1378 0060 D4F88C38 		ldr	r3, [r4, #2188]
 1379 0064 23F08173 		bic	r3, r3, #16908288
 1380 0068 23F48033 		bic	r3, r3, #65536
 1381 006c C4F88C38 		str	r3, [r4, #2188]
 1382 0070 10BD     		pop	{r4, pc}
 1383              	.L201:
 1384 0072 00BF     		.align	2
 1385              	.L200:
 1386 0074 00300240 		.word	1073885184
 1387 0078 10300024 		.word	603992080
 1388 007c 00300024 		.word	603992064
 1390              		.section	.text.rcu_all_reset_flag_clear,"ax",%progbits
 1391              		.align	1
 1392              		.global	rcu_all_reset_flag_clear
 1393              		.syntax unified
 1394              		.thumb
 1395              		.thumb_func
ARM GAS  /tmp/cco7EvgI.s 			page 24


 1397              	rcu_all_reset_flag_clear:
 1398              		@ args = 0, pretend = 0, frame = 0
 1399              		@ frame_needed = 0, uses_anonymous_args = 0
 1400              		@ link register save eliminated.
 1401 0000 034A     		ldr	r2, .L203
 1402 0002 D2F87438 		ldr	r3, [r2, #2164]
 1403 0006 43F08073 		orr	r3, r3, #16777216
 1404 000a C2F87438 		str	r3, [r2, #2164]
 1405 000e 7047     		bx	lr
 1406              	.L204:
 1407              		.align	2
 1408              	.L203:
 1409 0010 00300240 		.word	1073885184
 1411              		.section	.text.rcu_interrupt_flag_get,"ax",%progbits
 1412              		.align	1
 1413              		.global	rcu_interrupt_flag_get
 1414              		.syntax unified
 1415              		.thumb
 1416              		.thumb_func
 1418              	rcu_interrupt_flag_get:
 1419              		@ args = 0, pretend = 0, frame = 0
 1420              		@ frame_needed = 0, uses_anonymous_args = 0
 1421              		@ link register save eliminated.
 1422 0000 8309     		lsrs	r3, r0, #6
 1423 0002 03F18043 		add	r3, r3, #1073741824
 1424 0006 03F50E33 		add	r3, r3, #145408
 1425 000a 1B68     		ldr	r3, [r3]
 1426 000c 00F01F00 		and	r0, r0, #31
 1427 0010 C340     		lsrs	r3, r3, r0
 1428 0012 13F0010F 		tst	r3, #1
 1429 0016 01D0     		beq	.L207
 1430 0018 0120     		movs	r0, #1
 1431 001a 7047     		bx	lr
 1432              	.L207:
 1433 001c 0020     		movs	r0, #0
 1434 001e 7047     		bx	lr
 1436              		.section	.text.rcu_interrupt_flag_clear,"ax",%progbits
 1437              		.align	1
 1438              		.global	rcu_interrupt_flag_clear
 1439              		.syntax unified
 1440              		.thumb
 1441              		.thumb_func
 1443              	rcu_interrupt_flag_clear:
 1444              		@ args = 0, pretend = 0, frame = 0
 1445              		@ frame_needed = 0, uses_anonymous_args = 0
 1446              		@ link register save eliminated.
 1447 0000 8309     		lsrs	r3, r0, #6
 1448 0002 03F18043 		add	r3, r3, #1073741824
 1449 0006 03F50E33 		add	r3, r3, #145408
 1450 000a 1A68     		ldr	r2, [r3]
 1451 000c 00F01F00 		and	r0, r0, #31
 1452 0010 0121     		movs	r1, #1
 1453 0012 8140     		lsls	r1, r1, r0
 1454 0014 0A43     		orrs	r2, r2, r1
 1455 0016 1A60     		str	r2, [r3]
 1456 0018 7047     		bx	lr
 1458              		.section	.text.rcu_interrupt_enable,"ax",%progbits
ARM GAS  /tmp/cco7EvgI.s 			page 25


 1459              		.align	1
 1460              		.global	rcu_interrupt_enable
 1461              		.syntax unified
 1462              		.thumb
 1463              		.thumb_func
 1465              	rcu_interrupt_enable:
 1466              		@ args = 0, pretend = 0, frame = 0
 1467              		@ frame_needed = 0, uses_anonymous_args = 0
 1468              		@ link register save eliminated.
 1469 0000 8309     		lsrs	r3, r0, #6
 1470 0002 03F18043 		add	r3, r3, #1073741824
 1471 0006 03F50E33 		add	r3, r3, #145408
 1472 000a 1A68     		ldr	r2, [r3]
 1473 000c 00F01F00 		and	r0, r0, #31
 1474 0010 0121     		movs	r1, #1
 1475 0012 8140     		lsls	r1, r1, r0
 1476 0014 0A43     		orrs	r2, r2, r1
 1477 0016 1A60     		str	r2, [r3]
 1478 0018 7047     		bx	lr
 1480              		.section	.text.rcu_interrupt_disable,"ax",%progbits
 1481              		.align	1
 1482              		.global	rcu_interrupt_disable
 1483              		.syntax unified
 1484              		.thumb
 1485              		.thumb_func
 1487              	rcu_interrupt_disable:
 1488              		@ args = 0, pretend = 0, frame = 0
 1489              		@ frame_needed = 0, uses_anonymous_args = 0
 1490              		@ link register save eliminated.
 1491 0000 8309     		lsrs	r3, r0, #6
 1492 0002 03F18043 		add	r3, r3, #1073741824
 1493 0006 03F50E33 		add	r3, r3, #145408
 1494 000a 1A68     		ldr	r2, [r3]
 1495 000c 00F01F00 		and	r0, r0, #31
 1496 0010 0121     		movs	r1, #1
 1497 0012 8140     		lsls	r1, r1, r0
 1498 0014 22EA0102 		bic	r2, r2, r1
 1499 0018 1A60     		str	r2, [r3]
 1500 001a 7047     		bx	lr
 1502              		.section	.rodata
 1503              		.align	2
 1504              		.set	.LANCHOR0,. + 0
 1505              	.LC0:
 1506 0000 00000000 		.ascii	"\000\000\000\000\000\000\000\000\001\002\003\004\006"
 1506      00000000 
 1506      01020304 
 1506      06
 1507 000d 070809   		.ascii	"\007\010\011"
 1508              	.LC1:
 1509 0010 00000000 		.ascii	"\000\000\000\000\001\002\003\004"
 1509      01020304 
 1510              		.ident	"GCC: (xPack GNU Arm Embedded GCC x86_64) 12.2.1 20221205"
ARM GAS  /tmp/cco7EvgI.s 			page 26

