Archive member included to satisfy reference by file (symbol)

/opt/arm-none-eabi/bin/../lib/gcc/arm-none-eabi/12.2.1/../../../../arm-none-eabi/lib/thumb/v7e-m/nofp/libc_nano.a(libc_a-atexit.o)
                              /opt/arm-none-eabi/bin/../lib/gcc/arm-none-eabi/12.2.1/../../../../arm-none-eabi/lib/thumb/v7e-m/nofp/crt0.o (atexit)
/opt/arm-none-eabi/bin/../lib/gcc/arm-none-eabi/12.2.1/../../../../arm-none-eabi/lib/thumb/v7e-m/nofp/libc_nano.a(libc_a-exit.o)
                              /opt/arm-none-eabi/bin/../lib/gcc/arm-none-eabi/12.2.1/../../../../arm-none-eabi/lib/thumb/v7e-m/nofp/crt0.o (exit)
/opt/arm-none-eabi/bin/../lib/gcc/arm-none-eabi/12.2.1/../../../../arm-none-eabi/lib/thumb/v7e-m/nofp/libc_nano.a(libc_a-nano-vfprintf_float.o)
                              (_printf_float)
/opt/arm-none-eabi/bin/../lib/gcc/arm-none-eabi/12.2.1/../../../../arm-none-eabi/lib/thumb/v7e-m/nofp/libc_nano.a(libc_a-nano-vfprintf_i.o)
                              /opt/arm-none-eabi/bin/../lib/gcc/arm-none-eabi/12.2.1/../../../../arm-none-eabi/lib/thumb/v7e-m/nofp/libc_nano.a(libc_a-nano-vfprintf_float.o) (_printf_common)
/opt/arm-none-eabi/bin/../lib/gcc/arm-none-eabi/12.2.1/../../../../arm-none-eabi/lib/thumb/v7e-m/nofp/libc_nano.a(libc_a-findfp.o)
                              /opt/arm-none-eabi/bin/../lib/gcc/arm-none-eabi/12.2.1/../../../../arm-none-eabi/lib/thumb/v7e-m/nofp/libc_nano.a(libc_a-exit.o) (__stdio_exit_handler)
/opt/arm-none-eabi/bin/../lib/gcc/arm-none-eabi/12.2.1/../../../../arm-none-eabi/lib/thumb/v7e-m/nofp/libc_nano.a(libc_a-fwalk.o)
                              /opt/arm-none-eabi/bin/../lib/gcc/arm-none-eabi/12.2.1/../../../../arm-none-eabi/lib/thumb/v7e-m/nofp/libc_nano.a(libc_a-findfp.o) (_fwalk_sglue)
/opt/arm-none-eabi/bin/../lib/gcc/arm-none-eabi/12.2.1/../../../../arm-none-eabi/lib/thumb/v7e-m/nofp/libc_nano.a(libc_a-printf.o)
                              build/key.o (printf)
/opt/arm-none-eabi/bin/../lib/gcc/arm-none-eabi/12.2.1/../../../../arm-none-eabi/lib/thumb/v7e-m/nofp/libc_nano.a(libc_a-puts.o)
                              build/main.o (puts)
/opt/arm-none-eabi/bin/../lib/gcc/arm-none-eabi/12.2.1/../../../../arm-none-eabi/lib/thumb/v7e-m/nofp/libc_nano.a(libc_a-sprintf.o)
                              build/lcd.o (sprintf)
/opt/arm-none-eabi/bin/../lib/gcc/arm-none-eabi/12.2.1/../../../../arm-none-eabi/lib/thumb/v7e-m/nofp/libc_nano.a(libc_a-stdio.o)
                              /opt/arm-none-eabi/bin/../lib/gcc/arm-none-eabi/12.2.1/../../../../arm-none-eabi/lib/thumb/v7e-m/nofp/libc_nano.a(libc_a-findfp.o) (__sread)
/opt/arm-none-eabi/bin/../lib/gcc/arm-none-eabi/12.2.1/../../../../arm-none-eabi/lib/thumb/v7e-m/nofp/libc_nano.a(libc_a-wbuf.o)
                              /opt/arm-none-eabi/bin/../lib/gcc/arm-none-eabi/12.2.1/../../../../arm-none-eabi/lib/thumb/v7e-m/nofp/libc_nano.a(libc_a-puts.o) (__swbuf_r)
/opt/arm-none-eabi/bin/../lib/gcc/arm-none-eabi/12.2.1/../../../../arm-none-eabi/lib/thumb/v7e-m/nofp/libc_nano.a(libc_a-wsetup.o)
                              /opt/arm-none-eabi/bin/../lib/gcc/arm-none-eabi/12.2.1/../../../../arm-none-eabi/lib/thumb/v7e-m/nofp/libc_nano.a(libc_a-puts.o) (__swsetup_r)
/opt/arm-none-eabi/bin/../lib/gcc/arm-none-eabi/12.2.1/../../../../arm-none-eabi/lib/thumb/v7e-m/nofp/libc_nano.a(libc_a-memset.o)
                              /opt/arm-none-eabi/bin/../lib/gcc/arm-none-eabi/12.2.1/../../../../arm-none-eabi/lib/thumb/v7e-m/nofp/crt0.o (memset)
/opt/arm-none-eabi/bin/../lib/gcc/arm-none-eabi/12.2.1/../../../../arm-none-eabi/lib/thumb/v7e-m/nofp/libc_nano.a(libc_a-localeconv.o)
                              /opt/arm-none-eabi/bin/../lib/gcc/arm-none-eabi/12.2.1/../../../../arm-none-eabi/lib/thumb/v7e-m/nofp/libc_nano.a(libc_a-nano-vfprintf_float.o) (_localeconv_r)
/opt/arm-none-eabi/bin/../lib/gcc/arm-none-eabi/12.2.1/../../../../arm-none-eabi/lib/thumb/v7e-m/nofp/libc_nano.a(libc_a-closer.o)
                              /opt/arm-none-eabi/bin/../lib/gcc/arm-none-eabi/12.2.1/../../../../arm-none-eabi/lib/thumb/v7e-m/nofp/libc_nano.a(libc_a-stdio.o) (_close_r)
/opt/arm-none-eabi/bin/../lib/gcc/arm-none-eabi/12.2.1/../../../../arm-none-eabi/lib/thumb/v7e-m/nofp/libc_nano.a(libc_a-reent.o)
                              /opt/arm-none-eabi/bin/../lib/gcc/arm-none-eabi/12.2.1/../../../../arm-none-eabi/lib/thumb/v7e-m/nofp/libc_nano.a(libc_a-closer.o) (errno)
/opt/arm-none-eabi/bin/../lib/gcc/arm-none-eabi/12.2.1/../../../../arm-none-eabi/lib/thumb/v7e-m/nofp/libc_nano.a(libc_a-impure.o)
                              /opt/arm-none-eabi/bin/../lib/gcc/arm-none-eabi/12.2.1/../../../../arm-none-eabi/lib/thumb/v7e-m/nofp/libc_nano.a(libc_a-printf.o) (_impure_ptr)
/opt/arm-none-eabi/bin/../lib/gcc/arm-none-eabi/12.2.1/../../../../arm-none-eabi/lib/thumb/v7e-m/nofp/libc_nano.a(libc_a-lseekr.o)
                              /opt/arm-none-eabi/bin/../lib/gcc/arm-none-eabi/12.2.1/../../../../arm-none-eabi/lib/thumb/v7e-m/nofp/libc_nano.a(libc_a-stdio.o) (_lseek_r)
/opt/arm-none-eabi/bin/../lib/gcc/arm-none-eabi/12.2.1/../../../../arm-none-eabi/lib/thumb/v7e-m/nofp/libc_nano.a(libc_a-readr.o)
                              /opt/arm-none-eabi/bin/../lib/gcc/arm-none-eabi/12.2.1/../../../../arm-none-eabi/lib/thumb/v7e-m/nofp/libc_nano.a(libc_a-stdio.o) (_read_r)
/opt/arm-none-eabi/bin/../lib/gcc/arm-none-eabi/12.2.1/../../../../arm-none-eabi/lib/thumb/v7e-m/nofp/libc_nano.a(libc_a-writer.o)
                              /opt/arm-none-eabi/bin/../lib/gcc/arm-none-eabi/12.2.1/../../../../arm-none-eabi/lib/thumb/v7e-m/nofp/libc_nano.a(libc_a-stdio.o) (_write_r)
/opt/arm-none-eabi/bin/../lib/gcc/arm-none-eabi/12.2.1/../../../../arm-none-eabi/lib/thumb/v7e-m/nofp/libc_nano.a(libc_a-init.o)
                              /opt/arm-none-eabi/bin/../lib/gcc/arm-none-eabi/12.2.1/../../../../arm-none-eabi/lib/thumb/v7e-m/nofp/crt0.o (__libc_init_array)
/opt/arm-none-eabi/bin/../lib/gcc/arm-none-eabi/12.2.1/../../../../arm-none-eabi/lib/thumb/v7e-m/nofp/libc_nano.a(libc_a-fini.o)
                              /opt/arm-none-eabi/bin/../lib/gcc/arm-none-eabi/12.2.1/../../../../arm-none-eabi/lib/thumb/v7e-m/nofp/crt0.o (__libc_fini_array)
/opt/arm-none-eabi/bin/../lib/gcc/arm-none-eabi/12.2.1/../../../../arm-none-eabi/lib/thumb/v7e-m/nofp/libc_nano.a(libc_a-lock.o)
                              /opt/arm-none-eabi/bin/../lib/gcc/arm-none-eabi/12.2.1/../../../../arm-none-eabi/lib/thumb/v7e-m/nofp/libc_nano.a(libc_a-findfp.o) (__retarget_lock_init_recursive)
/opt/arm-none-eabi/bin/../lib/gcc/arm-none-eabi/12.2.1/../../../../arm-none-eabi/lib/thumb/v7e-m/nofp/libc_nano.a(libc_a-memchr.o)
                              /opt/arm-none-eabi/bin/../lib/gcc/arm-none-eabi/12.2.1/../../../../arm-none-eabi/lib/thumb/v7e-m/nofp/libc_nano.a(libc_a-nano-vfprintf_i.o) (memchr)
/opt/arm-none-eabi/bin/../lib/gcc/arm-none-eabi/12.2.1/../../../../arm-none-eabi/lib/thumb/v7e-m/nofp/libc_nano.a(libc_a-strlen.o)
                              /opt/arm-none-eabi/bin/../lib/gcc/arm-none-eabi/12.2.1/../../../../arm-none-eabi/lib/thumb/v7e-m/nofp/libc_nano.a(libc_a-nano-vfprintf_float.o) (strlen)
/opt/arm-none-eabi/bin/../lib/gcc/arm-none-eabi/12.2.1/../../../../arm-none-eabi/lib/thumb/v7e-m/nofp/libc_nano.a(libc_a-__atexit.o)
                              /opt/arm-none-eabi/bin/../lib/gcc/arm-none-eabi/12.2.1/../../../../arm-none-eabi/lib/thumb/v7e-m/nofp/libc_nano.a(libc_a-atexit.o) (__register_exitproc)
/opt/arm-none-eabi/bin/../lib/gcc/arm-none-eabi/12.2.1/../../../../arm-none-eabi/lib/thumb/v7e-m/nofp/libc_nano.a(libc_a-__call_atexit.o)
                              /opt/arm-none-eabi/bin/../lib/gcc/arm-none-eabi/12.2.1/../../../../arm-none-eabi/lib/thumb/v7e-m/nofp/libc_nano.a(libc_a-__atexit.o) (__call_exitprocs)
/opt/arm-none-eabi/bin/../lib/gcc/arm-none-eabi/12.2.1/../../../../arm-none-eabi/lib/thumb/v7e-m/nofp/libc_nano.a(libc_a-dtoa.o)
                              /opt/arm-none-eabi/bin/../lib/gcc/arm-none-eabi/12.2.1/../../../../arm-none-eabi/lib/thumb/v7e-m/nofp/libc_nano.a(libc_a-nano-vfprintf_float.o) (_dtoa_r)
/opt/arm-none-eabi/bin/../lib/gcc/arm-none-eabi/12.2.1/../../../../arm-none-eabi/lib/thumb/v7e-m/nofp/libc_nano.a(libc_a-freer.o)
                              /opt/arm-none-eabi/bin/../lib/gcc/arm-none-eabi/12.2.1/../../../../arm-none-eabi/lib/thumb/v7e-m/nofp/libc_nano.a(libc_a-wsetup.o) (_free_r)
/opt/arm-none-eabi/bin/../lib/gcc/arm-none-eabi/12.2.1/../../../../arm-none-eabi/lib/thumb/v7e-m/nofp/libc_nano.a(libc_a-malloc.o)
                              /opt/arm-none-eabi/bin/../lib/gcc/arm-none-eabi/12.2.1/../../../../arm-none-eabi/lib/thumb/v7e-m/nofp/libc_nano.a(libc_a-dtoa.o) (malloc)
/opt/arm-none-eabi/bin/../lib/gcc/arm-none-eabi/12.2.1/../../../../arm-none-eabi/lib/thumb/v7e-m/nofp/libc_nano.a(libc_a-mallocr.o)
                              /opt/arm-none-eabi/bin/../lib/gcc/arm-none-eabi/12.2.1/../../../../arm-none-eabi/lib/thumb/v7e-m/nofp/libc_nano.a(libc_a-findfp.o) (_malloc_r)
/opt/arm-none-eabi/bin/../lib/gcc/arm-none-eabi/12.2.1/../../../../arm-none-eabi/lib/thumb/v7e-m/nofp/libc_nano.a(libc_a-mlock.o)
                              /opt/arm-none-eabi/bin/../lib/gcc/arm-none-eabi/12.2.1/../../../../arm-none-eabi/lib/thumb/v7e-m/nofp/libc_nano.a(libc_a-freer.o) (__malloc_lock)
/opt/arm-none-eabi/bin/../lib/gcc/arm-none-eabi/12.2.1/../../../../arm-none-eabi/lib/thumb/v7e-m/nofp/libc_nano.a(libc_a-mprec.o)
                              /opt/arm-none-eabi/bin/../lib/gcc/arm-none-eabi/12.2.1/../../../../arm-none-eabi/lib/thumb/v7e-m/nofp/libc_nano.a(libc_a-dtoa.o) (_Balloc)
/opt/arm-none-eabi/bin/../lib/gcc/arm-none-eabi/12.2.1/../../../../arm-none-eabi/lib/thumb/v7e-m/nofp/libc_nano.a(libc_a-nano-svfprintf.o)
                              /opt/arm-none-eabi/bin/../lib/gcc/arm-none-eabi/12.2.1/../../../../arm-none-eabi/lib/thumb/v7e-m/nofp/libc_nano.a(libc_a-sprintf.o) (_svfprintf_r)
/opt/arm-none-eabi/bin/../lib/gcc/arm-none-eabi/12.2.1/../../../../arm-none-eabi/lib/thumb/v7e-m/nofp/libc_nano.a(libc_a-nano-vfprintf.o)
                              /opt/arm-none-eabi/bin/../lib/gcc/arm-none-eabi/12.2.1/../../../../arm-none-eabi/lib/thumb/v7e-m/nofp/libc_nano.a(libc_a-printf.o) (_vfprintf_r)
/opt/arm-none-eabi/bin/../lib/gcc/arm-none-eabi/12.2.1/../../../../arm-none-eabi/lib/thumb/v7e-m/nofp/libc_nano.a(libc_a-fflush.o)
                              /opt/arm-none-eabi/bin/../lib/gcc/arm-none-eabi/12.2.1/../../../../arm-none-eabi/lib/thumb/v7e-m/nofp/libc_nano.a(libc_a-findfp.o) (_fflush_r)
/opt/arm-none-eabi/bin/../lib/gcc/arm-none-eabi/12.2.1/../../../../arm-none-eabi/lib/thumb/v7e-m/nofp/libc_nano.a(libc_a-fvwrite.o)
                              /opt/arm-none-eabi/bin/../lib/gcc/arm-none-eabi/12.2.1/../../../../arm-none-eabi/lib/thumb/v7e-m/nofp/libc_nano.a(libc_a-nano-vfprintf.o) (__sfvwrite_r)
/opt/arm-none-eabi/bin/../lib/gcc/arm-none-eabi/12.2.1/../../../../arm-none-eabi/lib/thumb/v7e-m/nofp/libc_nano.a(libc_a-makebuf.o)
                              /opt/arm-none-eabi/bin/../lib/gcc/arm-none-eabi/12.2.1/../../../../arm-none-eabi/lib/thumb/v7e-m/nofp/libc_nano.a(libc_a-wsetup.o) (__smakebuf_r)
/opt/arm-none-eabi/bin/../lib/gcc/arm-none-eabi/12.2.1/../../../../arm-none-eabi/lib/thumb/v7e-m/nofp/libc_nano.a(libc_a-memmove.o)
                              /opt/arm-none-eabi/bin/../lib/gcc/arm-none-eabi/12.2.1/../../../../arm-none-eabi/lib/thumb/v7e-m/nofp/libc_nano.a(libc_a-nano-svfprintf.o) (memmove)
/opt/arm-none-eabi/bin/../lib/gcc/arm-none-eabi/12.2.1/../../../../arm-none-eabi/lib/thumb/v7e-m/nofp/libc_nano.a(libc_a-locale.o)
                              /opt/arm-none-eabi/bin/../lib/gcc/arm-none-eabi/12.2.1/../../../../arm-none-eabi/lib/thumb/v7e-m/nofp/libc_nano.a(libc_a-localeconv.o) (__global_locale)
/opt/arm-none-eabi/bin/../lib/gcc/arm-none-eabi/12.2.1/../../../../arm-none-eabi/lib/thumb/v7e-m/nofp/libc_nano.a(libc_a-fstatr.o)
                              /opt/arm-none-eabi/bin/../lib/gcc/arm-none-eabi/12.2.1/../../../../arm-none-eabi/lib/thumb/v7e-m/nofp/libc_nano.a(libc_a-makebuf.o) (_fstat_r)
/opt/arm-none-eabi/bin/../lib/gcc/arm-none-eabi/12.2.1/../../../../arm-none-eabi/lib/thumb/v7e-m/nofp/libc_nano.a(libc_a-isattyr.o)
                              /opt/arm-none-eabi/bin/../lib/gcc/arm-none-eabi/12.2.1/../../../../arm-none-eabi/lib/thumb/v7e-m/nofp/libc_nano.a(libc_a-makebuf.o) (_isatty_r)
/opt/arm-none-eabi/bin/../lib/gcc/arm-none-eabi/12.2.1/../../../../arm-none-eabi/lib/thumb/v7e-m/nofp/libc_nano.a(libc_a-sbrkr.o)
                              /opt/arm-none-eabi/bin/../lib/gcc/arm-none-eabi/12.2.1/../../../../arm-none-eabi/lib/thumb/v7e-m/nofp/libc_nano.a(libc_a-mallocr.o) (_sbrk_r)
/opt/arm-none-eabi/bin/../lib/gcc/arm-none-eabi/12.2.1/../../../../arm-none-eabi/lib/thumb/v7e-m/nofp/libc_nano.a(libc_a-strcmp.o)
                              /opt/arm-none-eabi/bin/../lib/gcc/arm-none-eabi/12.2.1/../../../../arm-none-eabi/lib/thumb/v7e-m/nofp/libc_nano.a(libc_a-locale.o) (strcmp)
/opt/arm-none-eabi/bin/../lib/gcc/arm-none-eabi/12.2.1/../../../../arm-none-eabi/lib/thumb/v7e-m/nofp/libc_nano.a(libc_a-memcpy-stub.o)
                              /opt/arm-none-eabi/bin/../lib/gcc/arm-none-eabi/12.2.1/../../../../arm-none-eabi/lib/thumb/v7e-m/nofp/libc_nano.a(libc_a-dtoa.o) (memcpy)
/opt/arm-none-eabi/bin/../lib/gcc/arm-none-eabi/12.2.1/../../../../arm-none-eabi/lib/thumb/v7e-m/nofp/libc_nano.a(libc_a-assert.o)
                              /opt/arm-none-eabi/bin/../lib/gcc/arm-none-eabi/12.2.1/../../../../arm-none-eabi/lib/thumb/v7e-m/nofp/libc_nano.a(libc_a-dtoa.o) (__assert_func)
/opt/arm-none-eabi/bin/../lib/gcc/arm-none-eabi/12.2.1/../../../../arm-none-eabi/lib/thumb/v7e-m/nofp/libc_nano.a(libc_a-callocr.o)
                              /opt/arm-none-eabi/bin/../lib/gcc/arm-none-eabi/12.2.1/../../../../arm-none-eabi/lib/thumb/v7e-m/nofp/libc_nano.a(libc_a-mprec.o) (_calloc_r)
/opt/arm-none-eabi/bin/../lib/gcc/arm-none-eabi/12.2.1/../../../../arm-none-eabi/lib/thumb/v7e-m/nofp/libc_nano.a(libc_a-mbtowc_r.o)
                              /opt/arm-none-eabi/bin/../lib/gcc/arm-none-eabi/12.2.1/../../../../arm-none-eabi/lib/thumb/v7e-m/nofp/libc_nano.a(libc_a-locale.o) (__ascii_mbtowc)
/opt/arm-none-eabi/bin/../lib/gcc/arm-none-eabi/12.2.1/../../../../arm-none-eabi/lib/thumb/v7e-m/nofp/libc_nano.a(libc_a-reallocr.o)
                              /opt/arm-none-eabi/bin/../lib/gcc/arm-none-eabi/12.2.1/../../../../arm-none-eabi/lib/thumb/v7e-m/nofp/libc_nano.a(libc_a-nano-svfprintf.o) (_realloc_r)
/opt/arm-none-eabi/bin/../lib/gcc/arm-none-eabi/12.2.1/../../../../arm-none-eabi/lib/thumb/v7e-m/nofp/libc_nano.a(libc_a-wctomb_r.o)
                              /opt/arm-none-eabi/bin/../lib/gcc/arm-none-eabi/12.2.1/../../../../arm-none-eabi/lib/thumb/v7e-m/nofp/libc_nano.a(libc_a-locale.o) (__ascii_wctomb)
/opt/arm-none-eabi/bin/../lib/gcc/arm-none-eabi/12.2.1/../../../../arm-none-eabi/lib/thumb/v7e-m/nofp/libc_nano.a(libc_a-ctype_.o)
                              /opt/arm-none-eabi/bin/../lib/gcc/arm-none-eabi/12.2.1/../../../../arm-none-eabi/lib/thumb/v7e-m/nofp/libc_nano.a(libc_a-locale.o) (_ctype_)
/opt/arm-none-eabi/bin/../lib/gcc/arm-none-eabi/12.2.1/../../../../arm-none-eabi/lib/thumb/v7e-m/nofp/libc_nano.a(libc_a-fprintf.o)
                              /opt/arm-none-eabi/bin/../lib/gcc/arm-none-eabi/12.2.1/../../../../arm-none-eabi/lib/thumb/v7e-m/nofp/libc_nano.a(libc_a-assert.o) (fiprintf)
/opt/arm-none-eabi/bin/../lib/gcc/arm-none-eabi/12.2.1/../../../../arm-none-eabi/lib/thumb/v7e-m/nofp/libc_nano.a(libc_a-abort.o)
                              /opt/arm-none-eabi/bin/../lib/gcc/arm-none-eabi/12.2.1/../../../../arm-none-eabi/lib/thumb/v7e-m/nofp/libc_nano.a(libc_a-assert.o) (abort)
/opt/arm-none-eabi/bin/../lib/gcc/arm-none-eabi/12.2.1/../../../../arm-none-eabi/lib/thumb/v7e-m/nofp/libc_nano.a(libc_a-msizer.o)
                              /opt/arm-none-eabi/bin/../lib/gcc/arm-none-eabi/12.2.1/../../../../arm-none-eabi/lib/thumb/v7e-m/nofp/libc_nano.a(libc_a-reallocr.o) (_malloc_usable_size_r)
/opt/arm-none-eabi/bin/../lib/gcc/arm-none-eabi/12.2.1/../../../../arm-none-eabi/lib/thumb/v7e-m/nofp/libc_nano.a(libc_a-signal.o)
                              /opt/arm-none-eabi/bin/../lib/gcc/arm-none-eabi/12.2.1/../../../../arm-none-eabi/lib/thumb/v7e-m/nofp/libc_nano.a(libc_a-abort.o) (raise)
/opt/arm-none-eabi/bin/../lib/gcc/arm-none-eabi/12.2.1/../../../../arm-none-eabi/lib/thumb/v7e-m/nofp/libc_nano.a(libc_a-signalr.o)
                              /opt/arm-none-eabi/bin/../lib/gcc/arm-none-eabi/12.2.1/../../../../arm-none-eabi/lib/thumb/v7e-m/nofp/libc_nano.a(libc_a-signal.o) (_kill_r)
/opt/arm-none-eabi/bin/../lib/gcc/arm-none-eabi/12.2.1/../../../../arm-none-eabi/lib/thumb/v7e-m/nofp/libnosys.a(close.o)
                              /opt/arm-none-eabi/bin/../lib/gcc/arm-none-eabi/12.2.1/../../../../arm-none-eabi/lib/thumb/v7e-m/nofp/libc_nano.a(libc_a-closer.o) (_close)
/opt/arm-none-eabi/bin/../lib/gcc/arm-none-eabi/12.2.1/../../../../arm-none-eabi/lib/thumb/v7e-m/nofp/libnosys.a(fstat.o)
                              /opt/arm-none-eabi/bin/../lib/gcc/arm-none-eabi/12.2.1/../../../../arm-none-eabi/lib/thumb/v7e-m/nofp/libc_nano.a(libc_a-fstatr.o) (_fstat)
/opt/arm-none-eabi/bin/../lib/gcc/arm-none-eabi/12.2.1/../../../../arm-none-eabi/lib/thumb/v7e-m/nofp/libnosys.a(getpid.o)
                              /opt/arm-none-eabi/bin/../lib/gcc/arm-none-eabi/12.2.1/../../../../arm-none-eabi/lib/thumb/v7e-m/nofp/libc_nano.a(libc_a-signalr.o) (_getpid)
/opt/arm-none-eabi/bin/../lib/gcc/arm-none-eabi/12.2.1/../../../../arm-none-eabi/lib/thumb/v7e-m/nofp/libnosys.a(isatty.o)
                              /opt/arm-none-eabi/bin/../lib/gcc/arm-none-eabi/12.2.1/../../../../arm-none-eabi/lib/thumb/v7e-m/nofp/libc_nano.a(libc_a-isattyr.o) (_isatty)
/opt/arm-none-eabi/bin/../lib/gcc/arm-none-eabi/12.2.1/../../../../arm-none-eabi/lib/thumb/v7e-m/nofp/libnosys.a(kill.o)
                              /opt/arm-none-eabi/bin/../lib/gcc/arm-none-eabi/12.2.1/../../../../arm-none-eabi/lib/thumb/v7e-m/nofp/libc_nano.a(libc_a-signalr.o) (_kill)
/opt/arm-none-eabi/bin/../lib/gcc/arm-none-eabi/12.2.1/../../../../arm-none-eabi/lib/thumb/v7e-m/nofp/libnosys.a(lseek.o)
                              /opt/arm-none-eabi/bin/../lib/gcc/arm-none-eabi/12.2.1/../../../../arm-none-eabi/lib/thumb/v7e-m/nofp/libc_nano.a(libc_a-lseekr.o) (_lseek)
/opt/arm-none-eabi/bin/../lib/gcc/arm-none-eabi/12.2.1/../../../../arm-none-eabi/lib/thumb/v7e-m/nofp/libnosys.a(read.o)
                              /opt/arm-none-eabi/bin/../lib/gcc/arm-none-eabi/12.2.1/../../../../arm-none-eabi/lib/thumb/v7e-m/nofp/libc_nano.a(libc_a-readr.o) (_read)
/opt/arm-none-eabi/bin/../lib/gcc/arm-none-eabi/12.2.1/../../../../arm-none-eabi/lib/thumb/v7e-m/nofp/libnosys.a(sbrk.o)
                              /opt/arm-none-eabi/bin/../lib/gcc/arm-none-eabi/12.2.1/../../../../arm-none-eabi/lib/thumb/v7e-m/nofp/libc_nano.a(libc_a-sbrkr.o) (_sbrk)
/opt/arm-none-eabi/bin/../lib/gcc/arm-none-eabi/12.2.1/../../../../arm-none-eabi/lib/thumb/v7e-m/nofp/libnosys.a(write.o)
                              /opt/arm-none-eabi/bin/../lib/gcc/arm-none-eabi/12.2.1/../../../../arm-none-eabi/lib/thumb/v7e-m/nofp/libc_nano.a(libc_a-writer.o) (_write)
/opt/arm-none-eabi/bin/../lib/gcc/arm-none-eabi/12.2.1/../../../../arm-none-eabi/lib/thumb/v7e-m/nofp/libnosys.a(_exit.o)
                              /opt/arm-none-eabi/bin/../lib/gcc/arm-none-eabi/12.2.1/../../../../arm-none-eabi/lib/thumb/v7e-m/nofp/libc_nano.a(libc_a-exit.o) (_exit)
/opt/arm-none-eabi/bin/../lib/gcc/arm-none-eabi/12.2.1/thumb/v7e-m/nofp/libgcc.a(_arm_muldf3.o)
                              /opt/arm-none-eabi/bin/../lib/gcc/arm-none-eabi/12.2.1/../../../../arm-none-eabi/lib/thumb/v7e-m/nofp/libc_nano.a(libc_a-dtoa.o) (__aeabi_dmul)
/opt/arm-none-eabi/bin/../lib/gcc/arm-none-eabi/12.2.1/thumb/v7e-m/nofp/libgcc.a(_arm_addsubdf3.o)
                              /opt/arm-none-eabi/bin/../lib/gcc/arm-none-eabi/12.2.1/../../../../arm-none-eabi/lib/thumb/v7e-m/nofp/libc_nano.a(libc_a-dtoa.o) (__aeabi_dsub)
/opt/arm-none-eabi/bin/../lib/gcc/arm-none-eabi/12.2.1/thumb/v7e-m/nofp/libgcc.a(_arm_muldivdf3.o)
                              /opt/arm-none-eabi/bin/../lib/gcc/arm-none-eabi/12.2.1/../../../../arm-none-eabi/lib/thumb/v7e-m/nofp/libc_nano.a(libc_a-dtoa.o) (__aeabi_ddiv)
/opt/arm-none-eabi/bin/../lib/gcc/arm-none-eabi/12.2.1/thumb/v7e-m/nofp/libgcc.a(_arm_cmpdf2.o)
                              /opt/arm-none-eabi/bin/../lib/gcc/arm-none-eabi/12.2.1/../../../../arm-none-eabi/lib/thumb/v7e-m/nofp/libc_nano.a(libc_a-nano-vfprintf_float.o) (__aeabi_dcmpeq)
/opt/arm-none-eabi/bin/../lib/gcc/arm-none-eabi/12.2.1/thumb/v7e-m/nofp/libgcc.a(_arm_unorddf2.o)
                              /opt/arm-none-eabi/bin/../lib/gcc/arm-none-eabi/12.2.1/../../../../arm-none-eabi/lib/thumb/v7e-m/nofp/libc_nano.a(libc_a-nano-vfprintf_float.o) (__aeabi_dcmpun)
/opt/arm-none-eabi/bin/../lib/gcc/arm-none-eabi/12.2.1/thumb/v7e-m/nofp/libgcc.a(_arm_fixdfsi.o)
                              /opt/arm-none-eabi/bin/../lib/gcc/arm-none-eabi/12.2.1/../../../../arm-none-eabi/lib/thumb/v7e-m/nofp/libc_nano.a(libc_a-dtoa.o) (__aeabi_d2iz)

Discarded input sections

 .text          0x0000000000000000        0x0 /opt/arm-none-eabi/bin/../lib/gcc/arm-none-eabi/12.2.1/thumb/v7e-m/nofp/crti.o
 .data          0x0000000000000000        0x0 /opt/arm-none-eabi/bin/../lib/gcc/arm-none-eabi/12.2.1/thumb/v7e-m/nofp/crti.o
 .bss           0x0000000000000000        0x0 /opt/arm-none-eabi/bin/../lib/gcc/arm-none-eabi/12.2.1/thumb/v7e-m/nofp/crti.o
 .text          0x0000000000000000        0x0 /opt/arm-none-eabi/bin/../lib/gcc/arm-none-eabi/12.2.1/thumb/v7e-m/nofp/crtbegin.o
 .data          0x0000000000000000        0x0 /opt/arm-none-eabi/bin/../lib/gcc/arm-none-eabi/12.2.1/thumb/v7e-m/nofp/crtbegin.o
 .bss           0x0000000000000000        0x0 /opt/arm-none-eabi/bin/../lib/gcc/arm-none-eabi/12.2.1/thumb/v7e-m/nofp/crtbegin.o
 .rodata.all_implied_fbits
                0x0000000000000000       0x24 /opt/arm-none-eabi/bin/../lib/gcc/arm-none-eabi/12.2.1/thumb/v7e-m/nofp/crtbegin.o
 .data.__dso_handle
                0x0000000000000000        0x4 /opt/arm-none-eabi/bin/../lib/gcc/arm-none-eabi/12.2.1/thumb/v7e-m/nofp/crtbegin.o
 .text          0x0000000000000000       0x70 /opt/arm-none-eabi/bin/../lib/gcc/arm-none-eabi/12.2.1/../../../../arm-none-eabi/lib/thumb/v7e-m/nofp/crt0.o
 .data          0x0000000000000000        0x0 /opt/arm-none-eabi/bin/../lib/gcc/arm-none-eabi/12.2.1/../../../../arm-none-eabi/lib/thumb/v7e-m/nofp/crt0.o
 .bss           0x0000000000000000        0x0 /opt/arm-none-eabi/bin/../lib/gcc/arm-none-eabi/12.2.1/../../../../arm-none-eabi/lib/thumb/v7e-m/nofp/crt0.o
 .ARM.extab     0x0000000000000000        0x0 /opt/arm-none-eabi/bin/../lib/gcc/arm-none-eabi/12.2.1/../../../../arm-none-eabi/lib/thumb/v7e-m/nofp/crt0.o
 .ARM.exidx     0x0000000000000000       0x10 /opt/arm-none-eabi/bin/../lib/gcc/arm-none-eabi/12.2.1/../../../../arm-none-eabi/lib/thumb/v7e-m/nofp/crt0.o
 .ARM.attributes
                0x0000000000000000       0x1c /opt/arm-none-eabi/bin/../lib/gcc/arm-none-eabi/12.2.1/../../../../arm-none-eabi/lib/thumb/v7e-m/nofp/crt0.o
 .text          0x0000000000000000        0x0 build/system_gd32f4xx.o
 .data          0x0000000000000000        0x0 build/system_gd32f4xx.o
 .bss           0x0000000000000000        0x0 build/system_gd32f4xx.o
 .text.SystemCoreClockUpdate
                0x0000000000000000       0xac build/system_gd32f4xx.o
 .rodata        0x0000000000000000       0x10 build/system_gd32f4xx.o
 .text          0x0000000000000000        0x0 build/gd32f4xx_gpio.o
 .data          0x0000000000000000        0x0 build/gd32f4xx_gpio.o
 .bss           0x0000000000000000        0x0 build/gd32f4xx_gpio.o
 .text.gpio_deinit
                0x0000000000000000       0xfc build/gd32f4xx_gpio.o
 .text.gpio_bit_write
                0x0000000000000000        0xa build/gd32f4xx_gpio.o
 .text.gpio_port_write
                0x0000000000000000        0x4 build/gd32f4xx_gpio.o
 .text.gpio_input_bit_get
                0x0000000000000000        0xe build/gd32f4xx_gpio.o
 .text.gpio_input_port_get
                0x0000000000000000        0x6 build/gd32f4xx_gpio.o
 .text.gpio_output_bit_get
                0x0000000000000000        0xe build/gd32f4xx_gpio.o
 .text.gpio_output_port_get
                0x0000000000000000        0x6 build/gd32f4xx_gpio.o
 .text.gpio_pin_lock
                0x0000000000000000       0x10 build/gd32f4xx_gpio.o
 .text.gpio_bit_toggle
                0x0000000000000000        0x4 build/gd32f4xx_gpio.o
 .text.gpio_port_toggle
                0x0000000000000000        0x8 build/gd32f4xx_gpio.o
 .text          0x0000000000000000        0x0 build/gd32f4xx_timer.o
 .data          0x0000000000000000        0x0 build/gd32f4xx_timer.o
 .bss           0x0000000000000000        0x0 build/gd32f4xx_timer.o
 .text.timer_deinit
                0x0000000000000000      0x180 build/gd32f4xx_timer.o
 .text.timer_struct_para_init
                0x0000000000000000       0x14 build/gd32f4xx_timer.o
 .text.timer_init
                0x0000000000000000       0x94 build/gd32f4xx_timer.o
 .text.timer_enable
                0x0000000000000000        0xa build/gd32f4xx_timer.o
 .text.timer_disable
                0x0000000000000000        0xa build/gd32f4xx_timer.o
 .text.timer_auto_reload_shadow_enable
                0x0000000000000000        0xa build/gd32f4xx_timer.o
 .text.timer_auto_reload_shadow_disable
                0x0000000000000000        0xa build/gd32f4xx_timer.o
 .text.timer_update_event_enable
                0x0000000000000000        0xa build/gd32f4xx_timer.o
 .text.timer_update_event_disable
                0x0000000000000000        0xa build/gd32f4xx_timer.o
 .text.timer_counter_alignment
                0x0000000000000000       0x10 build/gd32f4xx_timer.o
 .text.timer_counter_up_direction
                0x0000000000000000        0xa build/gd32f4xx_timer.o
 .text.timer_counter_down_direction
                0x0000000000000000        0xa build/gd32f4xx_timer.o
 .text.timer_prescaler_config
                0x0000000000000000        0xe build/gd32f4xx_timer.o
 .text.timer_repetition_value_config
                0x0000000000000000        0x4 build/gd32f4xx_timer.o
 .text.timer_autoreload_value_config
                0x0000000000000000        0x4 build/gd32f4xx_timer.o
 .text.timer_counter_value_config
                0x0000000000000000        0x4 build/gd32f4xx_timer.o
 .text.timer_counter_read
                0x0000000000000000        0x4 build/gd32f4xx_timer.o
 .text.timer_prescaler_read
                0x0000000000000000        0x6 build/gd32f4xx_timer.o
 .text.timer_single_pulse_mode_config
                0x0000000000000000       0x1c build/gd32f4xx_timer.o
 .text.timer_update_source_config
                0x0000000000000000       0x1c build/gd32f4xx_timer.o
 .text.timer_dma_enable
                0x0000000000000000        0x8 build/gd32f4xx_timer.o
 .text.timer_dma_disable
                0x0000000000000000        0xa build/gd32f4xx_timer.o
 .text.timer_channel_dma_request_source_select
                0x0000000000000000       0x1c build/gd32f4xx_timer.o
 .text.timer_dma_transfer_config
                0x0000000000000000       0x16 build/gd32f4xx_timer.o
 .text.timer_event_software_generate
                0x0000000000000000        0x8 build/gd32f4xx_timer.o
 .text.timer_break_struct_para_init
                0x0000000000000000       0x12 build/gd32f4xx_timer.o
 .text.timer_break_config
                0x0000000000000000       0x2a build/gd32f4xx_timer.o
 .text.timer_break_enable
                0x0000000000000000        0xa build/gd32f4xx_timer.o
 .text.timer_break_disable
                0x0000000000000000        0xa build/gd32f4xx_timer.o
 .text.timer_automatic_output_enable
                0x0000000000000000        0xa build/gd32f4xx_timer.o
 .text.timer_automatic_output_disable
                0x0000000000000000        0xa build/gd32f4xx_timer.o
 .text.timer_primary_output_config
                0x0000000000000000       0x18 build/gd32f4xx_timer.o
 .text.timer_channel_control_shadow_config
                0x0000000000000000       0x18 build/gd32f4xx_timer.o
 .text.timer_channel_control_shadow_update_config
                0x0000000000000000       0x1c build/gd32f4xx_timer.o
 .text.timer_channel_output_struct_para_init
                0x0000000000000000       0x10 build/gd32f4xx_timer.o
 .text.timer_channel_output_config
                0x0000000000000000      0x1e8 build/gd32f4xx_timer.o
 .text.timer_channel_output_mode_config
                0x0000000000000000       0x50 build/gd32f4xx_timer.o
 .text.timer_channel_output_pulse_value_config
                0x0000000000000000       0x1c build/gd32f4xx_timer.o
 .text.timer_channel_output_shadow_config
                0x0000000000000000       0x50 build/gd32f4xx_timer.o
 .text.timer_channel_output_fast_config
                0x0000000000000000       0x50 build/gd32f4xx_timer.o
 .text.timer_channel_output_clear_config
                0x0000000000000000       0x50 build/gd32f4xx_timer.o
 .text.timer_channel_output_polarity_config
                0x0000000000000000       0x52 build/gd32f4xx_timer.o
 .text.timer_channel_complementary_output_polarity_config
                0x0000000000000000       0x40 build/gd32f4xx_timer.o
 .text.timer_channel_output_state_config
                0x0000000000000000       0x52 build/gd32f4xx_timer.o
 .text.timer_channel_complementary_output_state_config
                0x0000000000000000       0x40 build/gd32f4xx_timer.o
 .text.timer_channel_input_struct_para_init
                0x0000000000000000        0xe build/gd32f4xx_timer.o
 .text.timer_channel_input_capture_prescaler_config
                0x0000000000000000       0x50 build/gd32f4xx_timer.o
 .text.timer_input_capture_config
                0x0000000000000000      0x14c build/gd32f4xx_timer.o
 .text.timer_channel_capture_value_register_read
                0x0000000000000000       0x20 build/gd32f4xx_timer.o
 .text.timer_input_pwm_capture_config
                0x0000000000000000      0x154 build/gd32f4xx_timer.o
 .text.timer_hall_mode_config
                0x0000000000000000       0x1c build/gd32f4xx_timer.o
 .text.timer_input_trigger_source_select
                0x0000000000000000       0x10 build/gd32f4xx_timer.o
 .text.timer_master_output_trigger_source_select
                0x0000000000000000       0x10 build/gd32f4xx_timer.o
 .text.timer_slave_mode_select
                0x0000000000000000       0x10 build/gd32f4xx_timer.o
 .text.timer_master_slave_mode_config
                0x0000000000000000       0x1c build/gd32f4xx_timer.o
 .text.timer_external_trigger_config
                0x0000000000000000       0x1e build/gd32f4xx_timer.o
 .text.timer_quadrature_decoder_mode_config
                0x0000000000000000       0x46 build/gd32f4xx_timer.o
 .text.timer_internal_clock_config
                0x0000000000000000        0xa build/gd32f4xx_timer.o
 .text.timer_internal_trigger_as_external_clock_config
                0x0000000000000000       0x1a build/gd32f4xx_timer.o
 .text.timer_external_trigger_as_external_clock_config
                0x0000000000000000       0xa0 build/gd32f4xx_timer.o
 .text.timer_external_clock_mode0_config
                0x0000000000000000       0x1a build/gd32f4xx_timer.o
 .text.timer_external_clock_mode1_config
                0x0000000000000000       0x12 build/gd32f4xx_timer.o
 .text.timer_external_clock_mode1_disable
                0x0000000000000000        0xa build/gd32f4xx_timer.o
 .text.timer_channel_remap_config
                0x0000000000000000        0x4 build/gd32f4xx_timer.o
 .text.timer_write_chxval_register_config
                0x0000000000000000       0x22 build/gd32f4xx_timer.o
 .text.timer_output_value_selection_config
                0x0000000000000000       0x22 build/gd32f4xx_timer.o
 .text.timer_flag_get
                0x0000000000000000        0xe build/gd32f4xx_timer.o
 .text.timer_flag_clear
                0x0000000000000000        0x6 build/gd32f4xx_timer.o
 .text.timer_interrupt_enable
                0x0000000000000000        0x8 build/gd32f4xx_timer.o
 .text.timer_interrupt_disable
                0x0000000000000000        0xa build/gd32f4xx_timer.o
 .text.timer_interrupt_flag_get
                0x0000000000000000       0x18 build/gd32f4xx_timer.o
 .text.timer_interrupt_flag_clear
                0x0000000000000000        0x6 build/gd32f4xx_timer.o
 .comment       0x0000000000000000       0x3a build/gd32f4xx_timer.o
 .ARM.attributes
                0x0000000000000000       0x2e build/gd32f4xx_timer.o
 .text          0x0000000000000000        0x0 build/gd32f4xx_rcu.o
 .data          0x0000000000000000        0x0 build/gd32f4xx_rcu.o
 .bss           0x0000000000000000        0x0 build/gd32f4xx_rcu.o
 .text.rcu_periph_clock_disable
                0x0000000000000000       0x1c build/gd32f4xx_rcu.o
 .text.rcu_periph_clock_sleep_enable
                0x0000000000000000       0x1a build/gd32f4xx_rcu.o
 .text.rcu_periph_clock_sleep_disable
                0x0000000000000000       0x1c build/gd32f4xx_rcu.o
 .text.rcu_bkp_reset_enable
                0x0000000000000000       0x14 build/gd32f4xx_rcu.o
 .text.rcu_bkp_reset_disable
                0x0000000000000000       0x14 build/gd32f4xx_rcu.o
 .text.rcu_system_clock_source_config
                0x0000000000000000       0x18 build/gd32f4xx_rcu.o
 .text.rcu_system_clock_source_get
                0x0000000000000000       0x10 build/gd32f4xx_rcu.o
 .text.rcu_ahb_clock_config
                0x0000000000000000       0x18 build/gd32f4xx_rcu.o
 .text.rcu_apb1_clock_config
                0x0000000000000000       0x18 build/gd32f4xx_rcu.o
 .text.rcu_apb2_clock_config
                0x0000000000000000       0x18 build/gd32f4xx_rcu.o
 .text.rcu_ckout0_config
                0x0000000000000000       0x18 build/gd32f4xx_rcu.o
 .text.rcu_ckout1_config
                0x0000000000000000       0x18 build/gd32f4xx_rcu.o
 .text.rcu_pll_config
                0x0000000000000000       0x8c build/gd32f4xx_rcu.o
 .text.rcu_plli2s_config
                0x0000000000000000       0x2c build/gd32f4xx_rcu.o
 .text.rcu_pllsai_config
                0x0000000000000000       0x4c build/gd32f4xx_rcu.o
 .text.rcu_rtc_clock_config
                0x0000000000000000       0x18 build/gd32f4xx_rcu.o
 .text.rcu_rtc_div_config
                0x0000000000000000       0x18 build/gd32f4xx_rcu.o
 .text.rcu_i2s_clock_config
                0x0000000000000000       0x18 build/gd32f4xx_rcu.o
 .text.rcu_ck48m_clock_config
                0x0000000000000000       0x18 build/gd32f4xx_rcu.o
 .text.rcu_pll48m_clock_config
                0x0000000000000000       0x18 build/gd32f4xx_rcu.o
 .text.rcu_timer_clock_prescaler_config
                0x0000000000000000       0x28 build/gd32f4xx_rcu.o
 .text.rcu_tli_clock_div_config
                0x0000000000000000       0x18 build/gd32f4xx_rcu.o
 .text.rcu_lxtal_drive_capability_config
                0x0000000000000000       0x18 build/gd32f4xx_rcu.o
 .text.rcu_osci_on
                0x0000000000000000       0x1a build/gd32f4xx_rcu.o
 .text.rcu_osci_off
                0x0000000000000000       0x1c build/gd32f4xx_rcu.o
 .text.rcu_osci_bypass_mode_enable
                0x0000000000000000       0x48 build/gd32f4xx_rcu.o
 .text.rcu_osci_bypass_mode_disable
                0x0000000000000000       0x48 build/gd32f4xx_rcu.o
 .text.rcu_irc16m_adjust_value_set
                0x0000000000000000       0x1c build/gd32f4xx_rcu.o
 .text.rcu_spread_spectrum_config
                0x0000000000000000       0x20 build/gd32f4xx_rcu.o
 .text.rcu_spread_spectrum_enable
                0x0000000000000000       0x14 build/gd32f4xx_rcu.o
 .text.rcu_spread_spectrum_disable
                0x0000000000000000       0x14 build/gd32f4xx_rcu.o
 .text.rcu_hxtal_clock_monitor_enable
                0x0000000000000000       0x14 build/gd32f4xx_rcu.o
 .text.rcu_hxtal_clock_monitor_disable
                0x0000000000000000       0x14 build/gd32f4xx_rcu.o
 .text.rcu_voltage_key_unlock
                0x0000000000000000       0x14 build/gd32f4xx_rcu.o
 .text.rcu_deepsleep_voltage_set
                0x0000000000000000       0x10 build/gd32f4xx_rcu.o
 .text.rcu_flag_get
                0x0000000000000000       0x20 build/gd32f4xx_rcu.o
 .text.rcu_osci_stab_wait
                0x0000000000000000      0x178 build/gd32f4xx_rcu.o
 .text.rcu_deinit
                0x0000000000000000       0x80 build/gd32f4xx_rcu.o
 .text.rcu_all_reset_flag_clear
                0x0000000000000000       0x14 build/gd32f4xx_rcu.o
 .text.rcu_interrupt_flag_get
                0x0000000000000000       0x20 build/gd32f4xx_rcu.o
 .text.rcu_interrupt_flag_clear
                0x0000000000000000       0x1a build/gd32f4xx_rcu.o
 .text.rcu_interrupt_enable
                0x0000000000000000       0x1a build/gd32f4xx_rcu.o
 .text.rcu_interrupt_disable
                0x0000000000000000       0x1c build/gd32f4xx_rcu.o
 .text          0x0000000000000000        0x0 build/gd32f4xx_usart.o
 .data          0x0000000000000000        0x0 build/gd32f4xx_usart.o
 .bss           0x0000000000000000        0x0 build/gd32f4xx_usart.o
 .text.usart_parity_config
                0x0000000000000000       0x10 build/gd32f4xx_usart.o
 .text.usart_word_length_set
                0x0000000000000000       0x10 build/gd32f4xx_usart.o
 .text.usart_stop_bit_set
                0x0000000000000000       0x10 build/gd32f4xx_usart.o
 .text.usart_disable
                0x0000000000000000        0xa build/gd32f4xx_usart.o
 .text.usart_data_first_config
                0x0000000000000000       0x10 build/gd32f4xx_usart.o
 .text.usart_invert_config
                0x0000000000000000       0x62 build/gd32f4xx_usart.o
 .text.usart_oversample_config
                0x0000000000000000       0x10 build/gd32f4xx_usart.o
 .text.usart_sample_bit_config
                0x0000000000000000       0x10 build/gd32f4xx_usart.o
 .text.usart_receiver_timeout_enable
                0x0000000000000000        0xe build/gd32f4xx_usart.o
 .text.usart_receiver_timeout_disable
                0x0000000000000000        0xe build/gd32f4xx_usart.o
 .text.usart_receiver_timeout_threshold_config
                0x0000000000000000       0x18 build/gd32f4xx_usart.o
 .text.usart_data_transmit
                0x0000000000000000        0x8 build/gd32f4xx_usart.o
 .text.usart_data_receive
                0x0000000000000000        0x8 build/gd32f4xx_usart.o
 .text.usart_address_config
                0x0000000000000000       0x14 build/gd32f4xx_usart.o
 .text.usart_mute_mode_enable
                0x0000000000000000        0xa build/gd32f4xx_usart.o
 .text.usart_mute_mode_disable
                0x0000000000000000        0xa build/gd32f4xx_usart.o
 .text.usart_mute_mode_wakeup_config
                0x0000000000000000       0x10 build/gd32f4xx_usart.o
 .text.usart_lin_mode_enable
                0x0000000000000000        0xa build/gd32f4xx_usart.o
 .text.usart_lin_mode_disable
                0x0000000000000000        0xa build/gd32f4xx_usart.o
 .text.usart_lin_break_detection_length_config
                0x0000000000000000       0x14 build/gd32f4xx_usart.o
 .text.usart_send_break
                0x0000000000000000        0xa build/gd32f4xx_usart.o
 .text.usart_halfduplex_enable
                0x0000000000000000        0xa build/gd32f4xx_usart.o
 .text.usart_halfduplex_disable
                0x0000000000000000        0xa build/gd32f4xx_usart.o
 .text.usart_synchronous_clock_enable
                0x0000000000000000        0xa build/gd32f4xx_usart.o
 .text.usart_synchronous_clock_disable
                0x0000000000000000        0xa build/gd32f4xx_usart.o
 .text.usart_synchronous_clock_config
                0x0000000000000000       0x20 build/gd32f4xx_usart.o
 .text.usart_guard_time_config
                0x0000000000000000       0x12 build/gd32f4xx_usart.o
 .text.usart_smartcard_mode_enable
                0x0000000000000000        0xa build/gd32f4xx_usart.o
 .text.usart_smartcard_mode_disable
                0x0000000000000000        0xa build/gd32f4xx_usart.o
 .text.usart_smartcard_mode_nack_enable
                0x0000000000000000        0xa build/gd32f4xx_usart.o
 .text.usart_smartcard_mode_nack_disable
                0x0000000000000000        0xa build/gd32f4xx_usart.o
 .text.usart_smartcard_autoretry_config
                0x0000000000000000       0x1e build/gd32f4xx_usart.o
 .text.usart_block_length_config
                0x0000000000000000       0x1a build/gd32f4xx_usart.o
 .text.usart_irda_mode_enable
                0x0000000000000000        0xa build/gd32f4xx_usart.o
 .text.usart_irda_mode_disable
                0x0000000000000000        0xa build/gd32f4xx_usart.o
 .text.usart_prescaler_config
                0x0000000000000000       0x10 build/gd32f4xx_usart.o
 .text.usart_irda_lowpower_config
                0x0000000000000000       0x14 build/gd32f4xx_usart.o
 .text.usart_hardware_flow_rts_config
                0x0000000000000000       0x14 build/gd32f4xx_usart.o
 .text.usart_hardware_flow_cts_config
                0x0000000000000000       0x14 build/gd32f4xx_usart.o
 .text.usart_break_frame_coherence_config
                0x0000000000000000       0x1c build/gd32f4xx_usart.o
 .text.usart_parity_check_coherence_config
                0x0000000000000000       0x1c build/gd32f4xx_usart.o
 .text.usart_hardware_flow_coherence_config
                0x0000000000000000       0x1c build/gd32f4xx_usart.o
 .text.usart_dma_receive_config
                0x0000000000000000       0x14 build/gd32f4xx_usart.o
 .text.usart_dma_transmit_config
                0x0000000000000000       0x14 build/gd32f4xx_usart.o
 .text.usart_flag_get
                0x0000000000000000       0x18 build/gd32f4xx_usart.o
 .text.usart_flag_clear
                0x0000000000000000       0x1a build/gd32f4xx_usart.o
 .text.usart_interrupt_enable
                0x0000000000000000       0x18 build/gd32f4xx_usart.o
 .text.usart_interrupt_disable
                0x0000000000000000       0x1a build/gd32f4xx_usart.o
 .text.usart_interrupt_flag_get
                0x0000000000000000       0x32 build/gd32f4xx_usart.o
 .text.usart_interrupt_flag_clear
                0x0000000000000000       0x1a build/gd32f4xx_usart.o
 .text          0x0000000000000000        0x0 build/gd32f4xx_spi.o
 .data          0x0000000000000000        0x0 build/gd32f4xx_spi.o
 .bss           0x0000000000000000        0x0 build/gd32f4xx_spi.o
 .text.spi_i2s_deinit
                0x0000000000000000       0xa4 build/gd32f4xx_spi.o
 .text.spi_struct_para_init
                0x0000000000000000       0x12 build/gd32f4xx_spi.o
 .text.spi_init
                0x0000000000000000       0x2e build/gd32f4xx_spi.o
 .text.spi_enable
                0x0000000000000000        0xa build/gd32f4xx_spi.o
 .text.spi_disable
                0x0000000000000000        0xa build/gd32f4xx_spi.o
 .text.i2s_init
                0x0000000000000000       0x22 build/gd32f4xx_spi.o
 .text.i2s_psc_config
                0x0000000000000000       0xe4 build/gd32f4xx_spi.o
 .text.i2s_enable
                0x0000000000000000        0xa build/gd32f4xx_spi.o
 .text.i2s_disable
                0x0000000000000000        0xa build/gd32f4xx_spi.o
 .text.spi_nss_output_enable
                0x0000000000000000        0xa build/gd32f4xx_spi.o
 .text.spi_nss_output_disable
                0x0000000000000000        0xa build/gd32f4xx_spi.o
 .text.spi_nss_internal_high
                0x0000000000000000        0xa build/gd32f4xx_spi.o
 .text.spi_nss_internal_low
                0x0000000000000000        0xa build/gd32f4xx_spi.o
 .text.spi_dma_enable
                0x0000000000000000       0x16 build/gd32f4xx_spi.o
 .text.spi_dma_disable
                0x0000000000000000       0x16 build/gd32f4xx_spi.o
 .text.spi_i2s_data_frame_format_config
                0x0000000000000000       0x10 build/gd32f4xx_spi.o
 .text.spi_i2s_data_transmit
                0x0000000000000000        0x4 build/gd32f4xx_spi.o
 .text.spi_i2s_data_receive
                0x0000000000000000        0x6 build/gd32f4xx_spi.o
 .text.spi_bidirectional_transfer_config
                0x0000000000000000       0x1a build/gd32f4xx_spi.o
 .text.i2s_full_duplex_mode_config
                0x0000000000000000       0x34 build/gd32f4xx_spi.o
 .text.spi_i2s_format_error_clear
                0x0000000000000000        0x6 build/gd32f4xx_spi.o
 .text.spi_crc_polynomial_set
                0x0000000000000000        0x4 build/gd32f4xx_spi.o
 .text.spi_crc_polynomial_get
                0x0000000000000000        0x6 build/gd32f4xx_spi.o
 .text.spi_crc_on
                0x0000000000000000        0xa build/gd32f4xx_spi.o
 .text.spi_crc_off
                0x0000000000000000        0xa build/gd32f4xx_spi.o
 .text.spi_crc_next
                0x0000000000000000        0xa build/gd32f4xx_spi.o
 .text.spi_crc_get
                0x0000000000000000        0xe build/gd32f4xx_spi.o
 .text.spi_crc_error_clear
                0x0000000000000000        0x8 build/gd32f4xx_spi.o
 .text.spi_ti_mode_enable
                0x0000000000000000        0xa build/gd32f4xx_spi.o
 .text.spi_ti_mode_disable
                0x0000000000000000        0xa build/gd32f4xx_spi.o
 .text.spi_quad_enable
                0x0000000000000000        0xe build/gd32f4xx_spi.o
 .text.spi_quad_disable
                0x0000000000000000        0xe build/gd32f4xx_spi.o
 .text.spi_quad_write_enable
                0x0000000000000000        0xe build/gd32f4xx_spi.o
 .text.spi_quad_read_enable
                0x0000000000000000        0xe build/gd32f4xx_spi.o
 .text.spi_quad_io23_output_enable
                0x0000000000000000        0xe build/gd32f4xx_spi.o
 .text.spi_quad_io23_output_disable
                0x0000000000000000        0xe build/gd32f4xx_spi.o
 .text.spi_i2s_flag_get
                0x0000000000000000        0xe build/gd32f4xx_spi.o
 .text.spi_i2s_interrupt_enable
                0x0000000000000000       0x2a build/gd32f4xx_spi.o
 .text.spi_i2s_interrupt_disable
                0x0000000000000000       0x2a build/gd32f4xx_spi.o
 .text.spi_i2s_interrupt_flag_get
                0x0000000000000000       0x68 build/gd32f4xx_spi.o
 .comment       0x0000000000000000       0x3a build/gd32f4xx_spi.o
 .ARM.attributes
                0x0000000000000000       0x2e build/gd32f4xx_spi.o
 .text          0x0000000000000000        0x0 build/gd32f4xx_adc.o
 .data          0x0000000000000000        0x0 build/gd32f4xx_adc.o
 .bss           0x0000000000000000        0x0 build/gd32f4xx_adc.o
 .text.adc_deinit
                0x0000000000000000       0x14 build/gd32f4xx_adc.o
 .text.adc_clock_config
                0x0000000000000000       0x20 build/gd32f4xx_adc.o
 .text.adc_special_function_config
                0x0000000000000000       0x5a build/gd32f4xx_adc.o
 .text.adc_data_alignment_config
                0x0000000000000000       0x16 build/gd32f4xx_adc.o
 .text.adc_enable
                0x0000000000000000       0x12 build/gd32f4xx_adc.o
 .text.adc_disable
                0x0000000000000000        0xa build/gd32f4xx_adc.o
 .text.adc_calibration_enable
                0x0000000000000000       0x26 build/gd32f4xx_adc.o
 .text.adc_channel_16_to_18
                0x0000000000000000       0x5c build/gd32f4xx_adc.o
 .text.adc_resolution_config
                0x0000000000000000       0x10 build/gd32f4xx_adc.o
 .text.adc_oversample_mode_config
                0x0000000000000000       0x3a build/gd32f4xx_adc.o
 .text.adc_oversample_mode_enable
                0x0000000000000000        0xe build/gd32f4xx_adc.o
 .text.adc_oversample_mode_disable
                0x0000000000000000        0xe build/gd32f4xx_adc.o
 .text.adc_dma_mode_enable
                0x0000000000000000        0xa build/gd32f4xx_adc.o
 .text.adc_dma_mode_disable
                0x0000000000000000        0xa build/gd32f4xx_adc.o
 .text.adc_dma_request_after_last_enable
                0x0000000000000000        0xa build/gd32f4xx_adc.o
 .text.adc_dma_request_after_last_disable
                0x0000000000000000        0xa build/gd32f4xx_adc.o
 .text.adc_discontinuous_mode_config
                0x0000000000000000       0x42 build/gd32f4xx_adc.o
 .text.adc_channel_length_config
                0x0000000000000000       0x42 build/gd32f4xx_adc.o
 .text.adc_routine_channel_config
                0x0000000000000000       0xa4 build/gd32f4xx_adc.o
 .text.adc_inserted_channel_config
                0x0000000000000000       0x64 build/gd32f4xx_adc.o
 .text.adc_inserted_channel_offset_config
                0x0000000000000000       0x1a build/gd32f4xx_adc.o
 .text.adc_external_trigger_source_config
                0x0000000000000000       0x2a build/gd32f4xx_adc.o
 .text.adc_external_trigger_config
                0x0000000000000000       0x2e build/gd32f4xx_adc.o
 .text.adc_software_trigger_enable
                0x0000000000000000       0x1e build/gd32f4xx_adc.o
 .text.adc_end_of_conversion_config
                0x0000000000000000       0x1c build/gd32f4xx_adc.o
 .text.adc_routine_data_read
                0x0000000000000000        0x6 build/gd32f4xx_adc.o
 .text.adc_inserted_data_read
                0x0000000000000000       0x22 build/gd32f4xx_adc.o
 .text.adc_watchdog_single_channel_disable
                0x0000000000000000        0xa build/gd32f4xx_adc.o
 .text.adc_watchdog_single_channel_enable
                0x0000000000000000       0x18 build/gd32f4xx_adc.o
 .text.adc_watchdog_sequence_channel_enable
                0x0000000000000000       0x38 build/gd32f4xx_adc.o
 .text.adc_watchdog_disable
                0x0000000000000000       0x2c build/gd32f4xx_adc.o
 .text.adc_watchdog_threshold_config
                0x0000000000000000        0xe build/gd32f4xx_adc.o
 .text.adc_flag_get
                0x0000000000000000        0xe build/gd32f4xx_adc.o
 .text.adc_flag_clear
                0x0000000000000000        0xa build/gd32f4xx_adc.o
 .text.adc_routine_software_startconv_flag_get
                0x0000000000000000       0x10 build/gd32f4xx_adc.o
 .text.adc_inserted_software_startconv_flag_get
                0x0000000000000000       0x10 build/gd32f4xx_adc.o
 .text.adc_interrupt_flag_get
                0x0000000000000000       0x9e build/gd32f4xx_adc.o
 .text.adc_interrupt_flag_clear
                0x0000000000000000        0xa build/gd32f4xx_adc.o
 .text.adc_interrupt_enable
                0x0000000000000000       0x40 build/gd32f4xx_adc.o
 .text.adc_interrupt_disable
                0x0000000000000000       0x40 build/gd32f4xx_adc.o
 .text.adc_sync_mode_config
                0x0000000000000000       0x20 build/gd32f4xx_adc.o
 .text.adc_sync_delay_config
                0x0000000000000000       0x20 build/gd32f4xx_adc.o
 .text.adc_sync_dma_config
                0x0000000000000000       0x20 build/gd32f4xx_adc.o
 .text.adc_sync_dma_request_after_last_enable
                0x0000000000000000       0x14 build/gd32f4xx_adc.o
 .text.adc_sync_dma_request_after_last_disable
                0x0000000000000000       0x14 build/gd32f4xx_adc.o
 .text.adc_sync_routine_data_read
                0x0000000000000000        0xc build/gd32f4xx_adc.o
 .comment       0x0000000000000000       0x3a build/gd32f4xx_adc.o
 .ARM.attributes
                0x0000000000000000       0x2e build/gd32f4xx_adc.o
 .text          0x0000000000000000        0x0 build/gd32f4xx_exti.o
 .data          0x0000000000000000        0x0 build/gd32f4xx_exti.o
 .bss           0x0000000000000000        0x0 build/gd32f4xx_exti.o
 .text.exti_deinit
                0x0000000000000000       0x20 build/gd32f4xx_exti.o
 .text.exti_init
                0x0000000000000000       0xb8 build/gd32f4xx_exti.o
 .text.exti_interrupt_enable
                0x0000000000000000       0x14 build/gd32f4xx_exti.o
 .text.exti_interrupt_disable
                0x0000000000000000       0x14 build/gd32f4xx_exti.o
 .text.exti_event_enable
                0x0000000000000000       0x14 build/gd32f4xx_exti.o
 .text.exti_event_disable
                0x0000000000000000       0x14 build/gd32f4xx_exti.o
 .text.exti_software_interrupt_enable
                0x0000000000000000       0x14 build/gd32f4xx_exti.o
 .text.exti_software_interrupt_disable
                0x0000000000000000       0x14 build/gd32f4xx_exti.o
 .text.exti_flag_get
                0x0000000000000000       0x18 build/gd32f4xx_exti.o
 .text.exti_flag_clear
                0x0000000000000000        0xc build/gd32f4xx_exti.o
 .text.exti_interrupt_flag_get
                0x0000000000000000       0x18 build/gd32f4xx_exti.o
 .text.exti_interrupt_flag_clear
                0x0000000000000000        0xc build/gd32f4xx_exti.o
 .comment       0x0000000000000000       0x3a build/gd32f4xx_exti.o
 .ARM.attributes
                0x0000000000000000       0x2e build/gd32f4xx_exti.o
 .text          0x0000000000000000        0x0 build/gd32f4xx_misc.o
 .data          0x0000000000000000        0x0 build/gd32f4xx_misc.o
 .bss           0x0000000000000000        0x0 build/gd32f4xx_misc.o
 .text.nvic_priority_group_set
                0x0000000000000000       0x14 build/gd32f4xx_misc.o
 .text.nvic_irq_enable
                0x0000000000000000       0xb0 build/gd32f4xx_misc.o
 .text.nvic_irq_disable
                0x0000000000000000       0x18 build/gd32f4xx_misc.o
 .text.nvic_vector_table_set
                0x0000000000000000       0x18 build/gd32f4xx_misc.o
 .text.system_lowpower_set
                0x0000000000000000       0x10 build/gd32f4xx_misc.o
 .text.system_lowpower_reset
                0x0000000000000000       0x10 build/gd32f4xx_misc.o
 .text.systick_clksource_set
                0x0000000000000000       0x20 build/gd32f4xx_misc.o
 .comment       0x0000000000000000       0x3a build/gd32f4xx_misc.o
 .ARM.attributes
                0x0000000000000000       0x2e build/gd32f4xx_misc.o
 .text          0x0000000000000000        0x0 build/gd32f4xx_crc.o
 .data          0x0000000000000000        0x0 build/gd32f4xx_crc.o
 .bss           0x0000000000000000        0x0 build/gd32f4xx_crc.o
 .text.crc_deinit
                0x0000000000000000       0x18 build/gd32f4xx_crc.o
 .text.crc_data_register_reset
                0x0000000000000000       0x10 build/gd32f4xx_crc.o
 .text.crc_data_register_read
                0x0000000000000000        0xc build/gd32f4xx_crc.o
 .text.crc_free_data_register_read
                0x0000000000000000        0xc build/gd32f4xx_crc.o
 .text.crc_free_data_register_write
                0x0000000000000000        0xc build/gd32f4xx_crc.o
 .text.crc_single_data_calculate
                0x0000000000000000        0xc build/gd32f4xx_crc.o
 .text.crc_block_data_calculate
                0x0000000000000000       0x20 build/gd32f4xx_crc.o
 .comment       0x0000000000000000       0x3a build/gd32f4xx_crc.o
 .ARM.attributes
                0x0000000000000000       0x2e build/gd32f4xx_crc.o
 .text          0x0000000000000000        0x0 build/gd32f4xx_dac.o
 .data          0x0000000000000000        0x0 build/gd32f4xx_dac.o
 .bss           0x0000000000000000        0x0 build/gd32f4xx_dac.o
 .text.dac_deinit
                0x0000000000000000       0x14 build/gd32f4xx_dac.o
 .text.dac_enable
                0x0000000000000000       0x28 build/gd32f4xx_dac.o
 .text.dac_disable
                0x0000000000000000       0x28 build/gd32f4xx_dac.o
 .text.dac_dma_enable
                0x0000000000000000       0x28 build/gd32f4xx_dac.o
 .text.dac_dma_disable
                0x0000000000000000       0x28 build/gd32f4xx_dac.o
 .text.dac_output_buffer_enable
                0x0000000000000000       0x28 build/gd32f4xx_dac.o
 .text.dac_output_buffer_disable
                0x0000000000000000       0x28 build/gd32f4xx_dac.o
 .text.dac_output_value_get
                0x0000000000000000       0x1c build/gd32f4xx_dac.o
 .text.dac_data_set
                0x0000000000000000       0x50 build/gd32f4xx_dac.o
 .text.dac_trigger_enable
                0x0000000000000000       0x28 build/gd32f4xx_dac.o
 .text.dac_trigger_disable
                0x0000000000000000       0x28 build/gd32f4xx_dac.o
 .text.dac_trigger_source_config
                0x0000000000000000       0x3c build/gd32f4xx_dac.o
 .text.dac_software_trigger_enable
                0x0000000000000000       0x28 build/gd32f4xx_dac.o
 .text.dac_software_trigger_disable
                0x0000000000000000       0x28 build/gd32f4xx_dac.o
 .text.dac_wave_mode_config
                0x0000000000000000       0x3c build/gd32f4xx_dac.o
 .text.dac_wave_bit_width_config
                0x0000000000000000       0x3c build/gd32f4xx_dac.o
 .text.dac_lfsr_noise_config
                0x0000000000000000       0x3c build/gd32f4xx_dac.o
 .text.dac_triangle_noise_config
                0x0000000000000000       0x3c build/gd32f4xx_dac.o
 .text.dac_concurrent_enable
                0x0000000000000000       0x14 build/gd32f4xx_dac.o
 .text.dac_concurrent_disable
                0x0000000000000000       0x14 build/gd32f4xx_dac.o
 .text.dac_concurrent_software_trigger_enable
                0x0000000000000000       0x14 build/gd32f4xx_dac.o
 .text.dac_concurrent_software_trigger_disable
                0x0000000000000000       0x14 build/gd32f4xx_dac.o
 .text.dac_concurrent_output_buffer_enable
                0x0000000000000000       0x14 build/gd32f4xx_dac.o
 .text.dac_concurrent_output_buffer_disable
                0x0000000000000000       0x14 build/gd32f4xx_dac.o
 .text.dac_concurrent_data_set
                0x0000000000000000       0x34 build/gd32f4xx_dac.o
 .text.dac_concurrent_interrupt_enable
                0x0000000000000000       0x14 build/gd32f4xx_dac.o
 .text.dac_concurrent_interrupt_disable
                0x0000000000000000       0x14 build/gd32f4xx_dac.o
 .text.dac_flag_get
                0x0000000000000000       0x2c build/gd32f4xx_dac.o
 .text.dac_flag_clear
                0x0000000000000000       0x28 build/gd32f4xx_dac.o
 .text.dac_interrupt_enable
                0x0000000000000000       0x28 build/gd32f4xx_dac.o
 .text.dac_interrupt_disable
                0x0000000000000000       0x28 build/gd32f4xx_dac.o
 .text.dac_interrupt_flag_get
                0x0000000000000000       0x48 build/gd32f4xx_dac.o
 .text.dac_interrupt_flag_clear
                0x0000000000000000       0x28 build/gd32f4xx_dac.o
 .comment       0x0000000000000000       0x3a build/gd32f4xx_dac.o
 .ARM.attributes
                0x0000000000000000       0x2e build/gd32f4xx_dac.o
 .text          0x0000000000000000        0x0 build/gd32f4xx_tli.o
 .data          0x0000000000000000        0x0 build/gd32f4xx_tli.o
 .bss           0x0000000000000000        0x0 build/gd32f4xx_tli.o
 .text.tli_deinit
                0x0000000000000000       0x14 build/gd32f4xx_tli.o
 .text.tli_struct_para_init
                0x0000000000000000       0x22 build/gd32f4xx_tli.o
 .text.tli_init
                0x0000000000000000       0xb0 build/gd32f4xx_tli.o
 .text.tli_dither_config
                0x0000000000000000       0x28 build/gd32f4xx_tli.o
 .text.tli_enable
                0x0000000000000000       0x14 build/gd32f4xx_tli.o
 .text.tli_disable
                0x0000000000000000       0x14 build/gd32f4xx_tli.o
 .text.tli_reload_config
                0x0000000000000000       0x28 build/gd32f4xx_tli.o
 .text.tli_layer_struct_para_init
                0x0000000000000000       0x2c build/gd32f4xx_tli.o
 .text.tli_layer_init
                0x0000000000000000       0xd8 build/gd32f4xx_tli.o
 .text.tli_layer_window_offset_modify
                0x0000000000000000       0xb8 build/gd32f4xx_tli.o
 .text.tli_lut_struct_para_init
                0x0000000000000000        0xc build/gd32f4xx_tli.o
 .text.tli_lut_init
                0x0000000000000000       0x1c build/gd32f4xx_tli.o
 .text.tli_color_key_init
                0x0000000000000000        0xe build/gd32f4xx_tli.o
 .text.tli_layer_enable
                0x0000000000000000        0xe build/gd32f4xx_tli.o
 .text.tli_layer_disable
                0x0000000000000000        0xe build/gd32f4xx_tli.o
 .text.tli_color_key_enable
                0x0000000000000000        0xe build/gd32f4xx_tli.o
 .text.tli_color_key_disable
                0x0000000000000000        0xe build/gd32f4xx_tli.o
 .text.tli_lut_enable
                0x0000000000000000        0xe build/gd32f4xx_tli.o
 .text.tli_lut_disable
                0x0000000000000000        0xe build/gd32f4xx_tli.o
 .text.tli_line_mark_set
                0x0000000000000000       0x1c build/gd32f4xx_tli.o
 .text.tli_current_pos_get
                0x0000000000000000        0xc build/gd32f4xx_tli.o
 .text.tli_interrupt_enable
                0x0000000000000000       0x14 build/gd32f4xx_tli.o
 .text.tli_interrupt_disable
                0x0000000000000000       0x14 build/gd32f4xx_tli.o
 .text.tli_interrupt_flag_get
                0x0000000000000000       0x24 build/gd32f4xx_tli.o
 .text.tli_interrupt_flag_clear
                0x0000000000000000       0x14 build/gd32f4xx_tli.o
 .text.tli_flag_get
                0x0000000000000000       0x24 build/gd32f4xx_tli.o
 .comment       0x0000000000000000       0x3a build/gd32f4xx_tli.o
 .ARM.attributes
                0x0000000000000000       0x2e build/gd32f4xx_tli.o
 .text          0x0000000000000000        0x0 build/gd32f4xx_exmc.o
 .data          0x0000000000000000        0x0 build/gd32f4xx_exmc.o
 .bss           0x0000000000000000        0x0 build/gd32f4xx_exmc.o
 .text.exmc_norsram_deinit
                0x0000000000000000       0x1e build/gd32f4xx_exmc.o
 .text.exmc_norsram_struct_para_init
                0x0000000000000000       0x60 build/gd32f4xx_exmc.o
 .text.exmc_norsram_disable
                0x0000000000000000       0x10 build/gd32f4xx_exmc.o
 .text.exmc_nand_deinit
                0x0000000000000000       0x20 build/gd32f4xx_exmc.o
 .text.exmc_nand_struct_para_init
                0x0000000000000000       0x36 build/gd32f4xx_exmc.o
 .text.exmc_nand_init
                0x0000000000000000       0xa0 build/gd32f4xx_exmc.o
 .text.exmc_nand_enable
                0x0000000000000000       0x12 build/gd32f4xx_exmc.o
 .text.exmc_nand_disable
                0x0000000000000000       0x12 build/gd32f4xx_exmc.o
 .text.exmc_pccard_deinit
                0x0000000000000000       0x22 build/gd32f4xx_exmc.o
 .text.exmc_pccard_struct_para_init
                0x0000000000000000       0x3c build/gd32f4xx_exmc.o
 .text.exmc_pccard_init
                0x0000000000000000       0x92 build/gd32f4xx_exmc.o
 .text.exmc_pccard_enable
                0x0000000000000000       0x12 build/gd32f4xx_exmc.o
 .text.exmc_pccard_disable
                0x0000000000000000       0x12 build/gd32f4xx_exmc.o
 .text.exmc_sdram_deinit
                0x0000000000000000       0x2e build/gd32f4xx_exmc.o
 .text.exmc_sdram_struct_para_init
                0x0000000000000000       0x3e build/gd32f4xx_exmc.o
 .text.exmc_sdram_init
                0x0000000000000000      0x104 build/gd32f4xx_exmc.o
 .text.exmc_sdram_struct_command_para_init
                0x0000000000000000        0xe build/gd32f4xx_exmc.o
 .text.exmc_sqpipsram_deinit
                0x0000000000000000       0x24 build/gd32f4xx_exmc.o
 .text.exmc_sqpipsram_struct_para_init
                0x0000000000000000       0x14 build/gd32f4xx_exmc.o
 .text.exmc_sqpipsram_init
                0x0000000000000000       0x18 build/gd32f4xx_exmc.o
 .text.exmc_norsram_consecutive_clock_config
                0x0000000000000000       0x22 build/gd32f4xx_exmc.o
 .text.exmc_norsram_page_size_config
                0x0000000000000000       0x16 build/gd32f4xx_exmc.o
 .text.exmc_nand_ecc_config
                0x0000000000000000       0x28 build/gd32f4xx_exmc.o
 .text.exmc_ecc_get
                0x0000000000000000        0xa build/gd32f4xx_exmc.o
 .text.exmc_sdram_readsample_enable
                0x0000000000000000       0x28 build/gd32f4xx_exmc.o
 .text.exmc_sdram_readsample_config
                0x0000000000000000       0x16 build/gd32f4xx_exmc.o
 .text.exmc_sdram_command_config
                0x0000000000000000       0x1a build/gd32f4xx_exmc.o
 .text.exmc_sdram_refresh_count_set
                0x0000000000000000       0x20 build/gd32f4xx_exmc.o
 .text.exmc_sdram_autorefresh_number_set
                0x0000000000000000       0x1a build/gd32f4xx_exmc.o
 .text.exmc_sdram_write_protection_config
                0x0000000000000000       0x28 build/gd32f4xx_exmc.o
 .text.exmc_sdram_bankstatus_get
                0x0000000000000000       0x20 build/gd32f4xx_exmc.o
 .text.exmc_sqpipsram_read_command_set
                0x0000000000000000       0x16 build/gd32f4xx_exmc.o
 .text.exmc_sqpipsram_write_command_set
                0x0000000000000000       0x16 build/gd32f4xx_exmc.o
 .text.exmc_sqpipsram_read_id_command_send
                0x0000000000000000       0x12 build/gd32f4xx_exmc.o
 .text.exmc_sqpipsram_write_cmd_send
                0x0000000000000000       0x12 build/gd32f4xx_exmc.o
 .text.exmc_sqpipsram_low_id_get
                0x0000000000000000        0xa build/gd32f4xx_exmc.o
 .text.exmc_sqpipsram_high_id_get
                0x0000000000000000        0xa build/gd32f4xx_exmc.o
 .text.exmc_sqpipsram_send_command_state_get
                0x0000000000000000       0x1e build/gd32f4xx_exmc.o
 .text.exmc_interrupt_enable
                0x0000000000000000       0x26 build/gd32f4xx_exmc.o
 .text.exmc_interrupt_disable
                0x0000000000000000       0x28 build/gd32f4xx_exmc.o
 .text.exmc_flag_get
                0x0000000000000000       0x24 build/gd32f4xx_exmc.o
 .text.exmc_flag_clear
                0x0000000000000000       0x28 build/gd32f4xx_exmc.o
 .text.exmc_interrupt_flag_get
                0x0000000000000000       0x36 build/gd32f4xx_exmc.o
 .text.exmc_interrupt_flag_clear
                0x0000000000000000       0x28 build/gd32f4xx_exmc.o
 .text          0x0000000000000000        0x0 build/key.o
 .data          0x0000000000000000        0x0 build/key.o
 .bss           0x0000000000000000        0x0 build/key.o
 .rodata.key_get_value.str1.4
                0x0000000000000000       0x1e build/key.o
 .text.key_get_value
                0x0000000000000000       0x3c build/key.o
 .text          0x0000000000000000        0x0 build/led.o
 .data          0x0000000000000000        0x0 build/led.o
 .bss           0x0000000000000000        0x0 build/led.o
 .text          0x0000000000000000        0x0 build/lcd.o
 .data          0x0000000000000000        0x0 build/lcd.o
 .bss           0x0000000000000000        0x0 build/lcd.o
 .text.LCD_SetCursor
                0x0000000000000000       0x48 build/lcd.o
 .text.LCD_DrawPoint
                0x0000000000000000       0x20 build/lcd.o
 .text.opt_delay
                0x0000000000000000        0xc build/lcd.o
 .text.LCD_ReadPoint
                0x0000000000000000       0x48 build/lcd.o
 .text          0x0000000000000000        0x0 build/pic_480800.o
 .data          0x0000000000000000        0x0 build/pic_480800.o
 .bss           0x0000000000000000        0x0 build/pic_480800.o
 .rodata.pic_480800
                0x0000000000000000    0xbb800 build/pic_480800.o
 .comment       0x0000000000000000       0x3a build/pic_480800.o
 .ARM.attributes
                0x0000000000000000       0x2e build/pic_480800.o
 .text          0x0000000000000000        0x0 build/usart0.o
 .data          0x0000000000000000        0x0 build/usart0.o
 .bss           0x0000000000000000        0x0 build/usart0.o
 .text.fputc    0x0000000000000000       0x20 build/usart0.o
 .text          0x0000000000000000        0x0 build/gd32f4xx_it.o
 .data          0x0000000000000000        0x0 build/gd32f4xx_it.o
 .bss           0x0000000000000000        0x0 build/gd32f4xx_it.o
 .text          0x0000000000000000        0x0 build/systick.o
 .data          0x0000000000000000        0x0 build/systick.o
 .bss           0x0000000000000000        0x0 build/systick.o
 .text          0x0000000000000000        0x0 build/main.o
 .data          0x0000000000000000        0x0 build/main.o
 .bss           0x0000000000000000        0x0 build/main.o
 .text          0x0000000000000000       0x14 build/startup_gd32f450_470.o
 .data          0x0000000000000000        0x0 build/startup_gd32f450_470.o
 .bss           0x0000000000000000        0x0 build/startup_gd32f450_470.o
 .text          0x0000000000000000        0x0 /opt/arm-none-eabi/bin/../lib/gcc/arm-none-eabi/12.2.1/../../../../arm-none-eabi/lib/thumb/v7e-m/nofp/libc_nano.a(libc_a-atexit.o)
 .data          0x0000000000000000        0x0 /opt/arm-none-eabi/bin/../lib/gcc/arm-none-eabi/12.2.1/../../../../arm-none-eabi/lib/thumb/v7e-m/nofp/libc_nano.a(libc_a-atexit.o)
 .bss           0x0000000000000000        0x0 /opt/arm-none-eabi/bin/../lib/gcc/arm-none-eabi/12.2.1/../../../../arm-none-eabi/lib/thumb/v7e-m/nofp/libc_nano.a(libc_a-atexit.o)
 .text.atexit   0x0000000000000000        0xc /opt/arm-none-eabi/bin/../lib/gcc/arm-none-eabi/12.2.1/../../../../arm-none-eabi/lib/thumb/v7e-m/nofp/libc_nano.a(libc_a-atexit.o)
 .comment       0x0000000000000000       0x3a /opt/arm-none-eabi/bin/../lib/gcc/arm-none-eabi/12.2.1/../../../../arm-none-eabi/lib/thumb/v7e-m/nofp/libc_nano.a(libc_a-atexit.o)
 .ARM.attributes
                0x0000000000000000       0x2e /opt/arm-none-eabi/bin/../lib/gcc/arm-none-eabi/12.2.1/../../../../arm-none-eabi/lib/thumb/v7e-m/nofp/libc_nano.a(libc_a-atexit.o)
 .text          0x0000000000000000        0x0 /opt/arm-none-eabi/bin/../lib/gcc/arm-none-eabi/12.2.1/../../../../arm-none-eabi/lib/thumb/v7e-m/nofp/libc_nano.a(libc_a-exit.o)
 .data          0x0000000000000000        0x0 /opt/arm-none-eabi/bin/../lib/gcc/arm-none-eabi/12.2.1/../../../../arm-none-eabi/lib/thumb/v7e-m/nofp/libc_nano.a(libc_a-exit.o)
 .bss           0x0000000000000000        0x0 /opt/arm-none-eabi/bin/../lib/gcc/arm-none-eabi/12.2.1/../../../../arm-none-eabi/lib/thumb/v7e-m/nofp/libc_nano.a(libc_a-exit.o)
 .text.exit     0x0000000000000000       0x24 /opt/arm-none-eabi/bin/../lib/gcc/arm-none-eabi/12.2.1/../../../../arm-none-eabi/lib/thumb/v7e-m/nofp/libc_nano.a(libc_a-exit.o)
 .comment       0x0000000000000000       0x3a /opt/arm-none-eabi/bin/../lib/gcc/arm-none-eabi/12.2.1/../../../../arm-none-eabi/lib/thumb/v7e-m/nofp/libc_nano.a(libc_a-exit.o)
 .ARM.attributes
                0x0000000000000000       0x2e /opt/arm-none-eabi/bin/../lib/gcc/arm-none-eabi/12.2.1/../../../../arm-none-eabi/lib/thumb/v7e-m/nofp/libc_nano.a(libc_a-exit.o)
 .text          0x0000000000000000        0x0 /opt/arm-none-eabi/bin/../lib/gcc/arm-none-eabi/12.2.1/../../../../arm-none-eabi/lib/thumb/v7e-m/nofp/libc_nano.a(libc_a-nano-vfprintf_float.o)
 .data          0x0000000000000000        0x0 /opt/arm-none-eabi/bin/../lib/gcc/arm-none-eabi/12.2.1/../../../../arm-none-eabi/lib/thumb/v7e-m/nofp/libc_nano.a(libc_a-nano-vfprintf_float.o)
 .bss           0x0000000000000000        0x0 /opt/arm-none-eabi/bin/../lib/gcc/arm-none-eabi/12.2.1/../../../../arm-none-eabi/lib/thumb/v7e-m/nofp/libc_nano.a(libc_a-nano-vfprintf_float.o)
 .text          0x0000000000000000        0x0 /opt/arm-none-eabi/bin/../lib/gcc/arm-none-eabi/12.2.1/../../../../arm-none-eabi/lib/thumb/v7e-m/nofp/libc_nano.a(libc_a-nano-vfprintf_i.o)
 .data          0x0000000000000000        0x0 /opt/arm-none-eabi/bin/../lib/gcc/arm-none-eabi/12.2.1/../../../../arm-none-eabi/lib/thumb/v7e-m/nofp/libc_nano.a(libc_a-nano-vfprintf_i.o)
 .bss           0x0000000000000000        0x0 /opt/arm-none-eabi/bin/../lib/gcc/arm-none-eabi/12.2.1/../../../../arm-none-eabi/lib/thumb/v7e-m/nofp/libc_nano.a(libc_a-nano-vfprintf_i.o)
 .text          0x0000000000000000        0x0 /opt/arm-none-eabi/bin/../lib/gcc/arm-none-eabi/12.2.1/../../../../arm-none-eabi/lib/thumb/v7e-m/nofp/libc_nano.a(libc_a-findfp.o)
 .data          0x0000000000000000        0x0 /opt/arm-none-eabi/bin/../lib/gcc/arm-none-eabi/12.2.1/../../../../arm-none-eabi/lib/thumb/v7e-m/nofp/libc_nano.a(libc_a-findfp.o)
 .bss           0x0000000000000000        0x0 /opt/arm-none-eabi/bin/../lib/gcc/arm-none-eabi/12.2.1/../../../../arm-none-eabi/lib/thumb/v7e-m/nofp/libc_nano.a(libc_a-findfp.o)
 .text.__fp_lock
                0x0000000000000000       0x18 /opt/arm-none-eabi/bin/../lib/gcc/arm-none-eabi/12.2.1/../../../../arm-none-eabi/lib/thumb/v7e-m/nofp/libc_nano.a(libc_a-findfp.o)
 .text.__fp_unlock
                0x0000000000000000       0x18 /opt/arm-none-eabi/bin/../lib/gcc/arm-none-eabi/12.2.1/../../../../arm-none-eabi/lib/thumb/v7e-m/nofp/libc_nano.a(libc_a-findfp.o)
 .text.__sfp    0x0000000000000000       0xa4 /opt/arm-none-eabi/bin/../lib/gcc/arm-none-eabi/12.2.1/../../../../arm-none-eabi/lib/thumb/v7e-m/nofp/libc_nano.a(libc_a-findfp.o)
 .text.__fp_lock_all
                0x0000000000000000       0x1c /opt/arm-none-eabi/bin/../lib/gcc/arm-none-eabi/12.2.1/../../../../arm-none-eabi/lib/thumb/v7e-m/nofp/libc_nano.a(libc_a-findfp.o)
 .text.__fp_unlock_all
                0x0000000000000000       0x1c /opt/arm-none-eabi/bin/../lib/gcc/arm-none-eabi/12.2.1/../../../../arm-none-eabi/lib/thumb/v7e-m/nofp/libc_nano.a(libc_a-findfp.o)
 .text          0x0000000000000000        0x0 /opt/arm-none-eabi/bin/../lib/gcc/arm-none-eabi/12.2.1/../../../../arm-none-eabi/lib/thumb/v7e-m/nofp/libc_nano.a(libc_a-fwalk.o)
 .data          0x0000000000000000        0x0 /opt/arm-none-eabi/bin/../lib/gcc/arm-none-eabi/12.2.1/../../../../arm-none-eabi/lib/thumb/v7e-m/nofp/libc_nano.a(libc_a-fwalk.o)
 .bss           0x0000000000000000        0x0 /opt/arm-none-eabi/bin/../lib/gcc/arm-none-eabi/12.2.1/../../../../arm-none-eabi/lib/thumb/v7e-m/nofp/libc_nano.a(libc_a-fwalk.o)
 .text          0x0000000000000000        0x0 /opt/arm-none-eabi/bin/../lib/gcc/arm-none-eabi/12.2.1/../../../../arm-none-eabi/lib/thumb/v7e-m/nofp/libc_nano.a(libc_a-printf.o)
 .data          0x0000000000000000        0x0 /opt/arm-none-eabi/bin/../lib/gcc/arm-none-eabi/12.2.1/../../../../arm-none-eabi/lib/thumb/v7e-m/nofp/libc_nano.a(libc_a-printf.o)
 .bss           0x0000000000000000        0x0 /opt/arm-none-eabi/bin/../lib/gcc/arm-none-eabi/12.2.1/../../../../arm-none-eabi/lib/thumb/v7e-m/nofp/libc_nano.a(libc_a-printf.o)
 .text._printf_r
                0x0000000000000000       0x1c /opt/arm-none-eabi/bin/../lib/gcc/arm-none-eabi/12.2.1/../../../../arm-none-eabi/lib/thumb/v7e-m/nofp/libc_nano.a(libc_a-printf.o)
 .text          0x0000000000000000        0x0 /opt/arm-none-eabi/bin/../lib/gcc/arm-none-eabi/12.2.1/../../../../arm-none-eabi/lib/thumb/v7e-m/nofp/libc_nano.a(libc_a-puts.o)
 .data          0x0000000000000000        0x0 /opt/arm-none-eabi/bin/../lib/gcc/arm-none-eabi/12.2.1/../../../../arm-none-eabi/lib/thumb/v7e-m/nofp/libc_nano.a(libc_a-puts.o)
 .bss           0x0000000000000000        0x0 /opt/arm-none-eabi/bin/../lib/gcc/arm-none-eabi/12.2.1/../../../../arm-none-eabi/lib/thumb/v7e-m/nofp/libc_nano.a(libc_a-puts.o)
 .text          0x0000000000000000        0x0 /opt/arm-none-eabi/bin/../lib/gcc/arm-none-eabi/12.2.1/../../../../arm-none-eabi/lib/thumb/v7e-m/nofp/libc_nano.a(libc_a-sprintf.o)
 .data          0x0000000000000000        0x0 /opt/arm-none-eabi/bin/../lib/gcc/arm-none-eabi/12.2.1/../../../../arm-none-eabi/lib/thumb/v7e-m/nofp/libc_nano.a(libc_a-sprintf.o)
 .bss           0x0000000000000000        0x0 /opt/arm-none-eabi/bin/../lib/gcc/arm-none-eabi/12.2.1/../../../../arm-none-eabi/lib/thumb/v7e-m/nofp/libc_nano.a(libc_a-sprintf.o)
 .text._sprintf_r
                0x0000000000000000       0x38 /opt/arm-none-eabi/bin/../lib/gcc/arm-none-eabi/12.2.1/../../../../arm-none-eabi/lib/thumb/v7e-m/nofp/libc_nano.a(libc_a-sprintf.o)
 .text          0x0000000000000000        0x0 /opt/arm-none-eabi/bin/../lib/gcc/arm-none-eabi/12.2.1/../../../../arm-none-eabi/lib/thumb/v7e-m/nofp/libc_nano.a(libc_a-stdio.o)
 .data          0x0000000000000000        0x0 /opt/arm-none-eabi/bin/../lib/gcc/arm-none-eabi/12.2.1/../../../../arm-none-eabi/lib/thumb/v7e-m/nofp/libc_nano.a(libc_a-stdio.o)
 .bss           0x0000000000000000        0x0 /opt/arm-none-eabi/bin/../lib/gcc/arm-none-eabi/12.2.1/../../../../arm-none-eabi/lib/thumb/v7e-m/nofp/libc_nano.a(libc_a-stdio.o)
 .text.__seofread
                0x0000000000000000        0x4 /opt/arm-none-eabi/bin/../lib/gcc/arm-none-eabi/12.2.1/../../../../arm-none-eabi/lib/thumb/v7e-m/nofp/libc_nano.a(libc_a-stdio.o)
 .text          0x0000000000000000        0x0 /opt/arm-none-eabi/bin/../lib/gcc/arm-none-eabi/12.2.1/../../../../arm-none-eabi/lib/thumb/v7e-m/nofp/libc_nano.a(libc_a-wbuf.o)
 .data          0x0000000000000000        0x0 /opt/arm-none-eabi/bin/../lib/gcc/arm-none-eabi/12.2.1/../../../../arm-none-eabi/lib/thumb/v7e-m/nofp/libc_nano.a(libc_a-wbuf.o)
 .bss           0x0000000000000000        0x0 /opt/arm-none-eabi/bin/../lib/gcc/arm-none-eabi/12.2.1/../../../../arm-none-eabi/lib/thumb/v7e-m/nofp/libc_nano.a(libc_a-wbuf.o)
 .text.__swbuf  0x0000000000000000       0x10 /opt/arm-none-eabi/bin/../lib/gcc/arm-none-eabi/12.2.1/../../../../arm-none-eabi/lib/thumb/v7e-m/nofp/libc_nano.a(libc_a-wbuf.o)
 .text          0x0000000000000000        0x0 /opt/arm-none-eabi/bin/../lib/gcc/arm-none-eabi/12.2.1/../../../../arm-none-eabi/lib/thumb/v7e-m/nofp/libc_nano.a(libc_a-wsetup.o)
 .data          0x0000000000000000        0x0 /opt/arm-none-eabi/bin/../lib/gcc/arm-none-eabi/12.2.1/../../../../arm-none-eabi/lib/thumb/v7e-m/nofp/libc_nano.a(libc_a-wsetup.o)
 .bss           0x0000000000000000        0x0 /opt/arm-none-eabi/bin/../lib/gcc/arm-none-eabi/12.2.1/../../../../arm-none-eabi/lib/thumb/v7e-m/nofp/libc_nano.a(libc_a-wsetup.o)
 .text          0x0000000000000000        0x0 /opt/arm-none-eabi/bin/../lib/gcc/arm-none-eabi/12.2.1/../../../../arm-none-eabi/lib/thumb/v7e-m/nofp/libc_nano.a(libc_a-memset.o)
 .data          0x0000000000000000        0x0 /opt/arm-none-eabi/bin/../lib/gcc/arm-none-eabi/12.2.1/../../../../arm-none-eabi/lib/thumb/v7e-m/nofp/libc_nano.a(libc_a-memset.o)
 .bss           0x0000000000000000        0x0 /opt/arm-none-eabi/bin/../lib/gcc/arm-none-eabi/12.2.1/../../../../arm-none-eabi/lib/thumb/v7e-m/nofp/libc_nano.a(libc_a-memset.o)
 .text          0x0000000000000000        0x0 /opt/arm-none-eabi/bin/../lib/gcc/arm-none-eabi/12.2.1/../../../../arm-none-eabi/lib/thumb/v7e-m/nofp/libc_nano.a(libc_a-localeconv.o)
 .data          0x0000000000000000        0x0 /opt/arm-none-eabi/bin/../lib/gcc/arm-none-eabi/12.2.1/../../../../arm-none-eabi/lib/thumb/v7e-m/nofp/libc_nano.a(libc_a-localeconv.o)
 .bss           0x0000000000000000        0x0 /opt/arm-none-eabi/bin/../lib/gcc/arm-none-eabi/12.2.1/../../../../arm-none-eabi/lib/thumb/v7e-m/nofp/libc_nano.a(libc_a-localeconv.o)
 .text.__localeconv_l
                0x0000000000000000        0x4 /opt/arm-none-eabi/bin/../lib/gcc/arm-none-eabi/12.2.1/../../../../arm-none-eabi/lib/thumb/v7e-m/nofp/libc_nano.a(libc_a-localeconv.o)
 .text.localeconv
                0x0000000000000000        0x8 /opt/arm-none-eabi/bin/../lib/gcc/arm-none-eabi/12.2.1/../../../../arm-none-eabi/lib/thumb/v7e-m/nofp/libc_nano.a(libc_a-localeconv.o)
 .text          0x0000000000000000        0x0 /opt/arm-none-eabi/bin/../lib/gcc/arm-none-eabi/12.2.1/../../../../arm-none-eabi/lib/thumb/v7e-m/nofp/libc_nano.a(libc_a-closer.o)
 .data          0x0000000000000000        0x0 /opt/arm-none-eabi/bin/../lib/gcc/arm-none-eabi/12.2.1/../../../../arm-none-eabi/lib/thumb/v7e-m/nofp/libc_nano.a(libc_a-closer.o)
 .bss           0x0000000000000000        0x0 /opt/arm-none-eabi/bin/../lib/gcc/arm-none-eabi/12.2.1/../../../../arm-none-eabi/lib/thumb/v7e-m/nofp/libc_nano.a(libc_a-closer.o)
 .text          0x0000000000000000        0x0 /opt/arm-none-eabi/bin/../lib/gcc/arm-none-eabi/12.2.1/../../../../arm-none-eabi/lib/thumb/v7e-m/nofp/libc_nano.a(libc_a-reent.o)
 .data          0x0000000000000000        0x0 /opt/arm-none-eabi/bin/../lib/gcc/arm-none-eabi/12.2.1/../../../../arm-none-eabi/lib/thumb/v7e-m/nofp/libc_nano.a(libc_a-reent.o)
 .bss           0x0000000000000000        0x0 /opt/arm-none-eabi/bin/../lib/gcc/arm-none-eabi/12.2.1/../../../../arm-none-eabi/lib/thumb/v7e-m/nofp/libc_nano.a(libc_a-reent.o)
 .text._reclaim_reent
                0x0000000000000000       0xac /opt/arm-none-eabi/bin/../lib/gcc/arm-none-eabi/12.2.1/../../../../arm-none-eabi/lib/thumb/v7e-m/nofp/libc_nano.a(libc_a-reent.o)
 .text          0x0000000000000000        0x0 /opt/arm-none-eabi/bin/../lib/gcc/arm-none-eabi/12.2.1/../../../../arm-none-eabi/lib/thumb/v7e-m/nofp/libc_nano.a(libc_a-impure.o)
 .data          0x0000000000000000        0x0 /opt/arm-none-eabi/bin/../lib/gcc/arm-none-eabi/12.2.1/../../../../arm-none-eabi/lib/thumb/v7e-m/nofp/libc_nano.a(libc_a-impure.o)
 .bss           0x0000000000000000        0x0 /opt/arm-none-eabi/bin/../lib/gcc/arm-none-eabi/12.2.1/../../../../arm-none-eabi/lib/thumb/v7e-m/nofp/libc_nano.a(libc_a-impure.o)
 .text          0x0000000000000000        0x0 /opt/arm-none-eabi/bin/../lib/gcc/arm-none-eabi/12.2.1/../../../../arm-none-eabi/lib/thumb/v7e-m/nofp/libc_nano.a(libc_a-lseekr.o)
 .data          0x0000000000000000        0x0 /opt/arm-none-eabi/bin/../lib/gcc/arm-none-eabi/12.2.1/../../../../arm-none-eabi/lib/thumb/v7e-m/nofp/libc_nano.a(libc_a-lseekr.o)
 .bss           0x0000000000000000        0x0 /opt/arm-none-eabi/bin/../lib/gcc/arm-none-eabi/12.2.1/../../../../arm-none-eabi/lib/thumb/v7e-m/nofp/libc_nano.a(libc_a-lseekr.o)
 .text          0x0000000000000000        0x0 /opt/arm-none-eabi/bin/../lib/gcc/arm-none-eabi/12.2.1/../../../../arm-none-eabi/lib/thumb/v7e-m/nofp/libc_nano.a(libc_a-readr.o)
 .data          0x0000000000000000        0x0 /opt/arm-none-eabi/bin/../lib/gcc/arm-none-eabi/12.2.1/../../../../arm-none-eabi/lib/thumb/v7e-m/nofp/libc_nano.a(libc_a-readr.o)
 .bss           0x0000000000000000        0x0 /opt/arm-none-eabi/bin/../lib/gcc/arm-none-eabi/12.2.1/../../../../arm-none-eabi/lib/thumb/v7e-m/nofp/libc_nano.a(libc_a-readr.o)
 .text          0x0000000000000000        0x0 /opt/arm-none-eabi/bin/../lib/gcc/arm-none-eabi/12.2.1/../../../../arm-none-eabi/lib/thumb/v7e-m/nofp/libc_nano.a(libc_a-writer.o)
 .data          0x0000000000000000        0x0 /opt/arm-none-eabi/bin/../lib/gcc/arm-none-eabi/12.2.1/../../../../arm-none-eabi/lib/thumb/v7e-m/nofp/libc_nano.a(libc_a-writer.o)
 .bss           0x0000000000000000        0x0 /opt/arm-none-eabi/bin/../lib/gcc/arm-none-eabi/12.2.1/../../../../arm-none-eabi/lib/thumb/v7e-m/nofp/libc_nano.a(libc_a-writer.o)
 .text          0x0000000000000000        0x0 /opt/arm-none-eabi/bin/../lib/gcc/arm-none-eabi/12.2.1/../../../../arm-none-eabi/lib/thumb/v7e-m/nofp/libc_nano.a(libc_a-init.o)
 .data          0x0000000000000000        0x0 /opt/arm-none-eabi/bin/../lib/gcc/arm-none-eabi/12.2.1/../../../../arm-none-eabi/lib/thumb/v7e-m/nofp/libc_nano.a(libc_a-init.o)
 .bss           0x0000000000000000        0x0 /opt/arm-none-eabi/bin/../lib/gcc/arm-none-eabi/12.2.1/../../../../arm-none-eabi/lib/thumb/v7e-m/nofp/libc_nano.a(libc_a-init.o)
 .text          0x0000000000000000        0x0 /opt/arm-none-eabi/bin/../lib/gcc/arm-none-eabi/12.2.1/../../../../arm-none-eabi/lib/thumb/v7e-m/nofp/libc_nano.a(libc_a-fini.o)
 .data          0x0000000000000000        0x0 /opt/arm-none-eabi/bin/../lib/gcc/arm-none-eabi/12.2.1/../../../../arm-none-eabi/lib/thumb/v7e-m/nofp/libc_nano.a(libc_a-fini.o)
 .bss           0x0000000000000000        0x0 /opt/arm-none-eabi/bin/../lib/gcc/arm-none-eabi/12.2.1/../../../../arm-none-eabi/lib/thumb/v7e-m/nofp/libc_nano.a(libc_a-fini.o)
 .text.__libc_fini_array
                0x0000000000000000       0x28 /opt/arm-none-eabi/bin/../lib/gcc/arm-none-eabi/12.2.1/../../../../arm-none-eabi/lib/thumb/v7e-m/nofp/libc_nano.a(libc_a-fini.o)
 .comment       0x0000000000000000       0x3a /opt/arm-none-eabi/bin/../lib/gcc/arm-none-eabi/12.2.1/../../../../arm-none-eabi/lib/thumb/v7e-m/nofp/libc_nano.a(libc_a-fini.o)
 .ARM.attributes
                0x0000000000000000       0x2e /opt/arm-none-eabi/bin/../lib/gcc/arm-none-eabi/12.2.1/../../../../arm-none-eabi/lib/thumb/v7e-m/nofp/libc_nano.a(libc_a-fini.o)
 .text          0x0000000000000000        0x0 /opt/arm-none-eabi/bin/../lib/gcc/arm-none-eabi/12.2.1/../../../../arm-none-eabi/lib/thumb/v7e-m/nofp/libc_nano.a(libc_a-lock.o)
 .data          0x0000000000000000        0x0 /opt/arm-none-eabi/bin/../lib/gcc/arm-none-eabi/12.2.1/../../../../arm-none-eabi/lib/thumb/v7e-m/nofp/libc_nano.a(libc_a-lock.o)
 .bss           0x0000000000000000        0x0 /opt/arm-none-eabi/bin/../lib/gcc/arm-none-eabi/12.2.1/../../../../arm-none-eabi/lib/thumb/v7e-m/nofp/libc_nano.a(libc_a-lock.o)
 .text.__retarget_lock_init
                0x0000000000000000        0x2 /opt/arm-none-eabi/bin/../lib/gcc/arm-none-eabi/12.2.1/../../../../arm-none-eabi/lib/thumb/v7e-m/nofp/libc_nano.a(libc_a-lock.o)
 .text.__retarget_lock_close
                0x0000000000000000        0x2 /opt/arm-none-eabi/bin/../lib/gcc/arm-none-eabi/12.2.1/../../../../arm-none-eabi/lib/thumb/v7e-m/nofp/libc_nano.a(libc_a-lock.o)
 .text.__retarget_lock_close_recursive
                0x0000000000000000        0x2 /opt/arm-none-eabi/bin/../lib/gcc/arm-none-eabi/12.2.1/../../../../arm-none-eabi/lib/thumb/v7e-m/nofp/libc_nano.a(libc_a-lock.o)
 .text.__retarget_lock_acquire
                0x0000000000000000        0x2 /opt/arm-none-eabi/bin/../lib/gcc/arm-none-eabi/12.2.1/../../../../arm-none-eabi/lib/thumb/v7e-m/nofp/libc_nano.a(libc_a-lock.o)
 .text.__retarget_lock_try_acquire
                0x0000000000000000        0x4 /opt/arm-none-eabi/bin/../lib/gcc/arm-none-eabi/12.2.1/../../../../arm-none-eabi/lib/thumb/v7e-m/nofp/libc_nano.a(libc_a-lock.o)
 .text.__retarget_lock_try_acquire_recursive
                0x0000000000000000        0x4 /opt/arm-none-eabi/bin/../lib/gcc/arm-none-eabi/12.2.1/../../../../arm-none-eabi/lib/thumb/v7e-m/nofp/libc_nano.a(libc_a-lock.o)
 .text.__retarget_lock_release
                0x0000000000000000        0x2 /opt/arm-none-eabi/bin/../lib/gcc/arm-none-eabi/12.2.1/../../../../arm-none-eabi/lib/thumb/v7e-m/nofp/libc_nano.a(libc_a-lock.o)
 .bss.__lock___arc4random_mutex
                0x0000000000000000        0x1 /opt/arm-none-eabi/bin/../lib/gcc/arm-none-eabi/12.2.1/../../../../arm-none-eabi/lib/thumb/v7e-m/nofp/libc_nano.a(libc_a-lock.o)
 .bss.__lock___dd_hash_mutex
                0x0000000000000000        0x1 /opt/arm-none-eabi/bin/../lib/gcc/arm-none-eabi/12.2.1/../../../../arm-none-eabi/lib/thumb/v7e-m/nofp/libc_nano.a(libc_a-lock.o)
 .bss.__lock___tz_mutex
                0x0000000000000000        0x1 /opt/arm-none-eabi/bin/../lib/gcc/arm-none-eabi/12.2.1/../../../../arm-none-eabi/lib/thumb/v7e-m/nofp/libc_nano.a(libc_a-lock.o)
 .bss.__lock___env_recursive_mutex
                0x0000000000000000        0x1 /opt/arm-none-eabi/bin/../lib/gcc/arm-none-eabi/12.2.1/../../../../arm-none-eabi/lib/thumb/v7e-m/nofp/libc_nano.a(libc_a-lock.o)
 .bss.__lock___at_quick_exit_mutex
                0x0000000000000000        0x1 /opt/arm-none-eabi/bin/../lib/gcc/arm-none-eabi/12.2.1/../../../../arm-none-eabi/lib/thumb/v7e-m/nofp/libc_nano.a(libc_a-lock.o)
 .bss.__lock___atexit_recursive_mutex
                0x0000000000000000        0x1 /opt/arm-none-eabi/bin/../lib/gcc/arm-none-eabi/12.2.1/../../../../arm-none-eabi/lib/thumb/v7e-m/nofp/libc_nano.a(libc_a-lock.o)
 .data          0x0000000000000000        0x0 /opt/arm-none-eabi/bin/../lib/gcc/arm-none-eabi/12.2.1/../../../../arm-none-eabi/lib/thumb/v7e-m/nofp/libc_nano.a(libc_a-memchr.o)
 .bss           0x0000000000000000        0x0 /opt/arm-none-eabi/bin/../lib/gcc/arm-none-eabi/12.2.1/../../../../arm-none-eabi/lib/thumb/v7e-m/nofp/libc_nano.a(libc_a-memchr.o)
 .data          0x0000000000000000        0x0 /opt/arm-none-eabi/bin/../lib/gcc/arm-none-eabi/12.2.1/../../../../arm-none-eabi/lib/thumb/v7e-m/nofp/libc_nano.a(libc_a-strlen.o)
 .bss           0x0000000000000000        0x0 /opt/arm-none-eabi/bin/../lib/gcc/arm-none-eabi/12.2.1/../../../../arm-none-eabi/lib/thumb/v7e-m/nofp/libc_nano.a(libc_a-strlen.o)
 .text          0x0000000000000000        0x0 /opt/arm-none-eabi/bin/../lib/gcc/arm-none-eabi/12.2.1/../../../../arm-none-eabi/lib/thumb/v7e-m/nofp/libc_nano.a(libc_a-__atexit.o)
 .data          0x0000000000000000        0x0 /opt/arm-none-eabi/bin/../lib/gcc/arm-none-eabi/12.2.1/../../../../arm-none-eabi/lib/thumb/v7e-m/nofp/libc_nano.a(libc_a-__atexit.o)
 .bss           0x0000000000000000        0x0 /opt/arm-none-eabi/bin/../lib/gcc/arm-none-eabi/12.2.1/../../../../arm-none-eabi/lib/thumb/v7e-m/nofp/libc_nano.a(libc_a-__atexit.o)
 .text.__register_exitproc
                0x0000000000000000       0xb8 /opt/arm-none-eabi/bin/../lib/gcc/arm-none-eabi/12.2.1/../../../../arm-none-eabi/lib/thumb/v7e-m/nofp/libc_nano.a(libc_a-__atexit.o)
 .bss.__atexit0
                0x0000000000000000       0x8c /opt/arm-none-eabi/bin/../lib/gcc/arm-none-eabi/12.2.1/../../../../arm-none-eabi/lib/thumb/v7e-m/nofp/libc_nano.a(libc_a-__atexit.o)
 .data.__atexit_dummy
                0x0000000000000000        0x4 /opt/arm-none-eabi/bin/../lib/gcc/arm-none-eabi/12.2.1/../../../../arm-none-eabi/lib/thumb/v7e-m/nofp/libc_nano.a(libc_a-__atexit.o)
 .comment       0x0000000000000000       0x3a /opt/arm-none-eabi/bin/../lib/gcc/arm-none-eabi/12.2.1/../../../../arm-none-eabi/lib/thumb/v7e-m/nofp/libc_nano.a(libc_a-__atexit.o)
 .ARM.attributes
                0x0000000000000000       0x2e /opt/arm-none-eabi/bin/../lib/gcc/arm-none-eabi/12.2.1/../../../../arm-none-eabi/lib/thumb/v7e-m/nofp/libc_nano.a(libc_a-__atexit.o)
 .text          0x0000000000000000        0x0 /opt/arm-none-eabi/bin/../lib/gcc/arm-none-eabi/12.2.1/../../../../arm-none-eabi/lib/thumb/v7e-m/nofp/libc_nano.a(libc_a-__call_atexit.o)
 .data          0x0000000000000000        0x0 /opt/arm-none-eabi/bin/../lib/gcc/arm-none-eabi/12.2.1/../../../../arm-none-eabi/lib/thumb/v7e-m/nofp/libc_nano.a(libc_a-__call_atexit.o)
 .bss           0x0000000000000000        0x0 /opt/arm-none-eabi/bin/../lib/gcc/arm-none-eabi/12.2.1/../../../../arm-none-eabi/lib/thumb/v7e-m/nofp/libc_nano.a(libc_a-__call_atexit.o)
 .text.__call_exitprocs
                0x0000000000000000       0xc8 /opt/arm-none-eabi/bin/../lib/gcc/arm-none-eabi/12.2.1/../../../../arm-none-eabi/lib/thumb/v7e-m/nofp/libc_nano.a(libc_a-__call_atexit.o)
 .bss.__atexit  0x0000000000000000        0x4 /opt/arm-none-eabi/bin/../lib/gcc/arm-none-eabi/12.2.1/../../../../arm-none-eabi/lib/thumb/v7e-m/nofp/libc_nano.a(libc_a-__call_atexit.o)
 .data.__atexit_recursive_mutex
                0x0000000000000000        0x4 /opt/arm-none-eabi/bin/../lib/gcc/arm-none-eabi/12.2.1/../../../../arm-none-eabi/lib/thumb/v7e-m/nofp/libc_nano.a(libc_a-__call_atexit.o)
 .comment       0x0000000000000000       0x3a /opt/arm-none-eabi/bin/../lib/gcc/arm-none-eabi/12.2.1/../../../../arm-none-eabi/lib/thumb/v7e-m/nofp/libc_nano.a(libc_a-__call_atexit.o)
 .ARM.attributes
                0x0000000000000000       0x2e /opt/arm-none-eabi/bin/../lib/gcc/arm-none-eabi/12.2.1/../../../../arm-none-eabi/lib/thumb/v7e-m/nofp/libc_nano.a(libc_a-__call_atexit.o)
 .text          0x0000000000000000        0x0 /opt/arm-none-eabi/bin/../lib/gcc/arm-none-eabi/12.2.1/../../../../arm-none-eabi/lib/thumb/v7e-m/nofp/libc_nano.a(libc_a-dtoa.o)
 .data          0x0000000000000000        0x0 /opt/arm-none-eabi/bin/../lib/gcc/arm-none-eabi/12.2.1/../../../../arm-none-eabi/lib/thumb/v7e-m/nofp/libc_nano.a(libc_a-dtoa.o)
 .bss           0x0000000000000000        0x0 /opt/arm-none-eabi/bin/../lib/gcc/arm-none-eabi/12.2.1/../../../../arm-none-eabi/lib/thumb/v7e-m/nofp/libc_nano.a(libc_a-dtoa.o)
 .text          0x0000000000000000        0x0 /opt/arm-none-eabi/bin/../lib/gcc/arm-none-eabi/12.2.1/../../../../arm-none-eabi/lib/thumb/v7e-m/nofp/libc_nano.a(libc_a-freer.o)
 .data          0x0000000000000000        0x0 /opt/arm-none-eabi/bin/../lib/gcc/arm-none-eabi/12.2.1/../../../../arm-none-eabi/lib/thumb/v7e-m/nofp/libc_nano.a(libc_a-freer.o)
 .bss           0x0000000000000000        0x0 /opt/arm-none-eabi/bin/../lib/gcc/arm-none-eabi/12.2.1/../../../../arm-none-eabi/lib/thumb/v7e-m/nofp/libc_nano.a(libc_a-freer.o)
 .text          0x0000000000000000        0x0 /opt/arm-none-eabi/bin/../lib/gcc/arm-none-eabi/12.2.1/../../../../arm-none-eabi/lib/thumb/v7e-m/nofp/libc_nano.a(libc_a-malloc.o)
 .data          0x0000000000000000        0x0 /opt/arm-none-eabi/bin/../lib/gcc/arm-none-eabi/12.2.1/../../../../arm-none-eabi/lib/thumb/v7e-m/nofp/libc_nano.a(libc_a-malloc.o)
 .bss           0x0000000000000000        0x0 /opt/arm-none-eabi/bin/../lib/gcc/arm-none-eabi/12.2.1/../../../../arm-none-eabi/lib/thumb/v7e-m/nofp/libc_nano.a(libc_a-malloc.o)
 .text.free     0x0000000000000000       0x10 /opt/arm-none-eabi/bin/../lib/gcc/arm-none-eabi/12.2.1/../../../../arm-none-eabi/lib/thumb/v7e-m/nofp/libc_nano.a(libc_a-malloc.o)
 .text          0x0000000000000000        0x0 /opt/arm-none-eabi/bin/../lib/gcc/arm-none-eabi/12.2.1/../../../../arm-none-eabi/lib/thumb/v7e-m/nofp/libc_nano.a(libc_a-mallocr.o)
 .data          0x0000000000000000        0x0 /opt/arm-none-eabi/bin/../lib/gcc/arm-none-eabi/12.2.1/../../../../arm-none-eabi/lib/thumb/v7e-m/nofp/libc_nano.a(libc_a-mallocr.o)
 .bss           0x0000000000000000        0x0 /opt/arm-none-eabi/bin/../lib/gcc/arm-none-eabi/12.2.1/../../../../arm-none-eabi/lib/thumb/v7e-m/nofp/libc_nano.a(libc_a-mallocr.o)
 .text          0x0000000000000000        0x0 /opt/arm-none-eabi/bin/../lib/gcc/arm-none-eabi/12.2.1/../../../../arm-none-eabi/lib/thumb/v7e-m/nofp/libc_nano.a(libc_a-mlock.o)
 .data          0x0000000000000000        0x0 /opt/arm-none-eabi/bin/../lib/gcc/arm-none-eabi/12.2.1/../../../../arm-none-eabi/lib/thumb/v7e-m/nofp/libc_nano.a(libc_a-mlock.o)
 .bss           0x0000000000000000        0x0 /opt/arm-none-eabi/bin/../lib/gcc/arm-none-eabi/12.2.1/../../../../arm-none-eabi/lib/thumb/v7e-m/nofp/libc_nano.a(libc_a-mlock.o)
 .text          0x0000000000000000        0x0 /opt/arm-none-eabi/bin/../lib/gcc/arm-none-eabi/12.2.1/../../../../arm-none-eabi/lib/thumb/v7e-m/nofp/libc_nano.a(libc_a-mprec.o)
 .data          0x0000000000000000        0x0 /opt/arm-none-eabi/bin/../lib/gcc/arm-none-eabi/12.2.1/../../../../arm-none-eabi/lib/thumb/v7e-m/nofp/libc_nano.a(libc_a-mprec.o)
 .bss           0x0000000000000000        0x0 /opt/arm-none-eabi/bin/../lib/gcc/arm-none-eabi/12.2.1/../../../../arm-none-eabi/lib/thumb/v7e-m/nofp/libc_nano.a(libc_a-mprec.o)
 .text.__s2b    0x0000000000000000       0x94 /opt/arm-none-eabi/bin/../lib/gcc/arm-none-eabi/12.2.1/../../../../arm-none-eabi/lib/thumb/v7e-m/nofp/libc_nano.a(libc_a-mprec.o)
 .text.__ulp    0x0000000000000000       0x40 /opt/arm-none-eabi/bin/../lib/gcc/arm-none-eabi/12.2.1/../../../../arm-none-eabi/lib/thumb/v7e-m/nofp/libc_nano.a(libc_a-mprec.o)
 .text.__b2d    0x0000000000000000       0x94 /opt/arm-none-eabi/bin/../lib/gcc/arm-none-eabi/12.2.1/../../../../arm-none-eabi/lib/thumb/v7e-m/nofp/libc_nano.a(libc_a-mprec.o)
 .text.__ratio  0x0000000000000000       0x60 /opt/arm-none-eabi/bin/../lib/gcc/arm-none-eabi/12.2.1/../../../../arm-none-eabi/lib/thumb/v7e-m/nofp/libc_nano.a(libc_a-mprec.o)
 .text._mprec_log10
                0x0000000000000000       0x38 /opt/arm-none-eabi/bin/../lib/gcc/arm-none-eabi/12.2.1/../../../../arm-none-eabi/lib/thumb/v7e-m/nofp/libc_nano.a(libc_a-mprec.o)
 .text.__copybits
                0x0000000000000000       0x46 /opt/arm-none-eabi/bin/../lib/gcc/arm-none-eabi/12.2.1/../../../../arm-none-eabi/lib/thumb/v7e-m/nofp/libc_nano.a(libc_a-mprec.o)
 .text.__any_on
                0x0000000000000000       0x42 /opt/arm-none-eabi/bin/../lib/gcc/arm-none-eabi/12.2.1/../../../../arm-none-eabi/lib/thumb/v7e-m/nofp/libc_nano.a(libc_a-mprec.o)
 .rodata.__mprec_tinytens
                0x0000000000000000       0x28 /opt/arm-none-eabi/bin/../lib/gcc/arm-none-eabi/12.2.1/../../../../arm-none-eabi/lib/thumb/v7e-m/nofp/libc_nano.a(libc_a-mprec.o)
 .text          0x0000000000000000        0x0 /opt/arm-none-eabi/bin/../lib/gcc/arm-none-eabi/12.2.1/../../../../arm-none-eabi/lib/thumb/v7e-m/nofp/libc_nano.a(libc_a-nano-svfprintf.o)
 .data          0x0000000000000000        0x0 /opt/arm-none-eabi/bin/../lib/gcc/arm-none-eabi/12.2.1/../../../../arm-none-eabi/lib/thumb/v7e-m/nofp/libc_nano.a(libc_a-nano-svfprintf.o)
 .bss           0x0000000000000000        0x0 /opt/arm-none-eabi/bin/../lib/gcc/arm-none-eabi/12.2.1/../../../../arm-none-eabi/lib/thumb/v7e-m/nofp/libc_nano.a(libc_a-nano-svfprintf.o)
 .text.__ssprint_r
                0x0000000000000000       0xfa /opt/arm-none-eabi/bin/../lib/gcc/arm-none-eabi/12.2.1/../../../../arm-none-eabi/lib/thumb/v7e-m/nofp/libc_nano.a(libc_a-nano-svfprintf.o)
 .text          0x0000000000000000        0x0 /opt/arm-none-eabi/bin/../lib/gcc/arm-none-eabi/12.2.1/../../../../arm-none-eabi/lib/thumb/v7e-m/nofp/libc_nano.a(libc_a-nano-vfprintf.o)
 .data          0x0000000000000000        0x0 /opt/arm-none-eabi/bin/../lib/gcc/arm-none-eabi/12.2.1/../../../../arm-none-eabi/lib/thumb/v7e-m/nofp/libc_nano.a(libc_a-nano-vfprintf.o)
 .bss           0x0000000000000000        0x0 /opt/arm-none-eabi/bin/../lib/gcc/arm-none-eabi/12.2.1/../../../../arm-none-eabi/lib/thumb/v7e-m/nofp/libc_nano.a(libc_a-nano-vfprintf.o)
 .text.__sprint_r
                0x0000000000000000       0x1a /opt/arm-none-eabi/bin/../lib/gcc/arm-none-eabi/12.2.1/../../../../arm-none-eabi/lib/thumb/v7e-m/nofp/libc_nano.a(libc_a-nano-vfprintf.o)
 .text.vfprintf
                0x0000000000000000       0x14 /opt/arm-none-eabi/bin/../lib/gcc/arm-none-eabi/12.2.1/../../../../arm-none-eabi/lib/thumb/v7e-m/nofp/libc_nano.a(libc_a-nano-vfprintf.o)
 .text          0x0000000000000000        0x0 /opt/arm-none-eabi/bin/../lib/gcc/arm-none-eabi/12.2.1/../../../../arm-none-eabi/lib/thumb/v7e-m/nofp/libc_nano.a(libc_a-fflush.o)
 .data          0x0000000000000000        0x0 /opt/arm-none-eabi/bin/../lib/gcc/arm-none-eabi/12.2.1/../../../../arm-none-eabi/lib/thumb/v7e-m/nofp/libc_nano.a(libc_a-fflush.o)
 .bss           0x0000000000000000        0x0 /opt/arm-none-eabi/bin/../lib/gcc/arm-none-eabi/12.2.1/../../../../arm-none-eabi/lib/thumb/v7e-m/nofp/libc_nano.a(libc_a-fflush.o)
 .text.fflush   0x0000000000000000       0x28 /opt/arm-none-eabi/bin/../lib/gcc/arm-none-eabi/12.2.1/../../../../arm-none-eabi/lib/thumb/v7e-m/nofp/libc_nano.a(libc_a-fflush.o)
 .text          0x0000000000000000        0x0 /opt/arm-none-eabi/bin/../lib/gcc/arm-none-eabi/12.2.1/../../../../arm-none-eabi/lib/thumb/v7e-m/nofp/libc_nano.a(libc_a-fvwrite.o)
 .data          0x0000000000000000        0x0 /opt/arm-none-eabi/bin/../lib/gcc/arm-none-eabi/12.2.1/../../../../arm-none-eabi/lib/thumb/v7e-m/nofp/libc_nano.a(libc_a-fvwrite.o)
 .bss           0x0000000000000000        0x0 /opt/arm-none-eabi/bin/../lib/gcc/arm-none-eabi/12.2.1/../../../../arm-none-eabi/lib/thumb/v7e-m/nofp/libc_nano.a(libc_a-fvwrite.o)
 .text.__sfvwrite_r
                0x0000000000000000      0x2a0 /opt/arm-none-eabi/bin/../lib/gcc/arm-none-eabi/12.2.1/../../../../arm-none-eabi/lib/thumb/v7e-m/nofp/libc_nano.a(libc_a-fvwrite.o)
 .comment       0x0000000000000000       0x3a /opt/arm-none-eabi/bin/../lib/gcc/arm-none-eabi/12.2.1/../../../../arm-none-eabi/lib/thumb/v7e-m/nofp/libc_nano.a(libc_a-fvwrite.o)
 .ARM.attributes
                0x0000000000000000       0x2e /opt/arm-none-eabi/bin/../lib/gcc/arm-none-eabi/12.2.1/../../../../arm-none-eabi/lib/thumb/v7e-m/nofp/libc_nano.a(libc_a-fvwrite.o)
 .text          0x0000000000000000        0x0 /opt/arm-none-eabi/bin/../lib/gcc/arm-none-eabi/12.2.1/../../../../arm-none-eabi/lib/thumb/v7e-m/nofp/libc_nano.a(libc_a-makebuf.o)
 .data          0x0000000000000000        0x0 /opt/arm-none-eabi/bin/../lib/gcc/arm-none-eabi/12.2.1/../../../../arm-none-eabi/lib/thumb/v7e-m/nofp/libc_nano.a(libc_a-makebuf.o)
 .bss           0x0000000000000000        0x0 /opt/arm-none-eabi/bin/../lib/gcc/arm-none-eabi/12.2.1/../../../../arm-none-eabi/lib/thumb/v7e-m/nofp/libc_nano.a(libc_a-makebuf.o)
 .text          0x0000000000000000        0x0 /opt/arm-none-eabi/bin/../lib/gcc/arm-none-eabi/12.2.1/../../../../arm-none-eabi/lib/thumb/v7e-m/nofp/libc_nano.a(libc_a-memmove.o)
 .data          0x0000000000000000        0x0 /opt/arm-none-eabi/bin/../lib/gcc/arm-none-eabi/12.2.1/../../../../arm-none-eabi/lib/thumb/v7e-m/nofp/libc_nano.a(libc_a-memmove.o)
 .bss           0x0000000000000000        0x0 /opt/arm-none-eabi/bin/../lib/gcc/arm-none-eabi/12.2.1/../../../../arm-none-eabi/lib/thumb/v7e-m/nofp/libc_nano.a(libc_a-memmove.o)
 .text          0x0000000000000000        0x0 /opt/arm-none-eabi/bin/../lib/gcc/arm-none-eabi/12.2.1/../../../../arm-none-eabi/lib/thumb/v7e-m/nofp/libc_nano.a(libc_a-locale.o)
 .data          0x0000000000000000        0x0 /opt/arm-none-eabi/bin/../lib/gcc/arm-none-eabi/12.2.1/../../../../arm-none-eabi/lib/thumb/v7e-m/nofp/libc_nano.a(libc_a-locale.o)
 .bss           0x0000000000000000        0x0 /opt/arm-none-eabi/bin/../lib/gcc/arm-none-eabi/12.2.1/../../../../arm-none-eabi/lib/thumb/v7e-m/nofp/libc_nano.a(libc_a-locale.o)
 .text._setlocale_r
                0x0000000000000000       0x3c /opt/arm-none-eabi/bin/../lib/gcc/arm-none-eabi/12.2.1/../../../../arm-none-eabi/lib/thumb/v7e-m/nofp/libc_nano.a(libc_a-locale.o)
 .text.__locale_mb_cur_max
                0x0000000000000000        0xc /opt/arm-none-eabi/bin/../lib/gcc/arm-none-eabi/12.2.1/../../../../arm-none-eabi/lib/thumb/v7e-m/nofp/libc_nano.a(libc_a-locale.o)
 .text.setlocale
                0x0000000000000000       0x10 /opt/arm-none-eabi/bin/../lib/gcc/arm-none-eabi/12.2.1/../../../../arm-none-eabi/lib/thumb/v7e-m/nofp/libc_nano.a(libc_a-locale.o)
 .bss._PathLocale
                0x0000000000000000        0x4 /opt/arm-none-eabi/bin/../lib/gcc/arm-none-eabi/12.2.1/../../../../arm-none-eabi/lib/thumb/v7e-m/nofp/libc_nano.a(libc_a-locale.o)
 .text          0x0000000000000000        0x0 /opt/arm-none-eabi/bin/../lib/gcc/arm-none-eabi/12.2.1/../../../../arm-none-eabi/lib/thumb/v7e-m/nofp/libc_nano.a(libc_a-fstatr.o)
 .data          0x0000000000000000        0x0 /opt/arm-none-eabi/bin/../lib/gcc/arm-none-eabi/12.2.1/../../../../arm-none-eabi/lib/thumb/v7e-m/nofp/libc_nano.a(libc_a-fstatr.o)
 .bss           0x0000000000000000        0x0 /opt/arm-none-eabi/bin/../lib/gcc/arm-none-eabi/12.2.1/../../../../arm-none-eabi/lib/thumb/v7e-m/nofp/libc_nano.a(libc_a-fstatr.o)
 .text          0x0000000000000000        0x0 /opt/arm-none-eabi/bin/../lib/gcc/arm-none-eabi/12.2.1/../../../../arm-none-eabi/lib/thumb/v7e-m/nofp/libc_nano.a(libc_a-isattyr.o)
 .data          0x0000000000000000        0x0 /opt/arm-none-eabi/bin/../lib/gcc/arm-none-eabi/12.2.1/../../../../arm-none-eabi/lib/thumb/v7e-m/nofp/libc_nano.a(libc_a-isattyr.o)
 .bss           0x0000000000000000        0x0 /opt/arm-none-eabi/bin/../lib/gcc/arm-none-eabi/12.2.1/../../../../arm-none-eabi/lib/thumb/v7e-m/nofp/libc_nano.a(libc_a-isattyr.o)
 .text          0x0000000000000000        0x0 /opt/arm-none-eabi/bin/../lib/gcc/arm-none-eabi/12.2.1/../../../../arm-none-eabi/lib/thumb/v7e-m/nofp/libc_nano.a(libc_a-sbrkr.o)
 .data          0x0000000000000000        0x0 /opt/arm-none-eabi/bin/../lib/gcc/arm-none-eabi/12.2.1/../../../../arm-none-eabi/lib/thumb/v7e-m/nofp/libc_nano.a(libc_a-sbrkr.o)
 .bss           0x0000000000000000        0x0 /opt/arm-none-eabi/bin/../lib/gcc/arm-none-eabi/12.2.1/../../../../arm-none-eabi/lib/thumb/v7e-m/nofp/libc_nano.a(libc_a-sbrkr.o)
 .text          0x0000000000000000       0x14 /opt/arm-none-eabi/bin/../lib/gcc/arm-none-eabi/12.2.1/../../../../arm-none-eabi/lib/thumb/v7e-m/nofp/libc_nano.a(libc_a-strcmp.o)
 .data          0x0000000000000000        0x0 /opt/arm-none-eabi/bin/../lib/gcc/arm-none-eabi/12.2.1/../../../../arm-none-eabi/lib/thumb/v7e-m/nofp/libc_nano.a(libc_a-strcmp.o)
 .bss           0x0000000000000000        0x0 /opt/arm-none-eabi/bin/../lib/gcc/arm-none-eabi/12.2.1/../../../../arm-none-eabi/lib/thumb/v7e-m/nofp/libc_nano.a(libc_a-strcmp.o)
 .ARM.attributes
                0x0000000000000000       0x1c /opt/arm-none-eabi/bin/../lib/gcc/arm-none-eabi/12.2.1/../../../../arm-none-eabi/lib/thumb/v7e-m/nofp/libc_nano.a(libc_a-strcmp.o)
 .text          0x0000000000000000        0x0 /opt/arm-none-eabi/bin/../lib/gcc/arm-none-eabi/12.2.1/../../../../arm-none-eabi/lib/thumb/v7e-m/nofp/libc_nano.a(libc_a-memcpy-stub.o)
 .data          0x0000000000000000        0x0 /opt/arm-none-eabi/bin/../lib/gcc/arm-none-eabi/12.2.1/../../../../arm-none-eabi/lib/thumb/v7e-m/nofp/libc_nano.a(libc_a-memcpy-stub.o)
 .bss           0x0000000000000000        0x0 /opt/arm-none-eabi/bin/../lib/gcc/arm-none-eabi/12.2.1/../../../../arm-none-eabi/lib/thumb/v7e-m/nofp/libc_nano.a(libc_a-memcpy-stub.o)
 .text          0x0000000000000000        0x0 /opt/arm-none-eabi/bin/../lib/gcc/arm-none-eabi/12.2.1/../../../../arm-none-eabi/lib/thumb/v7e-m/nofp/libc_nano.a(libc_a-assert.o)
 .data          0x0000000000000000        0x0 /opt/arm-none-eabi/bin/../lib/gcc/arm-none-eabi/12.2.1/../../../../arm-none-eabi/lib/thumb/v7e-m/nofp/libc_nano.a(libc_a-assert.o)
 .bss           0x0000000000000000        0x0 /opt/arm-none-eabi/bin/../lib/gcc/arm-none-eabi/12.2.1/../../../../arm-none-eabi/lib/thumb/v7e-m/nofp/libc_nano.a(libc_a-assert.o)
 .text.__assert
                0x0000000000000000        0xa /opt/arm-none-eabi/bin/../lib/gcc/arm-none-eabi/12.2.1/../../../../arm-none-eabi/lib/thumb/v7e-m/nofp/libc_nano.a(libc_a-assert.o)
 .text          0x0000000000000000        0x0 /opt/arm-none-eabi/bin/../lib/gcc/arm-none-eabi/12.2.1/../../../../arm-none-eabi/lib/thumb/v7e-m/nofp/libc_nano.a(libc_a-callocr.o)
 .data          0x0000000000000000        0x0 /opt/arm-none-eabi/bin/../lib/gcc/arm-none-eabi/12.2.1/../../../../arm-none-eabi/lib/thumb/v7e-m/nofp/libc_nano.a(libc_a-callocr.o)
 .bss           0x0000000000000000        0x0 /opt/arm-none-eabi/bin/../lib/gcc/arm-none-eabi/12.2.1/../../../../arm-none-eabi/lib/thumb/v7e-m/nofp/libc_nano.a(libc_a-callocr.o)
 .text          0x0000000000000000        0x0 /opt/arm-none-eabi/bin/../lib/gcc/arm-none-eabi/12.2.1/../../../../arm-none-eabi/lib/thumb/v7e-m/nofp/libc_nano.a(libc_a-mbtowc_r.o)
 .data          0x0000000000000000        0x0 /opt/arm-none-eabi/bin/../lib/gcc/arm-none-eabi/12.2.1/../../../../arm-none-eabi/lib/thumb/v7e-m/nofp/libc_nano.a(libc_a-mbtowc_r.o)
 .bss           0x0000000000000000        0x0 /opt/arm-none-eabi/bin/../lib/gcc/arm-none-eabi/12.2.1/../../../../arm-none-eabi/lib/thumb/v7e-m/nofp/libc_nano.a(libc_a-mbtowc_r.o)
 .text._mbtowc_r
                0x0000000000000000       0x14 /opt/arm-none-eabi/bin/../lib/gcc/arm-none-eabi/12.2.1/../../../../arm-none-eabi/lib/thumb/v7e-m/nofp/libc_nano.a(libc_a-mbtowc_r.o)
 .text          0x0000000000000000        0x0 /opt/arm-none-eabi/bin/../lib/gcc/arm-none-eabi/12.2.1/../../../../arm-none-eabi/lib/thumb/v7e-m/nofp/libc_nano.a(libc_a-reallocr.o)
 .data          0x0000000000000000        0x0 /opt/arm-none-eabi/bin/../lib/gcc/arm-none-eabi/12.2.1/../../../../arm-none-eabi/lib/thumb/v7e-m/nofp/libc_nano.a(libc_a-reallocr.o)
 .bss           0x0000000000000000        0x0 /opt/arm-none-eabi/bin/../lib/gcc/arm-none-eabi/12.2.1/../../../../arm-none-eabi/lib/thumb/v7e-m/nofp/libc_nano.a(libc_a-reallocr.o)
 .text          0x0000000000000000        0x0 /opt/arm-none-eabi/bin/../lib/gcc/arm-none-eabi/12.2.1/../../../../arm-none-eabi/lib/thumb/v7e-m/nofp/libc_nano.a(libc_a-wctomb_r.o)
 .data          0x0000000000000000        0x0 /opt/arm-none-eabi/bin/../lib/gcc/arm-none-eabi/12.2.1/../../../../arm-none-eabi/lib/thumb/v7e-m/nofp/libc_nano.a(libc_a-wctomb_r.o)
 .bss           0x0000000000000000        0x0 /opt/arm-none-eabi/bin/../lib/gcc/arm-none-eabi/12.2.1/../../../../arm-none-eabi/lib/thumb/v7e-m/nofp/libc_nano.a(libc_a-wctomb_r.o)
 .text._wctomb_r
                0x0000000000000000       0x14 /opt/arm-none-eabi/bin/../lib/gcc/arm-none-eabi/12.2.1/../../../../arm-none-eabi/lib/thumb/v7e-m/nofp/libc_nano.a(libc_a-wctomb_r.o)
 .text          0x0000000000000000        0x0 /opt/arm-none-eabi/bin/../lib/gcc/arm-none-eabi/12.2.1/../../../../arm-none-eabi/lib/thumb/v7e-m/nofp/libc_nano.a(libc_a-ctype_.o)
 .data          0x0000000000000000        0x0 /opt/arm-none-eabi/bin/../lib/gcc/arm-none-eabi/12.2.1/../../../../arm-none-eabi/lib/thumb/v7e-m/nofp/libc_nano.a(libc_a-ctype_.o)
 .bss           0x0000000000000000        0x0 /opt/arm-none-eabi/bin/../lib/gcc/arm-none-eabi/12.2.1/../../../../arm-none-eabi/lib/thumb/v7e-m/nofp/libc_nano.a(libc_a-ctype_.o)
 .text          0x0000000000000000        0x0 /opt/arm-none-eabi/bin/../lib/gcc/arm-none-eabi/12.2.1/../../../../arm-none-eabi/lib/thumb/v7e-m/nofp/libc_nano.a(libc_a-fprintf.o)
 .data          0x0000000000000000        0x0 /opt/arm-none-eabi/bin/../lib/gcc/arm-none-eabi/12.2.1/../../../../arm-none-eabi/lib/thumb/v7e-m/nofp/libc_nano.a(libc_a-fprintf.o)
 .bss           0x0000000000000000        0x0 /opt/arm-none-eabi/bin/../lib/gcc/arm-none-eabi/12.2.1/../../../../arm-none-eabi/lib/thumb/v7e-m/nofp/libc_nano.a(libc_a-fprintf.o)
 .text._fprintf_r
                0x0000000000000000       0x1a /opt/arm-none-eabi/bin/../lib/gcc/arm-none-eabi/12.2.1/../../../../arm-none-eabi/lib/thumb/v7e-m/nofp/libc_nano.a(libc_a-fprintf.o)
 .text          0x0000000000000000        0x0 /opt/arm-none-eabi/bin/../lib/gcc/arm-none-eabi/12.2.1/../../../../arm-none-eabi/lib/thumb/v7e-m/nofp/libc_nano.a(libc_a-abort.o)
 .data          0x0000000000000000        0x0 /opt/arm-none-eabi/bin/../lib/gcc/arm-none-eabi/12.2.1/../../../../arm-none-eabi/lib/thumb/v7e-m/nofp/libc_nano.a(libc_a-abort.o)
 .bss           0x0000000000000000        0x0 /opt/arm-none-eabi/bin/../lib/gcc/arm-none-eabi/12.2.1/../../../../arm-none-eabi/lib/thumb/v7e-m/nofp/libc_nano.a(libc_a-abort.o)
 .text          0x0000000000000000        0x0 /opt/arm-none-eabi/bin/../lib/gcc/arm-none-eabi/12.2.1/../../../../arm-none-eabi/lib/thumb/v7e-m/nofp/libc_nano.a(libc_a-msizer.o)
 .data          0x0000000000000000        0x0 /opt/arm-none-eabi/bin/../lib/gcc/arm-none-eabi/12.2.1/../../../../arm-none-eabi/lib/thumb/v7e-m/nofp/libc_nano.a(libc_a-msizer.o)
 .bss           0x0000000000000000        0x0 /opt/arm-none-eabi/bin/../lib/gcc/arm-none-eabi/12.2.1/../../../../arm-none-eabi/lib/thumb/v7e-m/nofp/libc_nano.a(libc_a-msizer.o)
 .text          0x0000000000000000        0x0 /opt/arm-none-eabi/bin/../lib/gcc/arm-none-eabi/12.2.1/../../../../arm-none-eabi/lib/thumb/v7e-m/nofp/libc_nano.a(libc_a-signal.o)
 .data          0x0000000000000000        0x0 /opt/arm-none-eabi/bin/../lib/gcc/arm-none-eabi/12.2.1/../../../../arm-none-eabi/lib/thumb/v7e-m/nofp/libc_nano.a(libc_a-signal.o)
 .bss           0x0000000000000000        0x0 /opt/arm-none-eabi/bin/../lib/gcc/arm-none-eabi/12.2.1/../../../../arm-none-eabi/lib/thumb/v7e-m/nofp/libc_nano.a(libc_a-signal.o)
 .text._init_signal_r
                0x0000000000000000       0x28 /opt/arm-none-eabi/bin/../lib/gcc/arm-none-eabi/12.2.1/../../../../arm-none-eabi/lib/thumb/v7e-m/nofp/libc_nano.a(libc_a-signal.o)
 .text._signal_r
                0x0000000000000000       0x30 /opt/arm-none-eabi/bin/../lib/gcc/arm-none-eabi/12.2.1/../../../../arm-none-eabi/lib/thumb/v7e-m/nofp/libc_nano.a(libc_a-signal.o)
 .text.__sigtramp_r
                0x0000000000000000       0x48 /opt/arm-none-eabi/bin/../lib/gcc/arm-none-eabi/12.2.1/../../../../arm-none-eabi/lib/thumb/v7e-m/nofp/libc_nano.a(libc_a-signal.o)
 .text.signal   0x0000000000000000       0x10 /opt/arm-none-eabi/bin/../lib/gcc/arm-none-eabi/12.2.1/../../../../arm-none-eabi/lib/thumb/v7e-m/nofp/libc_nano.a(libc_a-signal.o)
 .text._init_signal
                0x0000000000000000        0xc /opt/arm-none-eabi/bin/../lib/gcc/arm-none-eabi/12.2.1/../../../../arm-none-eabi/lib/thumb/v7e-m/nofp/libc_nano.a(libc_a-signal.o)
 .text.__sigtramp
                0x0000000000000000       0x10 /opt/arm-none-eabi/bin/../lib/gcc/arm-none-eabi/12.2.1/../../../../arm-none-eabi/lib/thumb/v7e-m/nofp/libc_nano.a(libc_a-signal.o)
 .text          0x0000000000000000        0x0 /opt/arm-none-eabi/bin/../lib/gcc/arm-none-eabi/12.2.1/../../../../arm-none-eabi/lib/thumb/v7e-m/nofp/libc_nano.a(libc_a-signalr.o)
 .data          0x0000000000000000        0x0 /opt/arm-none-eabi/bin/../lib/gcc/arm-none-eabi/12.2.1/../../../../arm-none-eabi/lib/thumb/v7e-m/nofp/libc_nano.a(libc_a-signalr.o)
 .bss           0x0000000000000000        0x0 /opt/arm-none-eabi/bin/../lib/gcc/arm-none-eabi/12.2.1/../../../../arm-none-eabi/lib/thumb/v7e-m/nofp/libc_nano.a(libc_a-signalr.o)
 .text          0x0000000000000000        0x0 /opt/arm-none-eabi/bin/../lib/gcc/arm-none-eabi/12.2.1/../../../../arm-none-eabi/lib/thumb/v7e-m/nofp/libnosys.a(close.o)
 .data          0x0000000000000000        0x0 /opt/arm-none-eabi/bin/../lib/gcc/arm-none-eabi/12.2.1/../../../../arm-none-eabi/lib/thumb/v7e-m/nofp/libnosys.a(close.o)
 .bss           0x0000000000000000        0x0 /opt/arm-none-eabi/bin/../lib/gcc/arm-none-eabi/12.2.1/../../../../arm-none-eabi/lib/thumb/v7e-m/nofp/libnosys.a(close.o)
 .gnu.warning._close
                0x0000000000000000        0x0 /opt/arm-none-eabi/bin/../lib/gcc/arm-none-eabi/12.2.1/../../../../arm-none-eabi/lib/thumb/v7e-m/nofp/libnosys.a(close.o)
 .text          0x0000000000000000        0x0 /opt/arm-none-eabi/bin/../lib/gcc/arm-none-eabi/12.2.1/../../../../arm-none-eabi/lib/thumb/v7e-m/nofp/libnosys.a(fstat.o)
 .data          0x0000000000000000        0x0 /opt/arm-none-eabi/bin/../lib/gcc/arm-none-eabi/12.2.1/../../../../arm-none-eabi/lib/thumb/v7e-m/nofp/libnosys.a(fstat.o)
 .bss           0x0000000000000000        0x0 /opt/arm-none-eabi/bin/../lib/gcc/arm-none-eabi/12.2.1/../../../../arm-none-eabi/lib/thumb/v7e-m/nofp/libnosys.a(fstat.o)
 .gnu.warning._fstat
                0x0000000000000000        0x0 /opt/arm-none-eabi/bin/../lib/gcc/arm-none-eabi/12.2.1/../../../../arm-none-eabi/lib/thumb/v7e-m/nofp/libnosys.a(fstat.o)
 .text          0x0000000000000000        0x0 /opt/arm-none-eabi/bin/../lib/gcc/arm-none-eabi/12.2.1/../../../../arm-none-eabi/lib/thumb/v7e-m/nofp/libnosys.a(getpid.o)
 .data          0x0000000000000000        0x0 /opt/arm-none-eabi/bin/../lib/gcc/arm-none-eabi/12.2.1/../../../../arm-none-eabi/lib/thumb/v7e-m/nofp/libnosys.a(getpid.o)
 .bss           0x0000000000000000        0x0 /opt/arm-none-eabi/bin/../lib/gcc/arm-none-eabi/12.2.1/../../../../arm-none-eabi/lib/thumb/v7e-m/nofp/libnosys.a(getpid.o)
 .gnu.warning._getpid
                0x0000000000000000        0x0 /opt/arm-none-eabi/bin/../lib/gcc/arm-none-eabi/12.2.1/../../../../arm-none-eabi/lib/thumb/v7e-m/nofp/libnosys.a(getpid.o)
 .text          0x0000000000000000        0x0 /opt/arm-none-eabi/bin/../lib/gcc/arm-none-eabi/12.2.1/../../../../arm-none-eabi/lib/thumb/v7e-m/nofp/libnosys.a(isatty.o)
 .data          0x0000000000000000        0x0 /opt/arm-none-eabi/bin/../lib/gcc/arm-none-eabi/12.2.1/../../../../arm-none-eabi/lib/thumb/v7e-m/nofp/libnosys.a(isatty.o)
 .bss           0x0000000000000000        0x0 /opt/arm-none-eabi/bin/../lib/gcc/arm-none-eabi/12.2.1/../../../../arm-none-eabi/lib/thumb/v7e-m/nofp/libnosys.a(isatty.o)
 .gnu.warning._isatty
                0x0000000000000000        0x0 /opt/arm-none-eabi/bin/../lib/gcc/arm-none-eabi/12.2.1/../../../../arm-none-eabi/lib/thumb/v7e-m/nofp/libnosys.a(isatty.o)
 .text          0x0000000000000000        0x0 /opt/arm-none-eabi/bin/../lib/gcc/arm-none-eabi/12.2.1/../../../../arm-none-eabi/lib/thumb/v7e-m/nofp/libnosys.a(kill.o)
 .data          0x0000000000000000        0x0 /opt/arm-none-eabi/bin/../lib/gcc/arm-none-eabi/12.2.1/../../../../arm-none-eabi/lib/thumb/v7e-m/nofp/libnosys.a(kill.o)
 .bss           0x0000000000000000        0x0 /opt/arm-none-eabi/bin/../lib/gcc/arm-none-eabi/12.2.1/../../../../arm-none-eabi/lib/thumb/v7e-m/nofp/libnosys.a(kill.o)
 .gnu.warning._kill
                0x0000000000000000        0x0 /opt/arm-none-eabi/bin/../lib/gcc/arm-none-eabi/12.2.1/../../../../arm-none-eabi/lib/thumb/v7e-m/nofp/libnosys.a(kill.o)
 .text          0x0000000000000000        0x0 /opt/arm-none-eabi/bin/../lib/gcc/arm-none-eabi/12.2.1/../../../../arm-none-eabi/lib/thumb/v7e-m/nofp/libnosys.a(lseek.o)
 .data          0x0000000000000000        0x0 /opt/arm-none-eabi/bin/../lib/gcc/arm-none-eabi/12.2.1/../../../../arm-none-eabi/lib/thumb/v7e-m/nofp/libnosys.a(lseek.o)
 .bss           0x0000000000000000        0x0 /opt/arm-none-eabi/bin/../lib/gcc/arm-none-eabi/12.2.1/../../../../arm-none-eabi/lib/thumb/v7e-m/nofp/libnosys.a(lseek.o)
 .gnu.warning._lseek
                0x0000000000000000        0x0 /opt/arm-none-eabi/bin/../lib/gcc/arm-none-eabi/12.2.1/../../../../arm-none-eabi/lib/thumb/v7e-m/nofp/libnosys.a(lseek.o)
 .text          0x0000000000000000        0x0 /opt/arm-none-eabi/bin/../lib/gcc/arm-none-eabi/12.2.1/../../../../arm-none-eabi/lib/thumb/v7e-m/nofp/libnosys.a(read.o)
 .data          0x0000000000000000        0x0 /opt/arm-none-eabi/bin/../lib/gcc/arm-none-eabi/12.2.1/../../../../arm-none-eabi/lib/thumb/v7e-m/nofp/libnosys.a(read.o)
 .bss           0x0000000000000000        0x0 /opt/arm-none-eabi/bin/../lib/gcc/arm-none-eabi/12.2.1/../../../../arm-none-eabi/lib/thumb/v7e-m/nofp/libnosys.a(read.o)
 .gnu.warning._read
                0x0000000000000000        0x0 /opt/arm-none-eabi/bin/../lib/gcc/arm-none-eabi/12.2.1/../../../../arm-none-eabi/lib/thumb/v7e-m/nofp/libnosys.a(read.o)
 .text          0x0000000000000000        0x0 /opt/arm-none-eabi/bin/../lib/gcc/arm-none-eabi/12.2.1/../../../../arm-none-eabi/lib/thumb/v7e-m/nofp/libnosys.a(sbrk.o)
 .data          0x0000000000000000        0x0 /opt/arm-none-eabi/bin/../lib/gcc/arm-none-eabi/12.2.1/../../../../arm-none-eabi/lib/thumb/v7e-m/nofp/libnosys.a(sbrk.o)
 .bss           0x0000000000000000        0x0 /opt/arm-none-eabi/bin/../lib/gcc/arm-none-eabi/12.2.1/../../../../arm-none-eabi/lib/thumb/v7e-m/nofp/libnosys.a(sbrk.o)
 .text          0x0000000000000000        0x0 /opt/arm-none-eabi/bin/../lib/gcc/arm-none-eabi/12.2.1/../../../../arm-none-eabi/lib/thumb/v7e-m/nofp/libnosys.a(write.o)
 .data          0x0000000000000000        0x0 /opt/arm-none-eabi/bin/../lib/gcc/arm-none-eabi/12.2.1/../../../../arm-none-eabi/lib/thumb/v7e-m/nofp/libnosys.a(write.o)
 .bss           0x0000000000000000        0x0 /opt/arm-none-eabi/bin/../lib/gcc/arm-none-eabi/12.2.1/../../../../arm-none-eabi/lib/thumb/v7e-m/nofp/libnosys.a(write.o)
 .gnu.warning._write
                0x0000000000000000        0x0 /opt/arm-none-eabi/bin/../lib/gcc/arm-none-eabi/12.2.1/../../../../arm-none-eabi/lib/thumb/v7e-m/nofp/libnosys.a(write.o)
 .text          0x0000000000000000        0x0 /opt/arm-none-eabi/bin/../lib/gcc/arm-none-eabi/12.2.1/../../../../arm-none-eabi/lib/thumb/v7e-m/nofp/libnosys.a(_exit.o)
 .data          0x0000000000000000        0x0 /opt/arm-none-eabi/bin/../lib/gcc/arm-none-eabi/12.2.1/../../../../arm-none-eabi/lib/thumb/v7e-m/nofp/libnosys.a(_exit.o)
 .bss           0x0000000000000000        0x0 /opt/arm-none-eabi/bin/../lib/gcc/arm-none-eabi/12.2.1/../../../../arm-none-eabi/lib/thumb/v7e-m/nofp/libnosys.a(_exit.o)
 .text          0x0000000000000000      0x254 /opt/arm-none-eabi/bin/../lib/gcc/arm-none-eabi/12.2.1/thumb/v7e-m/nofp/libgcc.a(_arm_muldf3.o)
 .data          0x0000000000000000        0x0 /opt/arm-none-eabi/bin/../lib/gcc/arm-none-eabi/12.2.1/thumb/v7e-m/nofp/libgcc.a(_arm_muldf3.o)
 .bss           0x0000000000000000        0x0 /opt/arm-none-eabi/bin/../lib/gcc/arm-none-eabi/12.2.1/thumb/v7e-m/nofp/libgcc.a(_arm_muldf3.o)
 .ARM.attributes
                0x0000000000000000       0x1e /opt/arm-none-eabi/bin/../lib/gcc/arm-none-eabi/12.2.1/thumb/v7e-m/nofp/libgcc.a(_arm_muldf3.o)
 .data          0x0000000000000000        0x0 /opt/arm-none-eabi/bin/../lib/gcc/arm-none-eabi/12.2.1/thumb/v7e-m/nofp/libgcc.a(_arm_addsubdf3.o)
 .bss           0x0000000000000000        0x0 /opt/arm-none-eabi/bin/../lib/gcc/arm-none-eabi/12.2.1/thumb/v7e-m/nofp/libgcc.a(_arm_addsubdf3.o)
 .data          0x0000000000000000        0x0 /opt/arm-none-eabi/bin/../lib/gcc/arm-none-eabi/12.2.1/thumb/v7e-m/nofp/libgcc.a(_arm_muldivdf3.o)
 .bss           0x0000000000000000        0x0 /opt/arm-none-eabi/bin/../lib/gcc/arm-none-eabi/12.2.1/thumb/v7e-m/nofp/libgcc.a(_arm_muldivdf3.o)
 .data          0x0000000000000000        0x0 /opt/arm-none-eabi/bin/../lib/gcc/arm-none-eabi/12.2.1/thumb/v7e-m/nofp/libgcc.a(_arm_cmpdf2.o)
 .bss           0x0000000000000000        0x0 /opt/arm-none-eabi/bin/../lib/gcc/arm-none-eabi/12.2.1/thumb/v7e-m/nofp/libgcc.a(_arm_cmpdf2.o)
 .data          0x0000000000000000        0x0 /opt/arm-none-eabi/bin/../lib/gcc/arm-none-eabi/12.2.1/thumb/v7e-m/nofp/libgcc.a(_arm_unorddf2.o)
 .bss           0x0000000000000000        0x0 /opt/arm-none-eabi/bin/../lib/gcc/arm-none-eabi/12.2.1/thumb/v7e-m/nofp/libgcc.a(_arm_unorddf2.o)
 .data          0x0000000000000000        0x0 /opt/arm-none-eabi/bin/../lib/gcc/arm-none-eabi/12.2.1/thumb/v7e-m/nofp/libgcc.a(_arm_fixdfsi.o)
 .bss           0x0000000000000000        0x0 /opt/arm-none-eabi/bin/../lib/gcc/arm-none-eabi/12.2.1/thumb/v7e-m/nofp/libgcc.a(_arm_fixdfsi.o)
 .text          0x0000000000000000        0x0 /opt/arm-none-eabi/bin/../lib/gcc/arm-none-eabi/12.2.1/thumb/v7e-m/nofp/crtend.o
 .data          0x0000000000000000        0x0 /opt/arm-none-eabi/bin/../lib/gcc/arm-none-eabi/12.2.1/thumb/v7e-m/nofp/crtend.o
 .bss           0x0000000000000000        0x0 /opt/arm-none-eabi/bin/../lib/gcc/arm-none-eabi/12.2.1/thumb/v7e-m/nofp/crtend.o
 .rodata.all_implied_fbits
                0x0000000000000000       0x24 /opt/arm-none-eabi/bin/../lib/gcc/arm-none-eabi/12.2.1/thumb/v7e-m/nofp/crtend.o
 .eh_frame      0x0000000000000000        0x4 /opt/arm-none-eabi/bin/../lib/gcc/arm-none-eabi/12.2.1/thumb/v7e-m/nofp/crtend.o
 .comment       0x0000000000000000       0x3a /opt/arm-none-eabi/bin/../lib/gcc/arm-none-eabi/12.2.1/thumb/v7e-m/nofp/crtend.o
 .ARM.attributes
                0x0000000000000000       0x2e /opt/arm-none-eabi/bin/../lib/gcc/arm-none-eabi/12.2.1/thumb/v7e-m/nofp/crtend.o
 .text          0x0000000000000000        0x0 /opt/arm-none-eabi/bin/../lib/gcc/arm-none-eabi/12.2.1/thumb/v7e-m/nofp/crtn.o
 .data          0x0000000000000000        0x0 /opt/arm-none-eabi/bin/../lib/gcc/arm-none-eabi/12.2.1/thumb/v7e-m/nofp/crtn.o
 .bss           0x0000000000000000        0x0 /opt/arm-none-eabi/bin/../lib/gcc/arm-none-eabi/12.2.1/thumb/v7e-m/nofp/crtn.o

Memory Configuration

Name             Origin             Length             Attributes
RAM              0x0000000020000000 0x0000000000030000 xrw
FLASH            0x0000000008000000 0x0000000000100000 xr
TCMRAM           0x0000000010000000 0x0000000000010000 rw
*default*        0x0000000000000000 0xffffffffffffffff

Linker script and memory map

LOAD /opt/arm-none-eabi/bin/../lib/gcc/arm-none-eabi/12.2.1/thumb/v7e-m/nofp/crti.o
LOAD /opt/arm-none-eabi/bin/../lib/gcc/arm-none-eabi/12.2.1/thumb/v7e-m/nofp/crtbegin.o
LOAD /opt/arm-none-eabi/bin/../lib/gcc/arm-none-eabi/12.2.1/../../../../arm-none-eabi/lib/thumb/v7e-m/nofp/crt0.o
LOAD build/system_gd32f4xx.o
LOAD build/gd32f4xx_gpio.o
LOAD build/gd32f4xx_timer.o
LOAD build/gd32f4xx_rcu.o
LOAD build/gd32f4xx_usart.o
LOAD build/gd32f4xx_spi.o
LOAD build/gd32f4xx_adc.o
LOAD build/gd32f4xx_exti.o
LOAD build/gd32f4xx_misc.o
LOAD build/gd32f4xx_crc.o
LOAD build/gd32f4xx_dac.o
LOAD build/gd32f4xx_tli.o
LOAD build/gd32f4xx_exmc.o
LOAD build/key.o
LOAD build/led.o
LOAD build/lcd.o
LOAD build/pic_480800.o
LOAD build/usart0.o
LOAD build/gd32f4xx_it.o
LOAD build/systick.o
LOAD build/main.o
LOAD build/startup_gd32f450_470.o
LOAD /opt/arm-none-eabi/bin/../lib/gcc/arm-none-eabi/12.2.1/../../../../arm-none-eabi/lib/thumb/v7e-m/nofp/libc_nano.a
LOAD /opt/arm-none-eabi/bin/../lib/gcc/arm-none-eabi/12.2.1/../../../../arm-none-eabi/lib/thumb/v7e-m/nofp/libm.a
LOAD /opt/arm-none-eabi/bin/../lib/gcc/arm-none-eabi/12.2.1/../../../../arm-none-eabi/lib/thumb/v7e-m/nofp/libnosys.a
START GROUP
LOAD /opt/arm-none-eabi/bin/../lib/gcc/arm-none-eabi/12.2.1/thumb/v7e-m/nofp/libgcc.a
LOAD /opt/arm-none-eabi/bin/../lib/gcc/arm-none-eabi/12.2.1/../../../../arm-none-eabi/lib/thumb/v7e-m/nofp/libc_nano.a
END GROUP
START GROUP
LOAD /opt/arm-none-eabi/bin/../lib/gcc/arm-none-eabi/12.2.1/thumb/v7e-m/nofp/libgcc.a
LOAD /opt/arm-none-eabi/bin/../lib/gcc/arm-none-eabi/12.2.1/../../../../arm-none-eabi/lib/thumb/v7e-m/nofp/libc_nano.a
END GROUP
LOAD /opt/arm-none-eabi/bin/../lib/gcc/arm-none-eabi/12.2.1/thumb/v7e-m/nofp/crtend.o
LOAD /opt/arm-none-eabi/bin/../lib/gcc/arm-none-eabi/12.2.1/thumb/v7e-m/nofp/crtn.o
                0x0000000020030000                _estack = (ORIGIN (RAM) + LENGTH (RAM))
                0x0000000000000200                _Min_Heap_Size = 0x200
                0x0000000000000400                _Min_Stack_Size = 0x400

.isr_vector     0x0000000008000000      0x1ac
                0x0000000008000000                . = ALIGN (0x4)
 *(.isr_vector)
 .isr_vector    0x0000000008000000      0x1ac build/startup_gd32f450_470.o
                0x0000000008000000                g_pfnVectors
                0x00000000080001ac                . = ALIGN (0x4)

.text           0x00000000080001b0     0x5790
                0x00000000080001b0                . = ALIGN (0x4)
 *(.text)
 .text          0x00000000080001b0       0xa0 /opt/arm-none-eabi/bin/../lib/gcc/arm-none-eabi/12.2.1/../../../../arm-none-eabi/lib/thumb/v7e-m/nofp/libc_nano.a(libc_a-memchr.o)
                0x00000000080001b0                memchr
 .text          0x0000000008000250       0x10 /opt/arm-none-eabi/bin/../lib/gcc/arm-none-eabi/12.2.1/../../../../arm-none-eabi/lib/thumb/v7e-m/nofp/libc_nano.a(libc_a-strlen.o)
                0x0000000008000250                strlen
 .text          0x0000000008000260      0x378 /opt/arm-none-eabi/bin/../lib/gcc/arm-none-eabi/12.2.1/thumb/v7e-m/nofp/libgcc.a(_arm_addsubdf3.o)
                0x0000000008000260                __aeabi_drsub
                0x0000000008000268                __aeabi_dsub
                0x0000000008000268                __subdf3
                0x000000000800026c                __adddf3
                0x000000000800026c                __aeabi_dadd
                0x00000000080004e4                __aeabi_ui2d
                0x00000000080004e4                __floatunsidf
                0x0000000008000504                __floatsidf
                0x0000000008000504                __aeabi_i2d
                0x0000000008000528                __extendsfdf2
                0x0000000008000528                __aeabi_f2d
                0x000000000800056c                __aeabi_ul2d
                0x000000000800056c                __floatundidf
                0x000000000800057c                __floatdidf
                0x000000000800057c                __aeabi_l2d
 .text          0x00000000080005d8      0x424 /opt/arm-none-eabi/bin/../lib/gcc/arm-none-eabi/12.2.1/thumb/v7e-m/nofp/libgcc.a(_arm_muldivdf3.o)
                0x00000000080005d8                __aeabi_dmul
                0x00000000080005d8                __muldf3
                0x000000000800082c                __aeabi_ddiv
                0x000000000800082c                __divdf3
 .text          0x00000000080009fc      0x110 /opt/arm-none-eabi/bin/../lib/gcc/arm-none-eabi/12.2.1/thumb/v7e-m/nofp/libgcc.a(_arm_cmpdf2.o)
                0x00000000080009fc                __gtdf2
                0x00000000080009fc                __gedf2
                0x0000000008000a04                __ltdf2
                0x0000000008000a04                __ledf2
                0x0000000008000a0c                __cmpdf2
                0x0000000008000a0c                __eqdf2
                0x0000000008000a0c                __nedf2
                0x0000000008000a88                __aeabi_cdrcmple
                0x0000000008000a98                __aeabi_cdcmple
                0x0000000008000a98                __aeabi_cdcmpeq
                0x0000000008000aa8                __aeabi_dcmpeq
                0x0000000008000abc                __aeabi_dcmplt
                0x0000000008000ad0                __aeabi_dcmple
                0x0000000008000ae4                __aeabi_dcmpge
                0x0000000008000af8                __aeabi_dcmpgt
 .text          0x0000000008000b0c       0x2c /opt/arm-none-eabi/bin/../lib/gcc/arm-none-eabi/12.2.1/thumb/v7e-m/nofp/libgcc.a(_arm_unorddf2.o)
                0x0000000008000b0c                __aeabi_dcmpun
                0x0000000008000b0c                __unorddf2
 .text          0x0000000008000b38       0x50 /opt/arm-none-eabi/bin/../lib/gcc/arm-none-eabi/12.2.1/thumb/v7e-m/nofp/libgcc.a(_arm_fixdfsi.o)
                0x0000000008000b38                __fixdfsi
                0x0000000008000b38                __aeabi_d2iz
 *(.text*)
 .text.__do_global_dtors_aux
                0x0000000008000b88       0x24 /opt/arm-none-eabi/bin/../lib/gcc/arm-none-eabi/12.2.1/thumb/v7e-m/nofp/crtbegin.o
 .text.frame_dummy
                0x0000000008000bac       0x1c /opt/arm-none-eabi/bin/../lib/gcc/arm-none-eabi/12.2.1/thumb/v7e-m/nofp/crtbegin.o
 .text.system_clock_200m_25m_hxtal
                0x0000000008000bc8       0xe8 build/system_gd32f4xx.o
 .text.system_clock_config
                0x0000000008000cb0        0x8 build/system_gd32f4xx.o
 .text.SystemInit
                0x0000000008000cb8       0xb0 build/system_gd32f4xx.o
                0x0000000008000cb8                SystemInit
 .text.gpio_mode_set
                0x0000000008000d68       0x52 build/gd32f4xx_gpio.o
                0x0000000008000d68                gpio_mode_set
 .text.gpio_output_options_set
                0x0000000008000dba       0x50 build/gd32f4xx_gpio.o
                0x0000000008000dba                gpio_output_options_set
 .text.gpio_bit_set
                0x0000000008000e0a        0x4 build/gd32f4xx_gpio.o
                0x0000000008000e0a                gpio_bit_set
 .text.gpio_bit_reset
                0x0000000008000e0e        0x4 build/gd32f4xx_gpio.o
                0x0000000008000e0e                gpio_bit_reset
 .text.gpio_af_set
                0x0000000008000e12       0x78 build/gd32f4xx_gpio.o
                0x0000000008000e12                gpio_af_set
 .text.rcu_periph_clock_enable
                0x0000000008000e8a       0x1a build/gd32f4xx_rcu.o
                0x0000000008000e8a                rcu_periph_clock_enable
 .text.rcu_periph_reset_enable
                0x0000000008000ea4       0x1a build/gd32f4xx_rcu.o
                0x0000000008000ea4                rcu_periph_reset_enable
 .text.rcu_periph_reset_disable
                0x0000000008000ebe       0x1c build/gd32f4xx_rcu.o
                0x0000000008000ebe                rcu_periph_reset_disable
 *fill*         0x0000000008000eda        0x2 
 .text.rcu_clock_freq_get
                0x0000000008000edc       0xe8 build/gd32f4xx_rcu.o
                0x0000000008000edc                rcu_clock_freq_get
 .text.usart_deinit
                0x0000000008000fc4       0xdc build/gd32f4xx_usart.o
                0x0000000008000fc4                usart_deinit
 .text.usart_baudrate_set
                0x00000000080010a0       0xcc build/gd32f4xx_usart.o
                0x00000000080010a0                usart_baudrate_set
 .text.usart_enable
                0x000000000800116c        0xa build/gd32f4xx_usart.o
                0x000000000800116c                usart_enable
 .text.usart_transmit_config
                0x0000000008001176        0xc build/gd32f4xx_usart.o
                0x0000000008001176                usart_transmit_config
 .text.usart_receive_config
                0x0000000008001182        0xc build/gd32f4xx_usart.o
                0x0000000008001182                usart_receive_config
 *fill*         0x000000000800118e        0x2 
 .text.exmc_norsram_init
                0x0000000008001190       0xc0 build/gd32f4xx_exmc.o
                0x0000000008001190                exmc_norsram_init
 .text.exmc_norsram_enable
                0x0000000008001250       0x10 build/gd32f4xx_exmc.o
                0x0000000008001250                exmc_norsram_enable
 .text.key_init
                0x0000000008001260       0x2c build/key.o
                0x0000000008001260                key_init
 .text.led_init
                0x000000000800128c       0x74 build/led.o
                0x000000000800128c                led_init
 .text.LCD_CtrlLinesConfig
                0x0000000008001300       0x4c build/lcd.o
                0x0000000008001300                LCD_CtrlLinesConfig
 .text.LCD_FSMCConfig
                0x000000000800134c      0x110 build/lcd.o
                0x000000000800134c                LCD_FSMCConfig
 .text.LCD_WR_REG
                0x000000000800145c        0xc build/lcd.o
                0x000000000800145c                LCD_WR_REG
 .text.LCD_WR_DATA
                0x0000000008001468        0xc build/lcd.o
                0x0000000008001468                LCD_WR_DATA
 .text.LCD_WriteReg
                0x0000000008001474       0x10 build/lcd.o
                0x0000000008001474                LCD_WriteReg
 .text.LCD_WriteRAM_Prepare
                0x0000000008001484       0x14 build/lcd.o
                0x0000000008001484                LCD_WriteRAM_Prepare
 .text.LCD_WriteRAM
                0x0000000008001498        0xc build/lcd.o
                0x0000000008001498                LCD_WriteRAM
 .text.LCD_RD_DATA
                0x00000000080014a4        0xc build/lcd.o
                0x00000000080014a4                LCD_RD_DATA
 .text.delay_us
                0x00000000080014b0       0x1a build/lcd.o
                0x00000000080014b0                delay_us
 .text.LCD_ReadReg
                0x00000000080014ca       0x1a build/lcd.o
                0x00000000080014ca                LCD_ReadReg
 .text.LcdNT35510ReadID
                0x00000000080014e4       0xac build/lcd.o
                0x00000000080014e4                LcdNT35510ReadID
 .text.LCD_HVGA_NT35510
                0x0000000008001590       0x28 build/lcd.o
                0x0000000008001590                LCD_HVGA_NT35510
 .text.NT35510_HY35_Initial_Code
                0x00000000080015b8      0xefc build/lcd.o
                0x00000000080015b8                NT35510_HY35_Initial_Code
 .text.BlockWrite
                0x00000000080024b4       0x98 build/lcd.o
                0x00000000080024b4                BlockWrite
 .text.LCD_Clear
                0x000000000800254c       0x30 build/lcd.o
                0x000000000800254c                LCD_Clear
 .text.LCD_Scan_Dir
                0x000000000800257c       0xd0 build/lcd.o
                0x000000000800257c                LCD_Scan_Dir
 .text.LCD_Init
                0x000000000800264c       0x34 build/lcd.o
                0x000000000800264c                LCD_Init
 .text.LCD_Fast_DrawPoint
                0x0000000008002680       0x58 build/lcd.o
                0x0000000008002680                LCD_Fast_DrawPoint
 .text.LCD_ShowChar
                0x00000000080026d8      0x108 build/lcd.o
                0x00000000080026d8                LCD_ShowChar
 .text.LCD_ShowString
                0x00000000080027e0       0x5e build/lcd.o
                0x00000000080027e0                LCD_ShowString
 *fill*         0x000000000800283e        0x2 
 .text.usart0_init
                0x0000000008002840       0x94 build/usart0.o
                0x0000000008002840                usart0_init
 .text.NMI_Handler
                0x00000000080028d4        0x2 build/gd32f4xx_it.o
                0x00000000080028d4                NMI_Handler
 .text.HardFault_Handler
                0x00000000080028d6        0x2 build/gd32f4xx_it.o
                0x00000000080028d6                HardFault_Handler
 .text.MemManage_Handler
                0x00000000080028d8        0x2 build/gd32f4xx_it.o
                0x00000000080028d8                MemManage_Handler
 .text.BusFault_Handler
                0x00000000080028da        0x2 build/gd32f4xx_it.o
                0x00000000080028da                BusFault_Handler
 .text.UsageFault_Handler
                0x00000000080028dc        0x2 build/gd32f4xx_it.o
                0x00000000080028dc                UsageFault_Handler
 .text.SVC_Handler
                0x00000000080028de        0x2 build/gd32f4xx_it.o
                0x00000000080028de                SVC_Handler
 .text.DebugMon_Handler
                0x00000000080028e0        0x2 build/gd32f4xx_it.o
                0x00000000080028e0                DebugMon_Handler
 .text.PendSV_Handler
                0x00000000080028e2        0x2 build/gd32f4xx_it.o
                0x00000000080028e2                PendSV_Handler
 .text.SysTick_Handler
                0x00000000080028e4        0x8 build/gd32f4xx_it.o
                0x00000000080028e4                SysTick_Handler
 .text.systick_config
                0x00000000080028ec       0x40 build/systick.o
                0x00000000080028ec                systick_config
 .text.delay_1ms
                0x000000000800292c       0x14 build/systick.o
                0x000000000800292c                delay_1ms
 .text.delay_decrement
                0x0000000008002940       0x14 build/systick.o
                0x0000000008002940                delay_decrement
 .text.main     0x0000000008002954       0x98 build/main.o
                0x0000000008002954                main
 .text.Reset_Handler
                0x00000000080029ec       0x48 build/startup_gd32f450_470.o
                0x00000000080029ec                Reset_Handler
 .text.Default_Handler
                0x0000000008002a34        0x2 build/startup_gd32f450_470.o
                0x0000000008002a34                RTC_Alarm_IRQHandler
                0x0000000008002a34                EXTI2_IRQHandler
                0x0000000008002a34                TIMER2_IRQHandler
                0x0000000008002a34                LVD_IRQHandler
                0x0000000008002a34                SPI4_IRQHandler
                0x0000000008002a34                CAN1_EWMC_IRQHandler
                0x0000000008002a34                TIMER7_UP_TIMER12_IRQHandler
                0x0000000008002a34                SDIO_IRQHandler
                0x0000000008002a34                EXTI3_IRQHandler
                0x0000000008002a34                DCI_IRQHandler
                0x0000000008002a34                USBFS_WKUP_IRQHandler
                0x0000000008002a34                USBHS_IRQHandler
                0x0000000008002a34                IPA_IRQHandler
                0x0000000008002a34                TIMER5_DAC_IRQHandler
                0x0000000008002a34                TIMER0_TRG_CMT_TIMER10_IRQHandler
                0x0000000008002a34                USBFS_IRQHandler
                0x0000000008002a34                TIMER3_IRQHandler
                0x0000000008002a34                DMA0_Channel6_IRQHandler
                0x0000000008002a34                I2C0_EV_IRQHandler
                0x0000000008002a34                EXTI0_IRQHandler
                0x0000000008002a34                I2C2_EV_IRQHandler
                0x0000000008002a34                CAN1_RX0_IRQHandler
                0x0000000008002a34                FPU_IRQHandler
                0x0000000008002a34                TIMER7_TRG_CMT_TIMER13_IRQHandler
                0x0000000008002a34                TIMER4_IRQHandler
                0x0000000008002a34                SPI1_IRQHandler
                0x0000000008002a34                DMA0_Channel0_IRQHandler
                0x0000000008002a34                USART5_IRQHandler
                0x0000000008002a34                TIMER0_BRK_TIMER8_IRQHandler
                0x0000000008002a34                DMA1_Channel0_IRQHandler
                0x0000000008002a34                TIMER7_BRK_TIMER11_IRQHandler
                0x0000000008002a34                TIMER6_IRQHandler
                0x0000000008002a34                DMA1_Channel4_IRQHandler
                0x0000000008002a34                DMA0_Channel3_IRQHandler
                0x0000000008002a34                I2C0_ER_IRQHandler
                0x0000000008002a34                TLI_IRQHandler
                0x0000000008002a34                TIMER0_UP_TIMER9_IRQHandler
                0x0000000008002a34                DMA1_Channel7_IRQHandler
                0x0000000008002a34                CAN1_RX1_IRQHandler
                0x0000000008002a34                DMA0_Channel2_IRQHandler
                0x0000000008002a34                USART0_IRQHandler
                0x0000000008002a34                TIMER1_IRQHandler
                0x0000000008002a34                I2C1_EV_IRQHandler
                0x0000000008002a34                DMA1_Channel6_IRQHandler
                0x0000000008002a34                UART4_IRQHandler
                0x0000000008002a34                EXTI10_15_IRQHandler
                0x0000000008002a34                DMA1_Channel1_IRQHandler
                0x0000000008002a34                Default_Handler
                0x0000000008002a34                TIMER7_Channel_IRQHandler
                0x0000000008002a34                DMA0_Channel7_IRQHandler
                0x0000000008002a34                ADC_IRQHandler
                0x0000000008002a34                CAN0_TX_IRQHandler
                0x0000000008002a34                WWDGT_IRQHandler
                0x0000000008002a34                EXMC_IRQHandler
                0x0000000008002a34                SPI5_IRQHandler
                0x0000000008002a34                TAMPER_STAMP_IRQHandler
                0x0000000008002a34                RTC_WKUP_IRQHandler
                0x0000000008002a34                SPI2_IRQHandler
                0x0000000008002a34                CAN1_TX_IRQHandler
                0x0000000008002a34                RCU_CTC_IRQHandler
                0x0000000008002a34                DMA1_Channel5_IRQHandler
                0x0000000008002a34                EXTI4_IRQHandler
                0x0000000008002a34                CAN0_RX1_IRQHandler
                0x0000000008002a34                DMA0_Channel5_IRQHandler
                0x0000000008002a34                DMA1_Channel3_IRQHandler
                0x0000000008002a34                EXTI5_9_IRQHandler
                0x0000000008002a34                DMA0_Channel1_IRQHandler
                0x0000000008002a34                TIMER0_Channel_IRQHandler
                0x0000000008002a34                EXTI1_IRQHandler
                0x0000000008002a34                ENET_WKUP_IRQHandler
                0x0000000008002a34                USBHS_EP1_In_IRQHandler
                0x0000000008002a34                SPI0_IRQHandler
                0x0000000008002a34                UART7_IRQHandler
                0x0000000008002a34                USART2_IRQHandler
                0x0000000008002a34                UART6_IRQHandler
                0x0000000008002a34                CAN0_EWMC_IRQHandler
                0x0000000008002a34                CAN0_RX0_IRQHandler
                0x0000000008002a34                I2C2_ER_IRQHandler
                0x0000000008002a34                DMA1_Channel2_IRQHandler
                0x0000000008002a34                TLI_ER_IRQHandler
                0x0000000008002a34                USART1_IRQHandler
                0x0000000008002a34                SPI3_IRQHandler
                0x0000000008002a34                UART3_IRQHandler
                0x0000000008002a34                I2C1_ER_IRQHandler
                0x0000000008002a34                FMC_IRQHandler
                0x0000000008002a34                USBHS_WKUP_IRQHandler
                0x0000000008002a34                DMA0_Channel4_IRQHandler
                0x0000000008002a34                TRNG_IRQHandler
                0x0000000008002a34                ENET_IRQHandler
                0x0000000008002a34                USBHS_EP1_Out_IRQHandler
 .text.__cvt    0x0000000008002a36       0xce /opt/arm-none-eabi/bin/../lib/gcc/arm-none-eabi/12.2.1/../../../../arm-none-eabi/lib/thumb/v7e-m/nofp/libc_nano.a(libc_a-nano-vfprintf_float.o)
                0x0000000008002a36                __cvt
 .text.__exponent
                0x0000000008002b04       0x74 /opt/arm-none-eabi/bin/../lib/gcc/arm-none-eabi/12.2.1/../../../../arm-none-eabi/lib/thumb/v7e-m/nofp/libc_nano.a(libc_a-nano-vfprintf_float.o)
                0x0000000008002b04                __exponent
 .text._printf_float
                0x0000000008002b78      0x46c /opt/arm-none-eabi/bin/../lib/gcc/arm-none-eabi/12.2.1/../../../../arm-none-eabi/lib/thumb/v7e-m/nofp/libc_nano.a(libc_a-nano-vfprintf_float.o)
                0x0000000008002b78                _printf_float
 .text._printf_common
                0x0000000008002fe4       0xda /opt/arm-none-eabi/bin/../lib/gcc/arm-none-eabi/12.2.1/../../../../arm-none-eabi/lib/thumb/v7e-m/nofp/libc_nano.a(libc_a-nano-vfprintf_i.o)
                0x0000000008002fe4                _printf_common
 *fill*         0x00000000080030be        0x2 
 .text._printf_i
                0x00000000080030c0      0x258 /opt/arm-none-eabi/bin/../lib/gcc/arm-none-eabi/12.2.1/../../../../arm-none-eabi/lib/thumb/v7e-m/nofp/libc_nano.a(libc_a-nano-vfprintf_i.o)
                0x00000000080030c0                _printf_i
 .text.std      0x0000000008003318       0x6c /opt/arm-none-eabi/bin/../lib/gcc/arm-none-eabi/12.2.1/../../../../arm-none-eabi/lib/thumb/v7e-m/nofp/libc_nano.a(libc_a-findfp.o)
 .text.stdio_exit_handler
                0x0000000008003384       0x18 /opt/arm-none-eabi/bin/../lib/gcc/arm-none-eabi/12.2.1/../../../../arm-none-eabi/lib/thumb/v7e-m/nofp/libc_nano.a(libc_a-findfp.o)
 .text.cleanup_stdio
                0x000000000800339c       0x40 /opt/arm-none-eabi/bin/../lib/gcc/arm-none-eabi/12.2.1/../../../../arm-none-eabi/lib/thumb/v7e-m/nofp/libc_nano.a(libc_a-findfp.o)
 .text.global_stdio_init.part.0
                0x00000000080033dc       0x3c /opt/arm-none-eabi/bin/../lib/gcc/arm-none-eabi/12.2.1/../../../../arm-none-eabi/lib/thumb/v7e-m/nofp/libc_nano.a(libc_a-findfp.o)
 .text.__sfp_lock_acquire
                0x0000000008003418        0xc /opt/arm-none-eabi/bin/../lib/gcc/arm-none-eabi/12.2.1/../../../../arm-none-eabi/lib/thumb/v7e-m/nofp/libc_nano.a(libc_a-findfp.o)
                0x0000000008003418                __sfp_lock_acquire
 .text.__sfp_lock_release
                0x0000000008003424        0xc /opt/arm-none-eabi/bin/../lib/gcc/arm-none-eabi/12.2.1/../../../../arm-none-eabi/lib/thumb/v7e-m/nofp/libc_nano.a(libc_a-findfp.o)
                0x0000000008003424                __sfp_lock_release
 .text.__sinit  0x0000000008003430       0x30 /opt/arm-none-eabi/bin/../lib/gcc/arm-none-eabi/12.2.1/../../../../arm-none-eabi/lib/thumb/v7e-m/nofp/libc_nano.a(libc_a-findfp.o)
                0x0000000008003430                __sinit
 .text._fwalk_sglue
                0x0000000008003460       0x3c /opt/arm-none-eabi/bin/../lib/gcc/arm-none-eabi/12.2.1/../../../../arm-none-eabi/lib/thumb/v7e-m/nofp/libc_nano.a(libc_a-fwalk.o)
                0x0000000008003460                _fwalk_sglue
 .text.printf   0x000000000800349c       0x24 /opt/arm-none-eabi/bin/../lib/gcc/arm-none-eabi/12.2.1/../../../../arm-none-eabi/lib/thumb/v7e-m/nofp/libc_nano.a(libc_a-printf.o)
                0x000000000800349c                printf
                0x000000000800349c                iprintf
 .text._puts_r  0x00000000080034c0       0xaa /opt/arm-none-eabi/bin/../lib/gcc/arm-none-eabi/12.2.1/../../../../arm-none-eabi/lib/thumb/v7e-m/nofp/libc_nano.a(libc_a-puts.o)
                0x00000000080034c0                _puts_r
 *fill*         0x000000000800356a        0x2 
 .text.puts     0x000000000800356c       0x10 /opt/arm-none-eabi/bin/../lib/gcc/arm-none-eabi/12.2.1/../../../../arm-none-eabi/lib/thumb/v7e-m/nofp/libc_nano.a(libc_a-puts.o)
                0x000000000800356c                puts
 .text.sprintf  0x000000000800357c       0x40 /opt/arm-none-eabi/bin/../lib/gcc/arm-none-eabi/12.2.1/../../../../arm-none-eabi/lib/thumb/v7e-m/nofp/libc_nano.a(libc_a-sprintf.o)
                0x000000000800357c                sprintf
                0x000000000800357c                siprintf
 .text.__sread  0x00000000080035bc       0x22 /opt/arm-none-eabi/bin/../lib/gcc/arm-none-eabi/12.2.1/../../../../arm-none-eabi/lib/thumb/v7e-m/nofp/libc_nano.a(libc_a-stdio.o)
                0x00000000080035bc                __sread
 .text.__swrite
                0x00000000080035de       0x38 /opt/arm-none-eabi/bin/../lib/gcc/arm-none-eabi/12.2.1/../../../../arm-none-eabi/lib/thumb/v7e-m/nofp/libc_nano.a(libc_a-stdio.o)
                0x00000000080035de                __swrite
 .text.__sseek  0x0000000008003616       0x24 /opt/arm-none-eabi/bin/../lib/gcc/arm-none-eabi/12.2.1/../../../../arm-none-eabi/lib/thumb/v7e-m/nofp/libc_nano.a(libc_a-stdio.o)
                0x0000000008003616                __sseek
 .text.__sclose
                0x000000000800363a        0x8 /opt/arm-none-eabi/bin/../lib/gcc/arm-none-eabi/12.2.1/../../../../arm-none-eabi/lib/thumb/v7e-m/nofp/libc_nano.a(libc_a-stdio.o)
                0x000000000800363a                __sclose
 .text.__swbuf_r
                0x0000000008003642       0x7c /opt/arm-none-eabi/bin/../lib/gcc/arm-none-eabi/12.2.1/../../../../arm-none-eabi/lib/thumb/v7e-m/nofp/libc_nano.a(libc_a-wbuf.o)
                0x0000000008003642                __swbuf_r
 *fill*         0x00000000080036be        0x2 
 .text.__swsetup_r
                0x00000000080036c0       0xac /opt/arm-none-eabi/bin/../lib/gcc/arm-none-eabi/12.2.1/../../../../arm-none-eabi/lib/thumb/v7e-m/nofp/libc_nano.a(libc_a-wsetup.o)
                0x00000000080036c0                __swsetup_r
 .text.memset   0x000000000800376c       0x10 /opt/arm-none-eabi/bin/../lib/gcc/arm-none-eabi/12.2.1/../../../../arm-none-eabi/lib/thumb/v7e-m/nofp/libc_nano.a(libc_a-memset.o)
                0x000000000800376c                memset
 .text._localeconv_r
                0x000000000800377c        0x8 /opt/arm-none-eabi/bin/../lib/gcc/arm-none-eabi/12.2.1/../../../../arm-none-eabi/lib/thumb/v7e-m/nofp/libc_nano.a(libc_a-localeconv.o)
                0x000000000800377c                _localeconv_r
 .text._close_r
                0x0000000008003784       0x20 /opt/arm-none-eabi/bin/../lib/gcc/arm-none-eabi/12.2.1/../../../../arm-none-eabi/lib/thumb/v7e-m/nofp/libc_nano.a(libc_a-closer.o)
                0x0000000008003784                _close_r
 .text._lseek_r
                0x00000000080037a4       0x24 /opt/arm-none-eabi/bin/../lib/gcc/arm-none-eabi/12.2.1/../../../../arm-none-eabi/lib/thumb/v7e-m/nofp/libc_nano.a(libc_a-lseekr.o)
                0x00000000080037a4                _lseek_r
 .text._read_r  0x00000000080037c8       0x24 /opt/arm-none-eabi/bin/../lib/gcc/arm-none-eabi/12.2.1/../../../../arm-none-eabi/lib/thumb/v7e-m/nofp/libc_nano.a(libc_a-readr.o)
                0x00000000080037c8                _read_r
 .text._write_r
                0x00000000080037ec       0x24 /opt/arm-none-eabi/bin/../lib/gcc/arm-none-eabi/12.2.1/../../../../arm-none-eabi/lib/thumb/v7e-m/nofp/libc_nano.a(libc_a-writer.o)
                0x00000000080037ec                _write_r
 .text.__libc_init_array
                0x0000000008003810       0x48 /opt/arm-none-eabi/bin/../lib/gcc/arm-none-eabi/12.2.1/../../../../arm-none-eabi/lib/thumb/v7e-m/nofp/libc_nano.a(libc_a-init.o)
                0x0000000008003810                __libc_init_array
 .text.__retarget_lock_init_recursive
                0x0000000008003858        0x2 /opt/arm-none-eabi/bin/../lib/gcc/arm-none-eabi/12.2.1/../../../../arm-none-eabi/lib/thumb/v7e-m/nofp/libc_nano.a(libc_a-lock.o)
                0x0000000008003858                __retarget_lock_init_recursive
 .text.__retarget_lock_acquire_recursive
                0x000000000800385a        0x2 /opt/arm-none-eabi/bin/../lib/gcc/arm-none-eabi/12.2.1/../../../../arm-none-eabi/lib/thumb/v7e-m/nofp/libc_nano.a(libc_a-lock.o)
                0x000000000800385a                __retarget_lock_acquire_recursive
 .text.__retarget_lock_release_recursive
                0x000000000800385c        0x2 /opt/arm-none-eabi/bin/../lib/gcc/arm-none-eabi/12.2.1/../../../../arm-none-eabi/lib/thumb/v7e-m/nofp/libc_nano.a(libc_a-lock.o)
                0x000000000800385c                __retarget_lock_release_recursive
 .text.quorem   0x000000000800385e      0x110 /opt/arm-none-eabi/bin/../lib/gcc/arm-none-eabi/12.2.1/../../../../arm-none-eabi/lib/thumb/v7e-m/nofp/libc_nano.a(libc_a-dtoa.o)
 *fill*         0x000000000800396e        0x2 
 .text._dtoa_r  0x0000000008003970      0xc5c /opt/arm-none-eabi/bin/../lib/gcc/arm-none-eabi/12.2.1/../../../../arm-none-eabi/lib/thumb/v7e-m/nofp/libc_nano.a(libc_a-dtoa.o)
                0x0000000008003970                _dtoa_r
 .text._free_r  0x00000000080045cc       0x94 /opt/arm-none-eabi/bin/../lib/gcc/arm-none-eabi/12.2.1/../../../../arm-none-eabi/lib/thumb/v7e-m/nofp/libc_nano.a(libc_a-freer.o)
                0x00000000080045cc                _free_r
 .text.malloc   0x0000000008004660       0x10 /opt/arm-none-eabi/bin/../lib/gcc/arm-none-eabi/12.2.1/../../../../arm-none-eabi/lib/thumb/v7e-m/nofp/libc_nano.a(libc_a-malloc.o)
                0x0000000008004660                malloc
 .text.sbrk_aligned
                0x0000000008004670       0x44 /opt/arm-none-eabi/bin/../lib/gcc/arm-none-eabi/12.2.1/../../../../arm-none-eabi/lib/thumb/v7e-m/nofp/libc_nano.a(libc_a-mallocr.o)
 .text._malloc_r
                0x00000000080046b4       0xf0 /opt/arm-none-eabi/bin/../lib/gcc/arm-none-eabi/12.2.1/../../../../arm-none-eabi/lib/thumb/v7e-m/nofp/libc_nano.a(libc_a-mallocr.o)
                0x00000000080046b4                _malloc_r
 .text.__malloc_lock
                0x00000000080047a4        0xc /opt/arm-none-eabi/bin/../lib/gcc/arm-none-eabi/12.2.1/../../../../arm-none-eabi/lib/thumb/v7e-m/nofp/libc_nano.a(libc_a-mlock.o)
                0x00000000080047a4                __malloc_lock
 .text.__malloc_unlock
                0x00000000080047b0        0xc /opt/arm-none-eabi/bin/../lib/gcc/arm-none-eabi/12.2.1/../../../../arm-none-eabi/lib/thumb/v7e-m/nofp/libc_nano.a(libc_a-mlock.o)
                0x00000000080047b0                __malloc_unlock
 .text._Balloc  0x00000000080047bc       0x80 /opt/arm-none-eabi/bin/../lib/gcc/arm-none-eabi/12.2.1/../../../../arm-none-eabi/lib/thumb/v7e-m/nofp/libc_nano.a(libc_a-mprec.o)
                0x00000000080047bc                _Balloc
 .text._Bfree   0x000000000800483c       0x44 /opt/arm-none-eabi/bin/../lib/gcc/arm-none-eabi/12.2.1/../../../../arm-none-eabi/lib/thumb/v7e-m/nofp/libc_nano.a(libc_a-mprec.o)
                0x000000000800483c                _Bfree
 .text.__multadd
                0x0000000008004880       0x8c /opt/arm-none-eabi/bin/../lib/gcc/arm-none-eabi/12.2.1/../../../../arm-none-eabi/lib/thumb/v7e-m/nofp/libc_nano.a(libc_a-mprec.o)
                0x0000000008004880                __multadd
 .text.__hi0bits
                0x000000000800490c       0x44 /opt/arm-none-eabi/bin/../lib/gcc/arm-none-eabi/12.2.1/../../../../arm-none-eabi/lib/thumb/v7e-m/nofp/libc_nano.a(libc_a-mprec.o)
                0x000000000800490c                __hi0bits
 .text.__lo0bits
                0x0000000008004950       0x5a /opt/arm-none-eabi/bin/../lib/gcc/arm-none-eabi/12.2.1/../../../../arm-none-eabi/lib/thumb/v7e-m/nofp/libc_nano.a(libc_a-mprec.o)
                0x0000000008004950                __lo0bits
 *fill*         0x00000000080049aa        0x2 
 .text.__i2b    0x00000000080049ac       0x2c /opt/arm-none-eabi/bin/../lib/gcc/arm-none-eabi/12.2.1/../../../../arm-none-eabi/lib/thumb/v7e-m/nofp/libc_nano.a(libc_a-mprec.o)
                0x00000000080049ac                __i2b
 .text.__multiply
                0x00000000080049d8      0x154 /opt/arm-none-eabi/bin/../lib/gcc/arm-none-eabi/12.2.1/../../../../arm-none-eabi/lib/thumb/v7e-m/nofp/libc_nano.a(libc_a-mprec.o)
                0x00000000080049d8                __multiply
 .text.__pow5mult
                0x0000000008004b2c       0xb4 /opt/arm-none-eabi/bin/../lib/gcc/arm-none-eabi/12.2.1/../../../../arm-none-eabi/lib/thumb/v7e-m/nofp/libc_nano.a(libc_a-mprec.o)
                0x0000000008004b2c                __pow5mult
 .text.__lshift
                0x0000000008004be0       0xd8 /opt/arm-none-eabi/bin/../lib/gcc/arm-none-eabi/12.2.1/../../../../arm-none-eabi/lib/thumb/v7e-m/nofp/libc_nano.a(libc_a-mprec.o)
                0x0000000008004be0                __lshift
 .text.__mcmp   0x0000000008004cb8       0x36 /opt/arm-none-eabi/bin/../lib/gcc/arm-none-eabi/12.2.1/../../../../arm-none-eabi/lib/thumb/v7e-m/nofp/libc_nano.a(libc_a-mprec.o)
                0x0000000008004cb8                __mcmp
 *fill*         0x0000000008004cee        0x2 
 .text.__mdiff  0x0000000008004cf0      0x124 /opt/arm-none-eabi/bin/../lib/gcc/arm-none-eabi/12.2.1/../../../../arm-none-eabi/lib/thumb/v7e-m/nofp/libc_nano.a(libc_a-mprec.o)
                0x0000000008004cf0                __mdiff
 .text.__d2b    0x0000000008004e14       0xb0 /opt/arm-none-eabi/bin/../lib/gcc/arm-none-eabi/12.2.1/../../../../arm-none-eabi/lib/thumb/v7e-m/nofp/libc_nano.a(libc_a-mprec.o)
                0x0000000008004e14                __d2b
 .text.__ssputs_r
                0x0000000008004ec4       0xb6 /opt/arm-none-eabi/bin/../lib/gcc/arm-none-eabi/12.2.1/../../../../arm-none-eabi/lib/thumb/v7e-m/nofp/libc_nano.a(libc_a-nano-svfprintf.o)
                0x0000000008004ec4                __ssputs_r
 *fill*         0x0000000008004f7a        0x2 
 .text._svfprintf_r
                0x0000000008004f7c      0x1f8 /opt/arm-none-eabi/bin/../lib/gcc/arm-none-eabi/12.2.1/../../../../arm-none-eabi/lib/thumb/v7e-m/nofp/libc_nano.a(libc_a-nano-svfprintf.o)
                0x0000000008004f7c                _svfprintf_r
                0x0000000008004f7c                _svfiprintf_r
 .text.__sfputc_r
                0x0000000008005174       0x2a /opt/arm-none-eabi/bin/../lib/gcc/arm-none-eabi/12.2.1/../../../../arm-none-eabi/lib/thumb/v7e-m/nofp/libc_nano.a(libc_a-nano-vfprintf.o)
 .text.__sfputs_r
                0x000000000800519e       0x24 /opt/arm-none-eabi/bin/../lib/gcc/arm-none-eabi/12.2.1/../../../../arm-none-eabi/lib/thumb/v7e-m/nofp/libc_nano.a(libc_a-nano-vfprintf.o)
                0x000000000800519e                __sfputs_r
 *fill*         0x00000000080051c2        0x2 
 .text._vfprintf_r
                0x00000000080051c4      0x230 /opt/arm-none-eabi/bin/../lib/gcc/arm-none-eabi/12.2.1/../../../../arm-none-eabi/lib/thumb/v7e-m/nofp/libc_nano.a(libc_a-nano-vfprintf.o)
                0x00000000080051c4                _vfiprintf_r
                0x00000000080051c4                _vfprintf_r
 .text.__sflush_r
                0x00000000080053f4      0x100 /opt/arm-none-eabi/bin/../lib/gcc/arm-none-eabi/12.2.1/../../../../arm-none-eabi/lib/thumb/v7e-m/nofp/libc_nano.a(libc_a-fflush.o)
                0x00000000080053f4                __sflush_r
 .text._fflush_r
                0x00000000080054f4       0x50 /opt/arm-none-eabi/bin/../lib/gcc/arm-none-eabi/12.2.1/../../../../arm-none-eabi/lib/thumb/v7e-m/nofp/libc_nano.a(libc_a-fflush.o)
                0x00000000080054f4                _fflush_r
 .text.__swhatbuf_r
                0x0000000008005544       0x4c /opt/arm-none-eabi/bin/../lib/gcc/arm-none-eabi/12.2.1/../../../../arm-none-eabi/lib/thumb/v7e-m/nofp/libc_nano.a(libc_a-makebuf.o)
                0x0000000008005544                __swhatbuf_r
 .text.__smakebuf_r
                0x0000000008005590       0x78 /opt/arm-none-eabi/bin/../lib/gcc/arm-none-eabi/12.2.1/../../../../arm-none-eabi/lib/thumb/v7e-m/nofp/libc_nano.a(libc_a-makebuf.o)
                0x0000000008005590                __smakebuf_r
 .text.memmove  0x0000000008005608       0x34 /opt/arm-none-eabi/bin/../lib/gcc/arm-none-eabi/12.2.1/../../../../arm-none-eabi/lib/thumb/v7e-m/nofp/libc_nano.a(libc_a-memmove.o)
                0x0000000008005608                memmove
 .text._fstat_r
                0x000000000800563c       0x24 /opt/arm-none-eabi/bin/../lib/gcc/arm-none-eabi/12.2.1/../../../../arm-none-eabi/lib/thumb/v7e-m/nofp/libc_nano.a(libc_a-fstatr.o)
                0x000000000800563c                _fstat_r
 .text._isatty_r
                0x0000000008005660       0x20 /opt/arm-none-eabi/bin/../lib/gcc/arm-none-eabi/12.2.1/../../../../arm-none-eabi/lib/thumb/v7e-m/nofp/libc_nano.a(libc_a-isattyr.o)
                0x0000000008005660                _isatty_r
 .text._sbrk_r  0x0000000008005680       0x20 /opt/arm-none-eabi/bin/../lib/gcc/arm-none-eabi/12.2.1/../../../../arm-none-eabi/lib/thumb/v7e-m/nofp/libc_nano.a(libc_a-sbrkr.o)
                0x0000000008005680                _sbrk_r
 .text.memcpy   0x00000000080056a0       0x1c /opt/arm-none-eabi/bin/../lib/gcc/arm-none-eabi/12.2.1/../../../../arm-none-eabi/lib/thumb/v7e-m/nofp/libc_nano.a(libc_a-memcpy-stub.o)
                0x00000000080056a0                memcpy
 .text.__assert_func
                0x00000000080056bc       0x3c /opt/arm-none-eabi/bin/../lib/gcc/arm-none-eabi/12.2.1/../../../../arm-none-eabi/lib/thumb/v7e-m/nofp/libc_nano.a(libc_a-assert.o)
                0x00000000080056bc                __assert_func
 .text._calloc_r
                0x00000000080056f8       0x28 /opt/arm-none-eabi/bin/../lib/gcc/arm-none-eabi/12.2.1/../../../../arm-none-eabi/lib/thumb/v7e-m/nofp/libc_nano.a(libc_a-callocr.o)
                0x00000000080056f8                _calloc_r
 .text.__ascii_mbtowc
                0x0000000008005720       0x24 /opt/arm-none-eabi/bin/../lib/gcc/arm-none-eabi/12.2.1/../../../../arm-none-eabi/lib/thumb/v7e-m/nofp/libc_nano.a(libc_a-mbtowc_r.o)
                0x0000000008005720                __ascii_mbtowc
 .text._realloc_r
                0x0000000008005744       0x5c /opt/arm-none-eabi/bin/../lib/gcc/arm-none-eabi/12.2.1/../../../../arm-none-eabi/lib/thumb/v7e-m/nofp/libc_nano.a(libc_a-reallocr.o)
                0x0000000008005744                _realloc_r
 .text.__ascii_wctomb
                0x00000000080057a0       0x1a /opt/arm-none-eabi/bin/../lib/gcc/arm-none-eabi/12.2.1/../../../../arm-none-eabi/lib/thumb/v7e-m/nofp/libc_nano.a(libc_a-wctomb_r.o)
                0x00000000080057a0                __ascii_wctomb
 *fill*         0x00000000080057ba        0x2 
 .text.fprintf  0x00000000080057bc       0x24 /opt/arm-none-eabi/bin/../lib/gcc/arm-none-eabi/12.2.1/../../../../arm-none-eabi/lib/thumb/v7e-m/nofp/libc_nano.a(libc_a-fprintf.o)
                0x00000000080057bc                fprintf
                0x00000000080057bc                fiprintf
 .text.abort    0x00000000080057e0        0xe /opt/arm-none-eabi/bin/../lib/gcc/arm-none-eabi/12.2.1/../../../../arm-none-eabi/lib/thumb/v7e-m/nofp/libc_nano.a(libc_a-abort.o)
                0x00000000080057e0                abort
 .text._malloc_usable_size_r
                0x00000000080057ee       0x10 /opt/arm-none-eabi/bin/../lib/gcc/arm-none-eabi/12.2.1/../../../../arm-none-eabi/lib/thumb/v7e-m/nofp/libc_nano.a(libc_a-msizer.o)
                0x00000000080057ee                _malloc_usable_size_r
 .text._raise_r
                0x00000000080057fe       0x50 /opt/arm-none-eabi/bin/../lib/gcc/arm-none-eabi/12.2.1/../../../../arm-none-eabi/lib/thumb/v7e-m/nofp/libc_nano.a(libc_a-signal.o)
                0x00000000080057fe                _raise_r
 *fill*         0x000000000800584e        0x2 
 .text.raise    0x0000000008005850       0x10 /opt/arm-none-eabi/bin/../lib/gcc/arm-none-eabi/12.2.1/../../../../arm-none-eabi/lib/thumb/v7e-m/nofp/libc_nano.a(libc_a-signal.o)
                0x0000000008005850                raise
 .text._kill_r  0x0000000008005860       0x24 /opt/arm-none-eabi/bin/../lib/gcc/arm-none-eabi/12.2.1/../../../../arm-none-eabi/lib/thumb/v7e-m/nofp/libc_nano.a(libc_a-signalr.o)
                0x0000000008005860                _kill_r
 .text._getpid_r
                0x0000000008005884        0x4 /opt/arm-none-eabi/bin/../lib/gcc/arm-none-eabi/12.2.1/../../../../arm-none-eabi/lib/thumb/v7e-m/nofp/libc_nano.a(libc_a-signalr.o)
                0x0000000008005884                _getpid_r
 .text._close   0x0000000008005888       0x10 /opt/arm-none-eabi/bin/../lib/gcc/arm-none-eabi/12.2.1/../../../../arm-none-eabi/lib/thumb/v7e-m/nofp/libnosys.a(close.o)
                0x0000000008005888                _close
 .text._fstat   0x0000000008005898       0x10 /opt/arm-none-eabi/bin/../lib/gcc/arm-none-eabi/12.2.1/../../../../arm-none-eabi/lib/thumb/v7e-m/nofp/libnosys.a(fstat.o)
                0x0000000008005898                _fstat
 .text._getpid  0x00000000080058a8       0x10 /opt/arm-none-eabi/bin/../lib/gcc/arm-none-eabi/12.2.1/../../../../arm-none-eabi/lib/thumb/v7e-m/nofp/libnosys.a(getpid.o)
                0x00000000080058a8                _getpid
 .text._isatty  0x00000000080058b8       0x10 /opt/arm-none-eabi/bin/../lib/gcc/arm-none-eabi/12.2.1/../../../../arm-none-eabi/lib/thumb/v7e-m/nofp/libnosys.a(isatty.o)
                0x00000000080058b8                _isatty
 .text._kill    0x00000000080058c8       0x10 /opt/arm-none-eabi/bin/../lib/gcc/arm-none-eabi/12.2.1/../../../../arm-none-eabi/lib/thumb/v7e-m/nofp/libnosys.a(kill.o)
                0x00000000080058c8                _kill
 .text._lseek   0x00000000080058d8       0x10 /opt/arm-none-eabi/bin/../lib/gcc/arm-none-eabi/12.2.1/../../../../arm-none-eabi/lib/thumb/v7e-m/nofp/libnosys.a(lseek.o)
                0x00000000080058d8                _lseek
 .text._read    0x00000000080058e8       0x10 /opt/arm-none-eabi/bin/../lib/gcc/arm-none-eabi/12.2.1/../../../../arm-none-eabi/lib/thumb/v7e-m/nofp/libnosys.a(read.o)
                0x00000000080058e8                _read
 .text._sbrk    0x00000000080058f8       0x1c /opt/arm-none-eabi/bin/../lib/gcc/arm-none-eabi/12.2.1/../../../../arm-none-eabi/lib/thumb/v7e-m/nofp/libnosys.a(sbrk.o)
                0x00000000080058f8                _sbrk
 .text._write   0x0000000008005914       0x10 /opt/arm-none-eabi/bin/../lib/gcc/arm-none-eabi/12.2.1/../../../../arm-none-eabi/lib/thumb/v7e-m/nofp/libnosys.a(write.o)
                0x0000000008005914                _write
 .text._exit    0x0000000008005924        0x4 /opt/arm-none-eabi/bin/../lib/gcc/arm-none-eabi/12.2.1/../../../../arm-none-eabi/lib/thumb/v7e-m/nofp/libnosys.a(_exit.o)
                0x0000000008005924                _exit
 *(.glue_7)
 .glue_7        0x0000000008005928        0x0 linker stubs
 *(.glue_7t)
 .glue_7t       0x0000000008005928        0x0 linker stubs
 *(.eh_frame)
 .eh_frame      0x0000000008005928        0x0 /opt/arm-none-eabi/bin/../lib/gcc/arm-none-eabi/12.2.1/thumb/v7e-m/nofp/crtbegin.o
 *(.init)
 .init          0x0000000008005928        0x4 /opt/arm-none-eabi/bin/../lib/gcc/arm-none-eabi/12.2.1/thumb/v7e-m/nofp/crti.o
                0x0000000008005928                _init
 .init          0x000000000800592c        0x8 /opt/arm-none-eabi/bin/../lib/gcc/arm-none-eabi/12.2.1/thumb/v7e-m/nofp/crtn.o
 *(.fini)
 .fini          0x0000000008005934        0x4 /opt/arm-none-eabi/bin/../lib/gcc/arm-none-eabi/12.2.1/thumb/v7e-m/nofp/crti.o
                0x0000000008005934                _fini
 .fini          0x0000000008005938        0x8 /opt/arm-none-eabi/bin/../lib/gcc/arm-none-eabi/12.2.1/thumb/v7e-m/nofp/crtn.o
                0x0000000008005940                . = ALIGN (0x4)
                0x0000000008005940                _etext = .

.vfp11_veneer   0x0000000008005940        0x0
 .vfp11_veneer  0x0000000008005940        0x0 linker stubs

.v4_bx          0x0000000008005940        0x0
 .v4_bx         0x0000000008005940        0x0 linker stubs

.iplt           0x0000000008005940        0x0
 .iplt          0x0000000008005940        0x0 /opt/arm-none-eabi/bin/../lib/gcc/arm-none-eabi/12.2.1/thumb/v7e-m/nofp/crtbegin.o

.rodata         0x0000000008005940     0x1bc0
                0x0000000008005940                . = ALIGN (0x4)
 *(.rodata)
 .rodata        0x0000000008005940       0x18 build/gd32f4xx_rcu.o
 *(.rodata*)
 .rodata.LcdNT35510ReadID.str1.4
                0x0000000008005958       0x24 build/lcd.o
 .rodata.asc2_2412
                0x000000000800597c      0xd5c build/lcd.o
                0x000000000800597c                asc2_2412
 .rodata.asc2_1608
                0x00000000080066d8      0x5f0 build/lcd.o
                0x00000000080066d8                asc2_1608
 .rodata.asc2_1206
                0x0000000008006cc8      0x474 build/lcd.o
                0x0000000008006cc8                asc2_1206
 .rodata.main.str1.4
                0x000000000800713c       0x1a build/main.o
 .rodata._printf_float.str1.1
                0x0000000008007156       0x12 /opt/arm-none-eabi/bin/../lib/gcc/arm-none-eabi/12.2.1/../../../../arm-none-eabi/lib/thumb/v7e-m/nofp/libc_nano.a(libc_a-nano-vfprintf_float.o)
 .rodata._printf_i.str1.1
                0x0000000008007168       0x22 /opt/arm-none-eabi/bin/../lib/gcc/arm-none-eabi/12.2.1/../../../../arm-none-eabi/lib/thumb/v7e-m/nofp/libc_nano.a(libc_a-nano-vfprintf_i.o)
 .rodata._dtoa_r.str1.1
                0x000000000800718a       0xaa /opt/arm-none-eabi/bin/../lib/gcc/arm-none-eabi/12.2.1/../../../../arm-none-eabi/lib/thumb/v7e-m/nofp/libc_nano.a(libc_a-dtoa.o)
                                         0xac (size before relaxing)
 .rodata._Balloc.str1.1
                0x0000000008007234       0x76 /opt/arm-none-eabi/bin/../lib/gcc/arm-none-eabi/12.2.1/../../../../arm-none-eabi/lib/thumb/v7e-m/nofp/libc_nano.a(libc_a-mprec.o)
                                         0x8d (size before relaxing)
 .rodata.__multadd.str1.1
                0x00000000080072aa       0x11 /opt/arm-none-eabi/bin/../lib/gcc/arm-none-eabi/12.2.1/../../../../arm-none-eabi/lib/thumb/v7e-m/nofp/libc_nano.a(libc_a-mprec.o)
 *fill*         0x00000000080072aa        0x2 
 .rodata.p05.0  0x00000000080072ac        0xc /opt/arm-none-eabi/bin/../lib/gcc/arm-none-eabi/12.2.1/../../../../arm-none-eabi/lib/thumb/v7e-m/nofp/libc_nano.a(libc_a-mprec.o)
 .rodata.__mprec_bigtens
                0x00000000080072b8       0x28 /opt/arm-none-eabi/bin/../lib/gcc/arm-none-eabi/12.2.1/../../../../arm-none-eabi/lib/thumb/v7e-m/nofp/libc_nano.a(libc_a-mprec.o)
                0x00000000080072b8                __mprec_bigtens
 .rodata.__mprec_tens
                0x00000000080072e0       0xc8 /opt/arm-none-eabi/bin/../lib/gcc/arm-none-eabi/12.2.1/../../../../arm-none-eabi/lib/thumb/v7e-m/nofp/libc_nano.a(libc_a-mprec.o)
                0x00000000080072e0                __mprec_tens
 .rodata._svfprintf_r.str1.1
                0x00000000080073a8       0x11 /opt/arm-none-eabi/bin/../lib/gcc/arm-none-eabi/12.2.1/../../../../arm-none-eabi/lib/thumb/v7e-m/nofp/libc_nano.a(libc_a-nano-svfprintf.o)
 .rodata._vfprintf_r.str1.1
                0x00000000080073b9       0x11 /opt/arm-none-eabi/bin/../lib/gcc/arm-none-eabi/12.2.1/../../../../arm-none-eabi/lib/thumb/v7e-m/nofp/libc_nano.a(libc_a-nano-vfprintf.o)
 .rodata._setlocale_r.str1.1
                0x00000000080073b9        0x8 /opt/arm-none-eabi/bin/../lib/gcc/arm-none-eabi/12.2.1/../../../../arm-none-eabi/lib/thumb/v7e-m/nofp/libc_nano.a(libc_a-locale.o)
                                          0x9 (size before relaxing)
 .rodata.str1.1
                0x00000000080073c1        0x2 /opt/arm-none-eabi/bin/../lib/gcc/arm-none-eabi/12.2.1/../../../../arm-none-eabi/lib/thumb/v7e-m/nofp/libc_nano.a(libc_a-locale.o)
 .rodata.__assert_func.str1.1
                0x00000000080073c3       0x3c /opt/arm-none-eabi/bin/../lib/gcc/arm-none-eabi/12.2.1/../../../../arm-none-eabi/lib/thumb/v7e-m/nofp/libc_nano.a(libc_a-assert.o)
                                         0x3d (size before relaxing)
 .rodata._ctype_
                0x00000000080073ff      0x101 /opt/arm-none-eabi/bin/../lib/gcc/arm-none-eabi/12.2.1/../../../../arm-none-eabi/lib/thumb/v7e-m/nofp/libc_nano.a(libc_a-ctype_.o)
                0x00000000080073ff                _ctype_
                0x0000000008007500                . = ALIGN (0x4)

.rel.dyn        0x0000000008007500        0x0
 .rel.iplt      0x0000000008007500        0x0 /opt/arm-none-eabi/bin/../lib/gcc/arm-none-eabi/12.2.1/thumb/v7e-m/nofp/crtbegin.o

.ARM.extab
 *(.ARM.extab* .gnu.linkonce.armextab.*)

.ARM            0x0000000008007500        0x0
                0x0000000008007500                __exidx_start = .
 *(.ARM.exidx*)
                0x0000000008007500                __exidx_end = .

.preinit_array  0x0000000008007500        0x0
                0x0000000008007500                PROVIDE (__preinit_array_start = .)
 *(.preinit_array*)
                0x0000000008007500                PROVIDE (__preinit_array_end = .)

.init_array     0x0000000008007500        0x4
                0x0000000008007500                PROVIDE (__init_array_start = .)
 *(SORT_BY_NAME(.init_array.*))
 *(.init_array*)
 .init_array    0x0000000008007500        0x4 /opt/arm-none-eabi/bin/../lib/gcc/arm-none-eabi/12.2.1/thumb/v7e-m/nofp/crtbegin.o
                0x0000000008007504                PROVIDE (__init_array_end = .)

.fini_array     0x0000000008007504        0x4
                0x0000000008007504                PROVIDE (__fini_array_start = .)
 *(SORT_BY_NAME(.fini_array.*))
 *(.fini_array*)
 .fini_array    0x0000000008007504        0x4 /opt/arm-none-eabi/bin/../lib/gcc/arm-none-eabi/12.2.1/thumb/v7e-m/nofp/crtbegin.o
                0x0000000008007508                PROVIDE (__fini_array_end = .)
                0x0000000008007508                _sidata = LOADADDR (.data)

.data           0x0000000020000000      0x1e8 load address 0x0000000008007508
                0x0000000020000000                . = ALIGN (0x4)
                0x0000000020000000                _sdata = .
 *(.data)
 *(.data*)
 .data.SystemCoreClock
                0x0000000020000000        0x4 build/system_gd32f4xx.o
                0x0000000020000000                SystemCoreClock
 .data.BACK_COLOR
                0x0000000020000004        0x2 build/lcd.o
                0x0000000020000004                BACK_COLOR
 *fill*         0x0000000020000006        0x2 
 .data.BACK     0x0000000020000008        0xa build/main.o
                0x0000000020000008                BACK
 *fill*         0x0000000020000012        0x2 
 .data.POINT    0x0000000020000014        0xa build/main.o
                0x0000000020000014                POINT
 *fill*         0x000000002000001e        0x2 
 .data.__sglue  0x0000000020000020        0xc /opt/arm-none-eabi/bin/../lib/gcc/arm-none-eabi/12.2.1/../../../../arm-none-eabi/lib/thumb/v7e-m/nofp/libc_nano.a(libc_a-findfp.o)
                0x0000000020000020                __sglue
 .data._impure_ptr
                0x000000002000002c        0x4 /opt/arm-none-eabi/bin/../lib/gcc/arm-none-eabi/12.2.1/../../../../arm-none-eabi/lib/thumb/v7e-m/nofp/libc_nano.a(libc_a-impure.o)
                0x000000002000002c                _impure_ptr
 .data._impure_data
                0x0000000020000030       0x4c /opt/arm-none-eabi/bin/../lib/gcc/arm-none-eabi/12.2.1/../../../../arm-none-eabi/lib/thumb/v7e-m/nofp/libc_nano.a(libc_a-impure.o)
                0x0000000020000030                _impure_data
 .data.__global_locale
                0x000000002000007c      0x16c /opt/arm-none-eabi/bin/../lib/gcc/arm-none-eabi/12.2.1/../../../../arm-none-eabi/lib/thumb/v7e-m/nofp/libc_nano.a(libc_a-locale.o)
                0x000000002000007c                __global_locale
                0x00000000200001e8                . = ALIGN (0x4)
                0x00000000200001e8                _edata = .

.igot.plt       0x00000000200001e8        0x0 load address 0x00000000080076f0
 .igot.plt      0x00000000200001e8        0x0 /opt/arm-none-eabi/bin/../lib/gcc/arm-none-eabi/12.2.1/thumb/v7e-m/nofp/crtbegin.o
                0x00000000200001e8                . = ALIGN (0x4)

.bss            0x00000000200001e8      0x18c load address 0x00000000080076f0
                0x00000000200001e8                _sbss = .
                0x00000000200001e8                __bss_start__ = _sbss
 *(.bss)
 *(.bss*)
 .bss.completed.1
                0x00000000200001e8        0x1 /opt/arm-none-eabi/bin/../lib/gcc/arm-none-eabi/12.2.1/thumb/v7e-m/nofp/crtbegin.o
 *fill*         0x00000000200001e9        0x3 
 .bss.object.0  0x00000000200001ec       0x18 /opt/arm-none-eabi/bin/../lib/gcc/arm-none-eabi/12.2.1/thumb/v7e-m/nofp/crtbegin.o
 .bss.lcd_id    0x0000000020000204        0xc build/lcd.o
                0x0000000020000204                lcd_id
 .bss.lcddev    0x0000000020000210        0xe build/lcd.o
                0x0000000020000210                lcddev
 .bss.POINT_COLOR
                0x000000002000021e        0x2 build/lcd.o
                0x000000002000021e                POINT_COLOR
 .bss.delay     0x0000000020000220        0x4 build/systick.o
 .bss.__sf      0x0000000020000224      0x138 /opt/arm-none-eabi/bin/../lib/gcc/arm-none-eabi/12.2.1/../../../../arm-none-eabi/lib/thumb/v7e-m/nofp/libc_nano.a(libc_a-findfp.o)
                0x0000000020000224                __sf
 .bss.__stdio_exit_handler
                0x000000002000035c        0x4 /opt/arm-none-eabi/bin/../lib/gcc/arm-none-eabi/12.2.1/../../../../arm-none-eabi/lib/thumb/v7e-m/nofp/libc_nano.a(libc_a-findfp.o)
                0x000000002000035c                __stdio_exit_handler
 .bss.errno     0x0000000020000360        0x4 /opt/arm-none-eabi/bin/../lib/gcc/arm-none-eabi/12.2.1/../../../../arm-none-eabi/lib/thumb/v7e-m/nofp/libc_nano.a(libc_a-reent.o)
                0x0000000020000360                errno
 .bss.__lock___malloc_recursive_mutex
                0x0000000020000364        0x1 /opt/arm-none-eabi/bin/../lib/gcc/arm-none-eabi/12.2.1/../../../../arm-none-eabi/lib/thumb/v7e-m/nofp/libc_nano.a(libc_a-lock.o)
                0x0000000020000364                __lock___malloc_recursive_mutex
 .bss.__lock___sfp_recursive_mutex
                0x0000000020000365        0x1 /opt/arm-none-eabi/bin/../lib/gcc/arm-none-eabi/12.2.1/../../../../arm-none-eabi/lib/thumb/v7e-m/nofp/libc_nano.a(libc_a-lock.o)
                0x0000000020000365                __lock___sfp_recursive_mutex
 *fill*         0x0000000020000366        0x2 
 .bss.__malloc_sbrk_start
                0x0000000020000368        0x4 /opt/arm-none-eabi/bin/../lib/gcc/arm-none-eabi/12.2.1/../../../../arm-none-eabi/lib/thumb/v7e-m/nofp/libc_nano.a(libc_a-mallocr.o)
                0x0000000020000368                __malloc_sbrk_start
 .bss.__malloc_free_list
                0x000000002000036c        0x4 /opt/arm-none-eabi/bin/../lib/gcc/arm-none-eabi/12.2.1/../../../../arm-none-eabi/lib/thumb/v7e-m/nofp/libc_nano.a(libc_a-mallocr.o)
                0x000000002000036c                __malloc_free_list
 .bss.heap_end.0
                0x0000000020000370        0x4 /opt/arm-none-eabi/bin/../lib/gcc/arm-none-eabi/12.2.1/../../../../arm-none-eabi/lib/thumb/v7e-m/nofp/libnosys.a(sbrk.o)
 *(COMMON)
                0x0000000020000374                . = ALIGN (0x4)
                0x0000000020000374                _ebss = .
                0x0000000020000374                __bss_end__ = _ebss
                0x00000000080076f0                _sitcmram = LOADADDR (.tcmram)

.tcmram         0x0000000010000000        0x0 load address 0x00000000080076f0
                0x0000000010000000                . = ALIGN (0x4)
                0x0000000010000000                _stcmram = .
 *(.tcmram)
 *(.tcmram*)
                0x0000000010000000                . = ALIGN (0x4)
                0x0000000010000000                _etcmram = .

._user_heap_stack
                0x0000000020000374      0x604
                0x0000000020000378                . = ALIGN (0x8)
 *fill*         0x0000000020000374        0x4 
                0x0000000020000378                PROVIDE (end = .)
                [!provide]                        PROVIDE (_end = .)
                0x0000000020000578                . = (. + _Min_Heap_Size)
 *fill*         0x0000000020000378      0x200 
                0x0000000020000978                . = (. + _Min_Stack_Size)
 *fill*         0x0000000020000578      0x400 
                0x0000000020000978                . = ALIGN (0x8)

/DISCARD/
 libc.a(*)
 libm.a(*)
 libgcc.a(*)

.ARM.attributes
                0x0000000000000000       0x2a
 *(.ARM.attributes)
 .ARM.attributes
                0x0000000000000000       0x1e /opt/arm-none-eabi/bin/../lib/gcc/arm-none-eabi/12.2.1/thumb/v7e-m/nofp/crti.o
 .ARM.attributes
                0x000000000000001e       0x2e /opt/arm-none-eabi/bin/../lib/gcc/arm-none-eabi/12.2.1/thumb/v7e-m/nofp/crtbegin.o
 .ARM.attributes
                0x000000000000004c       0x2e build/system_gd32f4xx.o
 .ARM.attributes
                0x000000000000007a       0x2e build/gd32f4xx_gpio.o
 .ARM.attributes
                0x00000000000000a8       0x2e build/gd32f4xx_rcu.o
 .ARM.attributes
                0x00000000000000d6       0x2e build/gd32f4xx_usart.o
 .ARM.attributes
                0x0000000000000104       0x2e build/gd32f4xx_exmc.o
 .ARM.attributes
                0x0000000000000132       0x2e build/key.o
 .ARM.attributes
                0x0000000000000160       0x2e build/led.o
 .ARM.attributes
                0x000000000000018e       0x2e build/lcd.o
 .ARM.attributes
                0x00000000000001bc       0x2e build/usart0.o
 .ARM.attributes
                0x00000000000001ea       0x2e build/gd32f4xx_it.o
 .ARM.attributes
                0x0000000000000218       0x2e build/systick.o
 .ARM.attributes
                0x0000000000000246       0x2e build/main.o
 .ARM.attributes
                0x0000000000000274       0x21 build/startup_gd32f450_470.o
 .ARM.attributes
                0x0000000000000295       0x2e /opt/arm-none-eabi/bin/../lib/gcc/arm-none-eabi/12.2.1/../../../../arm-none-eabi/lib/thumb/v7e-m/nofp/libc_nano.a(libc_a-nano-vfprintf_float.o)
 .ARM.attributes
                0x00000000000002c3       0x2e /opt/arm-none-eabi/bin/../lib/gcc/arm-none-eabi/12.2.1/../../../../arm-none-eabi/lib/thumb/v7e-m/nofp/libc_nano.a(libc_a-nano-vfprintf_i.o)
 .ARM.attributes
                0x00000000000002f1       0x2e /opt/arm-none-eabi/bin/../lib/gcc/arm-none-eabi/12.2.1/../../../../arm-none-eabi/lib/thumb/v7e-m/nofp/libc_nano.a(libc_a-findfp.o)
 .ARM.attributes
                0x000000000000031f       0x2e /opt/arm-none-eabi/bin/../lib/gcc/arm-none-eabi/12.2.1/../../../../arm-none-eabi/lib/thumb/v7e-m/nofp/libc_nano.a(libc_a-fwalk.o)
 .ARM.attributes
                0x000000000000034d       0x2e /opt/arm-none-eabi/bin/../lib/gcc/arm-none-eabi/12.2.1/../../../../arm-none-eabi/lib/thumb/v7e-m/nofp/libc_nano.a(libc_a-printf.o)
 .ARM.attributes
                0x000000000000037b       0x2e /opt/arm-none-eabi/bin/../lib/gcc/arm-none-eabi/12.2.1/../../../../arm-none-eabi/lib/thumb/v7e-m/nofp/libc_nano.a(libc_a-puts.o)
 .ARM.attributes
                0x00000000000003a9       0x2e /opt/arm-none-eabi/bin/../lib/gcc/arm-none-eabi/12.2.1/../../../../arm-none-eabi/lib/thumb/v7e-m/nofp/libc_nano.a(libc_a-sprintf.o)
 .ARM.attributes
                0x00000000000003d7       0x2e /opt/arm-none-eabi/bin/../lib/gcc/arm-none-eabi/12.2.1/../../../../arm-none-eabi/lib/thumb/v7e-m/nofp/libc_nano.a(libc_a-stdio.o)
 .ARM.attributes
                0x0000000000000405       0x2e /opt/arm-none-eabi/bin/../lib/gcc/arm-none-eabi/12.2.1/../../../../arm-none-eabi/lib/thumb/v7e-m/nofp/libc_nano.a(libc_a-wbuf.o)
 .ARM.attributes
                0x0000000000000433       0x2e /opt/arm-none-eabi/bin/../lib/gcc/arm-none-eabi/12.2.1/../../../../arm-none-eabi/lib/thumb/v7e-m/nofp/libc_nano.a(libc_a-wsetup.o)
 .ARM.attributes
                0x0000000000000461       0x2e /opt/arm-none-eabi/bin/../lib/gcc/arm-none-eabi/12.2.1/../../../../arm-none-eabi/lib/thumb/v7e-m/nofp/libc_nano.a(libc_a-memset.o)
 .ARM.attributes
                0x000000000000048f       0x2e /opt/arm-none-eabi/bin/../lib/gcc/arm-none-eabi/12.2.1/../../../../arm-none-eabi/lib/thumb/v7e-m/nofp/libc_nano.a(libc_a-localeconv.o)
 .ARM.attributes
                0x00000000000004bd       0x2e /opt/arm-none-eabi/bin/../lib/gcc/arm-none-eabi/12.2.1/../../../../arm-none-eabi/lib/thumb/v7e-m/nofp/libc_nano.a(libc_a-closer.o)
 .ARM.attributes
                0x00000000000004eb       0x2e /opt/arm-none-eabi/bin/../lib/gcc/arm-none-eabi/12.2.1/../../../../arm-none-eabi/lib/thumb/v7e-m/nofp/libc_nano.a(libc_a-reent.o)
 .ARM.attributes
                0x0000000000000519       0x2e /opt/arm-none-eabi/bin/../lib/gcc/arm-none-eabi/12.2.1/../../../../arm-none-eabi/lib/thumb/v7e-m/nofp/libc_nano.a(libc_a-impure.o)
 .ARM.attributes
                0x0000000000000547       0x2e /opt/arm-none-eabi/bin/../lib/gcc/arm-none-eabi/12.2.1/../../../../arm-none-eabi/lib/thumb/v7e-m/nofp/libc_nano.a(libc_a-lseekr.o)
 .ARM.attributes
                0x0000000000000575       0x2e /opt/arm-none-eabi/bin/../lib/gcc/arm-none-eabi/12.2.1/../../../../arm-none-eabi/lib/thumb/v7e-m/nofp/libc_nano.a(libc_a-readr.o)
 .ARM.attributes
                0x00000000000005a3       0x2e /opt/arm-none-eabi/bin/../lib/gcc/arm-none-eabi/12.2.1/../../../../arm-none-eabi/lib/thumb/v7e-m/nofp/libc_nano.a(libc_a-writer.o)
 .ARM.attributes
                0x00000000000005d1       0x2e /opt/arm-none-eabi/bin/../lib/gcc/arm-none-eabi/12.2.1/../../../../arm-none-eabi/lib/thumb/v7e-m/nofp/libc_nano.a(libc_a-init.o)
 .ARM.attributes
                0x00000000000005ff       0x2e /opt/arm-none-eabi/bin/../lib/gcc/arm-none-eabi/12.2.1/../../../../arm-none-eabi/lib/thumb/v7e-m/nofp/libc_nano.a(libc_a-lock.o)
 .ARM.attributes
                0x000000000000062d       0x1c /opt/arm-none-eabi/bin/../lib/gcc/arm-none-eabi/12.2.1/../../../../arm-none-eabi/lib/thumb/v7e-m/nofp/libc_nano.a(libc_a-memchr.o)
 .ARM.attributes
                0x0000000000000649       0x17 /opt/arm-none-eabi/bin/../lib/gcc/arm-none-eabi/12.2.1/../../../../arm-none-eabi/lib/thumb/v7e-m/nofp/libc_nano.a(libc_a-strlen.o)
 .ARM.attributes
                0x0000000000000660       0x2e /opt/arm-none-eabi/bin/../lib/gcc/arm-none-eabi/12.2.1/../../../../arm-none-eabi/lib/thumb/v7e-m/nofp/libc_nano.a(libc_a-dtoa.o)
 .ARM.attributes
                0x000000000000068e       0x2e /opt/arm-none-eabi/bin/../lib/gcc/arm-none-eabi/12.2.1/../../../../arm-none-eabi/lib/thumb/v7e-m/nofp/libc_nano.a(libc_a-freer.o)
 .ARM.attributes
                0x00000000000006bc       0x2e /opt/arm-none-eabi/bin/../lib/gcc/arm-none-eabi/12.2.1/../../../../arm-none-eabi/lib/thumb/v7e-m/nofp/libc_nano.a(libc_a-malloc.o)
 .ARM.attributes
                0x00000000000006ea       0x2e /opt/arm-none-eabi/bin/../lib/gcc/arm-none-eabi/12.2.1/../../../../arm-none-eabi/lib/thumb/v7e-m/nofp/libc_nano.a(libc_a-mallocr.o)
 .ARM.attributes
                0x0000000000000718       0x2e /opt/arm-none-eabi/bin/../lib/gcc/arm-none-eabi/12.2.1/../../../../arm-none-eabi/lib/thumb/v7e-m/nofp/libc_nano.a(libc_a-mlock.o)
 .ARM.attributes
                0x0000000000000746       0x2e /opt/arm-none-eabi/bin/../lib/gcc/arm-none-eabi/12.2.1/../../../../arm-none-eabi/lib/thumb/v7e-m/nofp/libc_nano.a(libc_a-mprec.o)
 .ARM.attributes
                0x0000000000000774       0x2e /opt/arm-none-eabi/bin/../lib/gcc/arm-none-eabi/12.2.1/../../../../arm-none-eabi/lib/thumb/v7e-m/nofp/libc_nano.a(libc_a-nano-svfprintf.o)
 .ARM.attributes
                0x00000000000007a2       0x2e /opt/arm-none-eabi/bin/../lib/gcc/arm-none-eabi/12.2.1/../../../../arm-none-eabi/lib/thumb/v7e-m/nofp/libc_nano.a(libc_a-nano-vfprintf.o)
 .ARM.attributes
                0x00000000000007d0       0x2e /opt/arm-none-eabi/bin/../lib/gcc/arm-none-eabi/12.2.1/../../../../arm-none-eabi/lib/thumb/v7e-m/nofp/libc_nano.a(libc_a-fflush.o)
 .ARM.attributes
                0x00000000000007fe       0x2e /opt/arm-none-eabi/bin/../lib/gcc/arm-none-eabi/12.2.1/../../../../arm-none-eabi/lib/thumb/v7e-m/nofp/libc_nano.a(libc_a-makebuf.o)
 .ARM.attributes
                0x000000000000082c       0x2e /opt/arm-none-eabi/bin/../lib/gcc/arm-none-eabi/12.2.1/../../../../arm-none-eabi/lib/thumb/v7e-m/nofp/libc_nano.a(libc_a-memmove.o)
 .ARM.attributes
                0x000000000000085a       0x2e /opt/arm-none-eabi/bin/../lib/gcc/arm-none-eabi/12.2.1/../../../../arm-none-eabi/lib/thumb/v7e-m/nofp/libc_nano.a(libc_a-locale.o)
 .ARM.attributes
                0x0000000000000888       0x2e /opt/arm-none-eabi/bin/../lib/gcc/arm-none-eabi/12.2.1/../../../../arm-none-eabi/lib/thumb/v7e-m/nofp/libc_nano.a(libc_a-fstatr.o)
 .ARM.attributes
                0x00000000000008b6       0x2e /opt/arm-none-eabi/bin/../lib/gcc/arm-none-eabi/12.2.1/../../../../arm-none-eabi/lib/thumb/v7e-m/nofp/libc_nano.a(libc_a-isattyr.o)
 .ARM.attributes
                0x00000000000008e4       0x2e /opt/arm-none-eabi/bin/../lib/gcc/arm-none-eabi/12.2.1/../../../../arm-none-eabi/lib/thumb/v7e-m/nofp/libc_nano.a(libc_a-sbrkr.o)
 .ARM.attributes
                0x0000000000000912       0x2e /opt/arm-none-eabi/bin/../lib/gcc/arm-none-eabi/12.2.1/../../../../arm-none-eabi/lib/thumb/v7e-m/nofp/libc_nano.a(libc_a-memcpy-stub.o)
 .ARM.attributes
                0x0000000000000940       0x2e /opt/arm-none-eabi/bin/../lib/gcc/arm-none-eabi/12.2.1/../../../../arm-none-eabi/lib/thumb/v7e-m/nofp/libc_nano.a(libc_a-assert.o)
 .ARM.attributes
                0x000000000000096e       0x2e /opt/arm-none-eabi/bin/../lib/gcc/arm-none-eabi/12.2.1/../../../../arm-none-eabi/lib/thumb/v7e-m/nofp/libc_nano.a(libc_a-callocr.o)
 .ARM.attributes
                0x000000000000099c       0x2e /opt/arm-none-eabi/bin/../lib/gcc/arm-none-eabi/12.2.1/../../../../arm-none-eabi/lib/thumb/v7e-m/nofp/libc_nano.a(libc_a-mbtowc_r.o)
 .ARM.attributes
                0x00000000000009ca       0x2e /opt/arm-none-eabi/bin/../lib/gcc/arm-none-eabi/12.2.1/../../../../arm-none-eabi/lib/thumb/v7e-m/nofp/libc_nano.a(libc_a-reallocr.o)
 .ARM.attributes
                0x00000000000009f8       0x2e /opt/arm-none-eabi/bin/../lib/gcc/arm-none-eabi/12.2.1/../../../../arm-none-eabi/lib/thumb/v7e-m/nofp/libc_nano.a(libc_a-wctomb_r.o)
 .ARM.attributes
                0x0000000000000a26       0x2e /opt/arm-none-eabi/bin/../lib/gcc/arm-none-eabi/12.2.1/../../../../arm-none-eabi/lib/thumb/v7e-m/nofp/libc_nano.a(libc_a-ctype_.o)
 .ARM.attributes
                0x0000000000000a54       0x2e /opt/arm-none-eabi/bin/../lib/gcc/arm-none-eabi/12.2.1/../../../../arm-none-eabi/lib/thumb/v7e-m/nofp/libc_nano.a(libc_a-fprintf.o)
 .ARM.attributes
                0x0000000000000a82       0x2e /opt/arm-none-eabi/bin/../lib/gcc/arm-none-eabi/12.2.1/../../../../arm-none-eabi/lib/thumb/v7e-m/nofp/libc_nano.a(libc_a-abort.o)
 .ARM.attributes
                0x0000000000000ab0       0x2e /opt/arm-none-eabi/bin/../lib/gcc/arm-none-eabi/12.2.1/../../../../arm-none-eabi/lib/thumb/v7e-m/nofp/libc_nano.a(libc_a-msizer.o)
 .ARM.attributes
                0x0000000000000ade       0x2e /opt/arm-none-eabi/bin/../lib/gcc/arm-none-eabi/12.2.1/../../../../arm-none-eabi/lib/thumb/v7e-m/nofp/libc_nano.a(libc_a-signal.o)
 .ARM.attributes
                0x0000000000000b0c       0x2e /opt/arm-none-eabi/bin/../lib/gcc/arm-none-eabi/12.2.1/../../../../arm-none-eabi/lib/thumb/v7e-m/nofp/libc_nano.a(libc_a-signalr.o)
 .ARM.attributes
                0x0000000000000b3a       0x2e /opt/arm-none-eabi/bin/../lib/gcc/arm-none-eabi/12.2.1/../../../../arm-none-eabi/lib/thumb/v7e-m/nofp/libnosys.a(close.o)
 .ARM.attributes
                0x0000000000000b68       0x2e /opt/arm-none-eabi/bin/../lib/gcc/arm-none-eabi/12.2.1/../../../../arm-none-eabi/lib/thumb/v7e-m/nofp/libnosys.a(fstat.o)
 .ARM.attributes
                0x0000000000000b96       0x2e /opt/arm-none-eabi/bin/../lib/gcc/arm-none-eabi/12.2.1/../../../../arm-none-eabi/lib/thumb/v7e-m/nofp/libnosys.a(getpid.o)
 .ARM.attributes
                0x0000000000000bc4       0x2e /opt/arm-none-eabi/bin/../lib/gcc/arm-none-eabi/12.2.1/../../../../arm-none-eabi/lib/thumb/v7e-m/nofp/libnosys.a(isatty.o)
 .ARM.attributes
                0x0000000000000bf2       0x2e /opt/arm-none-eabi/bin/../lib/gcc/arm-none-eabi/12.2.1/../../../../arm-none-eabi/lib/thumb/v7e-m/nofp/libnosys.a(kill.o)
 .ARM.attributes
                0x0000000000000c20       0x2e /opt/arm-none-eabi/bin/../lib/gcc/arm-none-eabi/12.2.1/../../../../arm-none-eabi/lib/thumb/v7e-m/nofp/libnosys.a(lseek.o)
 .ARM.attributes
                0x0000000000000c4e       0x2e /opt/arm-none-eabi/bin/../lib/gcc/arm-none-eabi/12.2.1/../../../../arm-none-eabi/lib/thumb/v7e-m/nofp/libnosys.a(read.o)
 .ARM.attributes
                0x0000000000000c7c       0x2e /opt/arm-none-eabi/bin/../lib/gcc/arm-none-eabi/12.2.1/../../../../arm-none-eabi/lib/thumb/v7e-m/nofp/libnosys.a(sbrk.o)
 .ARM.attributes
                0x0000000000000caa       0x2e /opt/arm-none-eabi/bin/../lib/gcc/arm-none-eabi/12.2.1/../../../../arm-none-eabi/lib/thumb/v7e-m/nofp/libnosys.a(write.o)
 .ARM.attributes
                0x0000000000000cd8       0x2e /opt/arm-none-eabi/bin/../lib/gcc/arm-none-eabi/12.2.1/../../../../arm-none-eabi/lib/thumb/v7e-m/nofp/libnosys.a(_exit.o)
 .ARM.attributes
                0x0000000000000d06       0x1e /opt/arm-none-eabi/bin/../lib/gcc/arm-none-eabi/12.2.1/thumb/v7e-m/nofp/libgcc.a(_arm_addsubdf3.o)
 .ARM.attributes
                0x0000000000000d24       0x1e /opt/arm-none-eabi/bin/../lib/gcc/arm-none-eabi/12.2.1/thumb/v7e-m/nofp/libgcc.a(_arm_muldivdf3.o)
 .ARM.attributes
                0x0000000000000d42       0x1e /opt/arm-none-eabi/bin/../lib/gcc/arm-none-eabi/12.2.1/thumb/v7e-m/nofp/libgcc.a(_arm_cmpdf2.o)
 .ARM.attributes
                0x0000000000000d60       0x1e /opt/arm-none-eabi/bin/../lib/gcc/arm-none-eabi/12.2.1/thumb/v7e-m/nofp/libgcc.a(_arm_unorddf2.o)
 .ARM.attributes
                0x0000000000000d7e       0x1e /opt/arm-none-eabi/bin/../lib/gcc/arm-none-eabi/12.2.1/thumb/v7e-m/nofp/libgcc.a(_arm_fixdfsi.o)
 .ARM.attributes
                0x0000000000000d9c       0x1e /opt/arm-none-eabi/bin/../lib/gcc/arm-none-eabi/12.2.1/thumb/v7e-m/nofp/crtn.o
OUTPUT(build/gd32f470zgt6.elf elf32-littlearm)
LOAD linker stubs
LOAD /opt/arm-none-eabi/bin/../lib/gcc/arm-none-eabi/12.2.1/../../../../arm-none-eabi/lib/thumb/v7e-m/nofp/libc.a
LOAD /opt/arm-none-eabi/bin/../lib/gcc/arm-none-eabi/12.2.1/../../../../arm-none-eabi/lib/thumb/v7e-m/nofp/libm.a
LOAD /opt/arm-none-eabi/bin/../lib/gcc/arm-none-eabi/12.2.1/thumb/v7e-m/nofp/libgcc.a

.comment        0x0000000000000000       0x39
 .comment       0x0000000000000000       0x39 /opt/arm-none-eabi/bin/../lib/gcc/arm-none-eabi/12.2.1/thumb/v7e-m/nofp/crtbegin.o
                                         0x3a (size before relaxing)
 .comment       0x0000000000000039       0x3a build/system_gd32f4xx.o
 .comment       0x0000000000000039       0x3a build/gd32f4xx_gpio.o
 .comment       0x0000000000000039       0x3a build/gd32f4xx_rcu.o
 .comment       0x0000000000000039       0x3a build/gd32f4xx_usart.o
 .comment       0x0000000000000039       0x3a build/gd32f4xx_exmc.o
 .comment       0x0000000000000039       0x3a build/key.o
 .comment       0x0000000000000039       0x3a build/led.o
 .comment       0x0000000000000039       0x3a build/lcd.o
 .comment       0x0000000000000039       0x3a build/usart0.o
 .comment       0x0000000000000039       0x3a build/gd32f4xx_it.o
 .comment       0x0000000000000039       0x3a build/systick.o
 .comment       0x0000000000000039       0x3a build/main.o
 .comment       0x0000000000000039       0x3a /opt/arm-none-eabi/bin/../lib/gcc/arm-none-eabi/12.2.1/../../../../arm-none-eabi/lib/thumb/v7e-m/nofp/libc_nano.a(libc_a-nano-vfprintf_float.o)
 .comment       0x0000000000000039       0x3a /opt/arm-none-eabi/bin/../lib/gcc/arm-none-eabi/12.2.1/../../../../arm-none-eabi/lib/thumb/v7e-m/nofp/libc_nano.a(libc_a-nano-vfprintf_i.o)
 .comment       0x0000000000000039       0x3a /opt/arm-none-eabi/bin/../lib/gcc/arm-none-eabi/12.2.1/../../../../arm-none-eabi/lib/thumb/v7e-m/nofp/libc_nano.a(libc_a-findfp.o)
 .comment       0x0000000000000039       0x3a /opt/arm-none-eabi/bin/../lib/gcc/arm-none-eabi/12.2.1/../../../../arm-none-eabi/lib/thumb/v7e-m/nofp/libc_nano.a(libc_a-fwalk.o)
 .comment       0x0000000000000039       0x3a /opt/arm-none-eabi/bin/../lib/gcc/arm-none-eabi/12.2.1/../../../../arm-none-eabi/lib/thumb/v7e-m/nofp/libc_nano.a(libc_a-printf.o)
 .comment       0x0000000000000039       0x3a /opt/arm-none-eabi/bin/../lib/gcc/arm-none-eabi/12.2.1/../../../../arm-none-eabi/lib/thumb/v7e-m/nofp/libc_nano.a(libc_a-puts.o)
 .comment       0x0000000000000039       0x3a /opt/arm-none-eabi/bin/../lib/gcc/arm-none-eabi/12.2.1/../../../../arm-none-eabi/lib/thumb/v7e-m/nofp/libc_nano.a(libc_a-sprintf.o)
 .comment       0x0000000000000039       0x3a /opt/arm-none-eabi/bin/../lib/gcc/arm-none-eabi/12.2.1/../../../../arm-none-eabi/lib/thumb/v7e-m/nofp/libc_nano.a(libc_a-stdio.o)
 .comment       0x0000000000000039       0x3a /opt/arm-none-eabi/bin/../lib/gcc/arm-none-eabi/12.2.1/../../../../arm-none-eabi/lib/thumb/v7e-m/nofp/libc_nano.a(libc_a-wbuf.o)
 .comment       0x0000000000000039       0x3a /opt/arm-none-eabi/bin/../lib/gcc/arm-none-eabi/12.2.1/../../../../arm-none-eabi/lib/thumb/v7e-m/nofp/libc_nano.a(libc_a-wsetup.o)
 .comment       0x0000000000000039       0x3a /opt/arm-none-eabi/bin/../lib/gcc/arm-none-eabi/12.2.1/../../../../arm-none-eabi/lib/thumb/v7e-m/nofp/libc_nano.a(libc_a-memset.o)
 .comment       0x0000000000000039       0x3a /opt/arm-none-eabi/bin/../lib/gcc/arm-none-eabi/12.2.1/../../../../arm-none-eabi/lib/thumb/v7e-m/nofp/libc_nano.a(libc_a-localeconv.o)
 .comment       0x0000000000000039       0x3a /opt/arm-none-eabi/bin/../lib/gcc/arm-none-eabi/12.2.1/../../../../arm-none-eabi/lib/thumb/v7e-m/nofp/libc_nano.a(libc_a-closer.o)
 .comment       0x0000000000000039       0x3a /opt/arm-none-eabi/bin/../lib/gcc/arm-none-eabi/12.2.1/../../../../arm-none-eabi/lib/thumb/v7e-m/nofp/libc_nano.a(libc_a-reent.o)
 .comment       0x0000000000000039       0x3a /opt/arm-none-eabi/bin/../lib/gcc/arm-none-eabi/12.2.1/../../../../arm-none-eabi/lib/thumb/v7e-m/nofp/libc_nano.a(libc_a-impure.o)
 .comment       0x0000000000000039       0x3a /opt/arm-none-eabi/bin/../lib/gcc/arm-none-eabi/12.2.1/../../../../arm-none-eabi/lib/thumb/v7e-m/nofp/libc_nano.a(libc_a-lseekr.o)
 .comment       0x0000000000000039       0x3a /opt/arm-none-eabi/bin/../lib/gcc/arm-none-eabi/12.2.1/../../../../arm-none-eabi/lib/thumb/v7e-m/nofp/libc_nano.a(libc_a-readr.o)
 .comment       0x0000000000000039       0x3a /opt/arm-none-eabi/bin/../lib/gcc/arm-none-eabi/12.2.1/../../../../arm-none-eabi/lib/thumb/v7e-m/nofp/libc_nano.a(libc_a-writer.o)
 .comment       0x0000000000000039       0x3a /opt/arm-none-eabi/bin/../lib/gcc/arm-none-eabi/12.2.1/../../../../arm-none-eabi/lib/thumb/v7e-m/nofp/libc_nano.a(libc_a-init.o)
 .comment       0x0000000000000039       0x3a /opt/arm-none-eabi/bin/../lib/gcc/arm-none-eabi/12.2.1/../../../../arm-none-eabi/lib/thumb/v7e-m/nofp/libc_nano.a(libc_a-lock.o)
 .comment       0x0000000000000039       0x3a /opt/arm-none-eabi/bin/../lib/gcc/arm-none-eabi/12.2.1/../../../../arm-none-eabi/lib/thumb/v7e-m/nofp/libc_nano.a(libc_a-dtoa.o)
 .comment       0x0000000000000039       0x3a /opt/arm-none-eabi/bin/../lib/gcc/arm-none-eabi/12.2.1/../../../../arm-none-eabi/lib/thumb/v7e-m/nofp/libc_nano.a(libc_a-freer.o)
 .comment       0x0000000000000039       0x3a /opt/arm-none-eabi/bin/../lib/gcc/arm-none-eabi/12.2.1/../../../../arm-none-eabi/lib/thumb/v7e-m/nofp/libc_nano.a(libc_a-malloc.o)
 .comment       0x0000000000000039       0x3a /opt/arm-none-eabi/bin/../lib/gcc/arm-none-eabi/12.2.1/../../../../arm-none-eabi/lib/thumb/v7e-m/nofp/libc_nano.a(libc_a-mallocr.o)
 .comment       0x0000000000000039       0x3a /opt/arm-none-eabi/bin/../lib/gcc/arm-none-eabi/12.2.1/../../../../arm-none-eabi/lib/thumb/v7e-m/nofp/libc_nano.a(libc_a-mlock.o)
 .comment       0x0000000000000039       0x3a /opt/arm-none-eabi/bin/../lib/gcc/arm-none-eabi/12.2.1/../../../../arm-none-eabi/lib/thumb/v7e-m/nofp/libc_nano.a(libc_a-mprec.o)
 .comment       0x0000000000000039       0x3a /opt/arm-none-eabi/bin/../lib/gcc/arm-none-eabi/12.2.1/../../../../arm-none-eabi/lib/thumb/v7e-m/nofp/libc_nano.a(libc_a-nano-svfprintf.o)
 .comment       0x0000000000000039       0x3a /opt/arm-none-eabi/bin/../lib/gcc/arm-none-eabi/12.2.1/../../../../arm-none-eabi/lib/thumb/v7e-m/nofp/libc_nano.a(libc_a-nano-vfprintf.o)
 .comment       0x0000000000000039       0x3a /opt/arm-none-eabi/bin/../lib/gcc/arm-none-eabi/12.2.1/../../../../arm-none-eabi/lib/thumb/v7e-m/nofp/libc_nano.a(libc_a-fflush.o)
 .comment       0x0000000000000039       0x3a /opt/arm-none-eabi/bin/../lib/gcc/arm-none-eabi/12.2.1/../../../../arm-none-eabi/lib/thumb/v7e-m/nofp/libc_nano.a(libc_a-makebuf.o)
 .comment       0x0000000000000039       0x3a /opt/arm-none-eabi/bin/../lib/gcc/arm-none-eabi/12.2.1/../../../../arm-none-eabi/lib/thumb/v7e-m/nofp/libc_nano.a(libc_a-memmove.o)
 .comment       0x0000000000000039       0x3a /opt/arm-none-eabi/bin/../lib/gcc/arm-none-eabi/12.2.1/../../../../arm-none-eabi/lib/thumb/v7e-m/nofp/libc_nano.a(libc_a-locale.o)
 .comment       0x0000000000000039       0x3a /opt/arm-none-eabi/bin/../lib/gcc/arm-none-eabi/12.2.1/../../../../arm-none-eabi/lib/thumb/v7e-m/nofp/libc_nano.a(libc_a-fstatr.o)
 .comment       0x0000000000000039       0x3a /opt/arm-none-eabi/bin/../lib/gcc/arm-none-eabi/12.2.1/../../../../arm-none-eabi/lib/thumb/v7e-m/nofp/libc_nano.a(libc_a-isattyr.o)
 .comment       0x0000000000000039       0x3a /opt/arm-none-eabi/bin/../lib/gcc/arm-none-eabi/12.2.1/../../../../arm-none-eabi/lib/thumb/v7e-m/nofp/libc_nano.a(libc_a-sbrkr.o)
 .comment       0x0000000000000039       0x3a /opt/arm-none-eabi/bin/../lib/gcc/arm-none-eabi/12.2.1/../../../../arm-none-eabi/lib/thumb/v7e-m/nofp/libc_nano.a(libc_a-memcpy-stub.o)
 .comment       0x0000000000000039       0x3a /opt/arm-none-eabi/bin/../lib/gcc/arm-none-eabi/12.2.1/../../../../arm-none-eabi/lib/thumb/v7e-m/nofp/libc_nano.a(libc_a-assert.o)
 .comment       0x0000000000000039       0x3a /opt/arm-none-eabi/bin/../lib/gcc/arm-none-eabi/12.2.1/../../../../arm-none-eabi/lib/thumb/v7e-m/nofp/libc_nano.a(libc_a-callocr.o)
 .comment       0x0000000000000039       0x3a /opt/arm-none-eabi/bin/../lib/gcc/arm-none-eabi/12.2.1/../../../../arm-none-eabi/lib/thumb/v7e-m/nofp/libc_nano.a(libc_a-mbtowc_r.o)
 .comment       0x0000000000000039       0x3a /opt/arm-none-eabi/bin/../lib/gcc/arm-none-eabi/12.2.1/../../../../arm-none-eabi/lib/thumb/v7e-m/nofp/libc_nano.a(libc_a-reallocr.o)
 .comment       0x0000000000000039       0x3a /opt/arm-none-eabi/bin/../lib/gcc/arm-none-eabi/12.2.1/../../../../arm-none-eabi/lib/thumb/v7e-m/nofp/libc_nano.a(libc_a-wctomb_r.o)
 .comment       0x0000000000000039       0x3a /opt/arm-none-eabi/bin/../lib/gcc/arm-none-eabi/12.2.1/../../../../arm-none-eabi/lib/thumb/v7e-m/nofp/libc_nano.a(libc_a-ctype_.o)
 .comment       0x0000000000000039       0x3a /opt/arm-none-eabi/bin/../lib/gcc/arm-none-eabi/12.2.1/../../../../arm-none-eabi/lib/thumb/v7e-m/nofp/libc_nano.a(libc_a-fprintf.o)
 .comment       0x0000000000000039       0x3a /opt/arm-none-eabi/bin/../lib/gcc/arm-none-eabi/12.2.1/../../../../arm-none-eabi/lib/thumb/v7e-m/nofp/libc_nano.a(libc_a-abort.o)
 .comment       0x0000000000000039       0x3a /opt/arm-none-eabi/bin/../lib/gcc/arm-none-eabi/12.2.1/../../../../arm-none-eabi/lib/thumb/v7e-m/nofp/libc_nano.a(libc_a-msizer.o)
 .comment       0x0000000000000039       0x3a /opt/arm-none-eabi/bin/../lib/gcc/arm-none-eabi/12.2.1/../../../../arm-none-eabi/lib/thumb/v7e-m/nofp/libc_nano.a(libc_a-signal.o)
 .comment       0x0000000000000039       0x3a /opt/arm-none-eabi/bin/../lib/gcc/arm-none-eabi/12.2.1/../../../../arm-none-eabi/lib/thumb/v7e-m/nofp/libc_nano.a(libc_a-signalr.o)
 .comment       0x0000000000000039       0x3a /opt/arm-none-eabi/bin/../lib/gcc/arm-none-eabi/12.2.1/../../../../arm-none-eabi/lib/thumb/v7e-m/nofp/libnosys.a(close.o)
 .comment       0x0000000000000039       0x3a /opt/arm-none-eabi/bin/../lib/gcc/arm-none-eabi/12.2.1/../../../../arm-none-eabi/lib/thumb/v7e-m/nofp/libnosys.a(fstat.o)
 .comment       0x0000000000000039       0x3a /opt/arm-none-eabi/bin/../lib/gcc/arm-none-eabi/12.2.1/../../../../arm-none-eabi/lib/thumb/v7e-m/nofp/libnosys.a(getpid.o)
 .comment       0x0000000000000039       0x3a /opt/arm-none-eabi/bin/../lib/gcc/arm-none-eabi/12.2.1/../../../../arm-none-eabi/lib/thumb/v7e-m/nofp/libnosys.a(isatty.o)
 .comment       0x0000000000000039       0x3a /opt/arm-none-eabi/bin/../lib/gcc/arm-none-eabi/12.2.1/../../../../arm-none-eabi/lib/thumb/v7e-m/nofp/libnosys.a(kill.o)
 .comment       0x0000000000000039       0x3a /opt/arm-none-eabi/bin/../lib/gcc/arm-none-eabi/12.2.1/../../../../arm-none-eabi/lib/thumb/v7e-m/nofp/libnosys.a(lseek.o)
 .comment       0x0000000000000039       0x3a /opt/arm-none-eabi/bin/../lib/gcc/arm-none-eabi/12.2.1/../../../../arm-none-eabi/lib/thumb/v7e-m/nofp/libnosys.a(read.o)
 .comment       0x0000000000000039       0x3a /opt/arm-none-eabi/bin/../lib/gcc/arm-none-eabi/12.2.1/../../../../arm-none-eabi/lib/thumb/v7e-m/nofp/libnosys.a(sbrk.o)
 .comment       0x0000000000000039       0x3a /opt/arm-none-eabi/bin/../lib/gcc/arm-none-eabi/12.2.1/../../../../arm-none-eabi/lib/thumb/v7e-m/nofp/libnosys.a(write.o)
 .comment       0x0000000000000039       0x3a /opt/arm-none-eabi/bin/../lib/gcc/arm-none-eabi/12.2.1/../../../../arm-none-eabi/lib/thumb/v7e-m/nofp/libnosys.a(_exit.o)

Cross Reference Table

Symbol                                            File
ADC_IRQHandler                                    build/startup_gd32f450_470.o
BACK                                              build/main.o
BACK_COLOR                                        build/lcd.o
                                                  build/main.o
BlockWrite                                        build/lcd.o
BusFault_Handler                                  build/gd32f4xx_it.o
CAN0_EWMC_IRQHandler                              build/startup_gd32f450_470.o
CAN0_RX0_IRQHandler                               build/startup_gd32f450_470.o
CAN0_RX1_IRQHandler                               build/startup_gd32f450_470.o
CAN0_TX_IRQHandler                                build/startup_gd32f450_470.o
CAN1_EWMC_IRQHandler                              build/startup_gd32f450_470.o
CAN1_RX0_IRQHandler                               build/startup_gd32f450_470.o
CAN1_RX1_IRQHandler                               build/startup_gd32f450_470.o
CAN1_TX_IRQHandler                                build/startup_gd32f450_470.o
DCI_IRQHandler                                    build/startup_gd32f450_470.o
DMA0_Channel0_IRQHandler                          build/startup_gd32f450_470.o
DMA0_Channel1_IRQHandler                          build/startup_gd32f450_470.o
DMA0_Channel2_IRQHandler                          build/startup_gd32f450_470.o
DMA0_Channel3_IRQHandler                          build/startup_gd32f450_470.o
DMA0_Channel4_IRQHandler                          build/startup_gd32f450_470.o
DMA0_Channel5_IRQHandler                          build/startup_gd32f450_470.o
DMA0_Channel6_IRQHandler                          build/startup_gd32f450_470.o
DMA0_Channel7_IRQHandler                          build/startup_gd32f450_470.o
DMA1_Channel0_IRQHandler                          build/startup_gd32f450_470.o
DMA1_Channel1_IRQHandler                          build/startup_gd32f450_470.o
DMA1_Channel2_IRQHandler                          build/startup_gd32f450_470.o
DMA1_Channel3_IRQHandler                          build/startup_gd32f450_470.o
DMA1_Channel4_IRQHandler                          build/startup_gd32f450_470.o
DMA1_Channel5_IRQHandler                          build/startup_gd32f450_470.o
DMA1_Channel6_IRQHandler                          build/startup_gd32f450_470.o
DMA1_Channel7_IRQHandler                          build/startup_gd32f450_470.o
DebugMon_Handler                                  build/gd32f4xx_it.o
Default_Handler                                   build/startup_gd32f450_470.o
ENET_IRQHandler                                   build/startup_gd32f450_470.o
ENET_WKUP_IRQHandler                              build/startup_gd32f450_470.o
EXMC_IRQHandler                                   build/startup_gd32f450_470.o
EXTI0_IRQHandler                                  build/startup_gd32f450_470.o
EXTI10_15_IRQHandler                              build/startup_gd32f450_470.o
EXTI1_IRQHandler                                  build/startup_gd32f450_470.o
EXTI2_IRQHandler                                  build/startup_gd32f450_470.o
EXTI3_IRQHandler                                  build/startup_gd32f450_470.o
EXTI4_IRQHandler                                  build/startup_gd32f450_470.o
EXTI5_9_IRQHandler                                build/startup_gd32f450_470.o
FMC_IRQHandler                                    build/startup_gd32f450_470.o
FPU_IRQHandler                                    build/startup_gd32f450_470.o
HardFault_Handler                                 build/gd32f4xx_it.o
I2C0_ER_IRQHandler                                build/startup_gd32f450_470.o
I2C0_EV_IRQHandler                                build/startup_gd32f450_470.o
I2C1_ER_IRQHandler                                build/startup_gd32f450_470.o
I2C1_EV_IRQHandler                                build/startup_gd32f450_470.o
I2C2_ER_IRQHandler                                build/startup_gd32f450_470.o
I2C2_EV_IRQHandler                                build/startup_gd32f450_470.o
IPA_IRQHandler                                    build/startup_gd32f450_470.o
LCD_Clear                                         build/lcd.o
                                                  build/main.o
LCD_CtrlLinesConfig                               build/lcd.o
LCD_DrawPoint                                     build/lcd.o
LCD_FSMCConfig                                    build/lcd.o
LCD_Fast_DrawPoint                                build/lcd.o
LCD_HVGA_NT35510                                  build/lcd.o
LCD_Init                                          build/lcd.o
                                                  build/main.o
LCD_RD_DATA                                       build/lcd.o
LCD_ReadPoint                                     build/lcd.o
LCD_ReadReg                                       build/lcd.o
LCD_Scan_Dir                                      build/lcd.o
LCD_SetCursor                                     build/lcd.o
LCD_ShowChar                                      build/lcd.o
LCD_ShowString                                    build/lcd.o
                                                  build/main.o
LCD_WR_DATA                                       build/lcd.o
LCD_WR_REG                                        build/lcd.o
LCD_WriteRAM                                      build/lcd.o
LCD_WriteRAM_Prepare                              build/lcd.o
LCD_WriteReg                                      build/lcd.o
LVD_IRQHandler                                    build/startup_gd32f450_470.o
LcdNT35510ReadID                                  build/lcd.o
MemManage_Handler                                 build/gd32f4xx_it.o
NMI_Handler                                       build/gd32f4xx_it.o
NT35510_HY35_Initial_Code                         build/lcd.o
POINT                                             build/main.o
POINT_COLOR                                       build/lcd.o
                                                  build/main.o
PendSV_Handler                                    build/gd32f4xx_it.o
RCU_CTC_IRQHandler                                build/startup_gd32f450_470.o
RTC_Alarm_IRQHandler                              build/startup_gd32f450_470.o
RTC_WKUP_IRQHandler                               build/startup_gd32f450_470.o
Reset_Handler                                     build/startup_gd32f450_470.o
SDIO_IRQHandler                                   build/startup_gd32f450_470.o
SPI0_IRQHandler                                   build/startup_gd32f450_470.o
SPI1_IRQHandler                                   build/startup_gd32f450_470.o
SPI2_IRQHandler                                   build/startup_gd32f450_470.o
SPI3_IRQHandler                                   build/startup_gd32f450_470.o
SPI4_IRQHandler                                   build/startup_gd32f450_470.o
SPI5_IRQHandler                                   build/startup_gd32f450_470.o
SVC_Handler                                       build/gd32f4xx_it.o
SysTick_Handler                                   build/gd32f4xx_it.o
SystemCoreClock                                   build/system_gd32f4xx.o
                                                  build/systick.o
SystemCoreClockUpdate                             build/system_gd32f4xx.o
SystemInit                                        build/system_gd32f4xx.o
                                                  build/startup_gd32f450_470.o
TAMPER_STAMP_IRQHandler                           build/startup_gd32f450_470.o
TIMER0_BRK_TIMER8_IRQHandler                      build/startup_gd32f450_470.o
TIMER0_Channel_IRQHandler                         build/startup_gd32f450_470.o
TIMER0_TRG_CMT_TIMER10_IRQHandler                 build/startup_gd32f450_470.o
TIMER0_UP_TIMER9_IRQHandler                       build/startup_gd32f450_470.o
TIMER1_IRQHandler                                 build/startup_gd32f450_470.o
TIMER2_IRQHandler                                 build/startup_gd32f450_470.o
TIMER3_IRQHandler                                 build/startup_gd32f450_470.o
TIMER4_IRQHandler                                 build/startup_gd32f450_470.o
TIMER5_DAC_IRQHandler                             build/startup_gd32f450_470.o
TIMER6_IRQHandler                                 build/startup_gd32f450_470.o
TIMER7_BRK_TIMER11_IRQHandler                     build/startup_gd32f450_470.o
TIMER7_Channel_IRQHandler                         build/startup_gd32f450_470.o
TIMER7_TRG_CMT_TIMER13_IRQHandler                 build/startup_gd32f450_470.o
TIMER7_UP_TIMER12_IRQHandler                      build/startup_gd32f450_470.o
TLI_ER_IRQHandler                                 build/startup_gd32f450_470.o
TLI_IRQHandler                                    build/startup_gd32f450_470.o
TRNG_IRQHandler                                   build/startup_gd32f450_470.o
UART3_IRQHandler                                  build/startup_gd32f450_470.o
UART4_IRQHandler                                  build/startup_gd32f450_470.o
UART6_IRQHandler                                  build/startup_gd32f450_470.o
UART7_IRQHandler                                  build/startup_gd32f450_470.o
USART0_IRQHandler                                 build/startup_gd32f450_470.o
USART1_IRQHandler                                 build/startup_gd32f450_470.o
USART2_IRQHandler                                 build/startup_gd32f450_470.o
USART5_IRQHandler                                 build/startup_gd32f450_470.o
USBFS_IRQHandler                                  build/startup_gd32f450_470.o
USBFS_WKUP_IRQHandler                             build/startup_gd32f450_470.o
USBHS_EP1_In_IRQHandler                           build/startup_gd32f450_470.o
USBHS_EP1_Out_IRQHandler                          build/startup_gd32f450_470.o
USBHS_IRQHandler                                  build/startup_gd32f450_470.o
USBHS_WKUP_IRQHandler                             build/startup_gd32f450_470.o
UsageFault_Handler                                build/gd32f4xx_it.o
WWDGT_IRQHandler                                  build/startup_gd32f450_470.o
_Balloc                                           /opt/arm-none-eabi/bin/../lib/gcc/arm-none-eabi/12.2.1/../../../../arm-none-eabi/lib/thumb/v7e-m/nofp/libc_nano.a(libc_a-mprec.o)
                                                  /opt/arm-none-eabi/bin/../lib/gcc/arm-none-eabi/12.2.1/../../../../arm-none-eabi/lib/thumb/v7e-m/nofp/libc_nano.a(libc_a-dtoa.o)
_Bfree                                            /opt/arm-none-eabi/bin/../lib/gcc/arm-none-eabi/12.2.1/../../../../arm-none-eabi/lib/thumb/v7e-m/nofp/libc_nano.a(libc_a-mprec.o)
                                                  /opt/arm-none-eabi/bin/../lib/gcc/arm-none-eabi/12.2.1/../../../../arm-none-eabi/lib/thumb/v7e-m/nofp/libc_nano.a(libc_a-dtoa.o)
_PathLocale                                       /opt/arm-none-eabi/bin/../lib/gcc/arm-none-eabi/12.2.1/../../../../arm-none-eabi/lib/thumb/v7e-m/nofp/libc_nano.a(libc_a-locale.o)
__adddf3                                          /opt/arm-none-eabi/bin/../lib/gcc/arm-none-eabi/12.2.1/thumb/v7e-m/nofp/libgcc.a(_arm_addsubdf3.o)
__aeabi_cdcmpeq                                   /opt/arm-none-eabi/bin/../lib/gcc/arm-none-eabi/12.2.1/thumb/v7e-m/nofp/libgcc.a(_arm_cmpdf2.o)
__aeabi_cdcmple                                   /opt/arm-none-eabi/bin/../lib/gcc/arm-none-eabi/12.2.1/thumb/v7e-m/nofp/libgcc.a(_arm_cmpdf2.o)
__aeabi_cdrcmple                                  /opt/arm-none-eabi/bin/../lib/gcc/arm-none-eabi/12.2.1/thumb/v7e-m/nofp/libgcc.a(_arm_cmpdf2.o)
__aeabi_d2iz                                      /opt/arm-none-eabi/bin/../lib/gcc/arm-none-eabi/12.2.1/thumb/v7e-m/nofp/libgcc.a(_arm_fixdfsi.o)
                                                  /opt/arm-none-eabi/bin/../lib/gcc/arm-none-eabi/12.2.1/../../../../arm-none-eabi/lib/thumb/v7e-m/nofp/libc_nano.a(libc_a-dtoa.o)
__aeabi_dadd                                      /opt/arm-none-eabi/bin/../lib/gcc/arm-none-eabi/12.2.1/thumb/v7e-m/nofp/libgcc.a(_arm_addsubdf3.o)
                                                  /opt/arm-none-eabi/bin/../lib/gcc/arm-none-eabi/12.2.1/../../../../arm-none-eabi/lib/thumb/v7e-m/nofp/libc_nano.a(libc_a-dtoa.o)
__aeabi_dcmpeq                                    /opt/arm-none-eabi/bin/../lib/gcc/arm-none-eabi/12.2.1/thumb/v7e-m/nofp/libgcc.a(_arm_cmpdf2.o)
                                                  /opt/arm-none-eabi/bin/../lib/gcc/arm-none-eabi/12.2.1/../../../../arm-none-eabi/lib/thumb/v7e-m/nofp/libc_nano.a(libc_a-dtoa.o)
                                                  /opt/arm-none-eabi/bin/../lib/gcc/arm-none-eabi/12.2.1/../../../../arm-none-eabi/lib/thumb/v7e-m/nofp/libc_nano.a(libc_a-nano-vfprintf_float.o)
__aeabi_dcmpge                                    /opt/arm-none-eabi/bin/../lib/gcc/arm-none-eabi/12.2.1/thumb/v7e-m/nofp/libgcc.a(_arm_cmpdf2.o)
                                                  /opt/arm-none-eabi/bin/../lib/gcc/arm-none-eabi/12.2.1/../../../../arm-none-eabi/lib/thumb/v7e-m/nofp/libc_nano.a(libc_a-dtoa.o)
__aeabi_dcmpgt                                    /opt/arm-none-eabi/bin/../lib/gcc/arm-none-eabi/12.2.1/thumb/v7e-m/nofp/libgcc.a(_arm_cmpdf2.o)
                                                  /opt/arm-none-eabi/bin/../lib/gcc/arm-none-eabi/12.2.1/../../../../arm-none-eabi/lib/thumb/v7e-m/nofp/libc_nano.a(libc_a-dtoa.o)
__aeabi_dcmple                                    /opt/arm-none-eabi/bin/../lib/gcc/arm-none-eabi/12.2.1/thumb/v7e-m/nofp/libgcc.a(_arm_cmpdf2.o)
                                                  /opt/arm-none-eabi/bin/../lib/gcc/arm-none-eabi/12.2.1/../../../../arm-none-eabi/lib/thumb/v7e-m/nofp/libc_nano.a(libc_a-nano-vfprintf_float.o)
__aeabi_dcmplt                                    /opt/arm-none-eabi/bin/../lib/gcc/arm-none-eabi/12.2.1/thumb/v7e-m/nofp/libgcc.a(_arm_cmpdf2.o)
                                                  /opt/arm-none-eabi/bin/../lib/gcc/arm-none-eabi/12.2.1/../../../../arm-none-eabi/lib/thumb/v7e-m/nofp/libc_nano.a(libc_a-dtoa.o)
                                                  /opt/arm-none-eabi/bin/../lib/gcc/arm-none-eabi/12.2.1/../../../../arm-none-eabi/lib/thumb/v7e-m/nofp/libc_nano.a(libc_a-nano-vfprintf_float.o)
__aeabi_dcmpun                                    /opt/arm-none-eabi/bin/../lib/gcc/arm-none-eabi/12.2.1/thumb/v7e-m/nofp/libgcc.a(_arm_unorddf2.o)
                                                  /opt/arm-none-eabi/bin/../lib/gcc/arm-none-eabi/12.2.1/../../../../arm-none-eabi/lib/thumb/v7e-m/nofp/libc_nano.a(libc_a-nano-vfprintf_float.o)
__aeabi_ddiv                                      /opt/arm-none-eabi/bin/../lib/gcc/arm-none-eabi/12.2.1/thumb/v7e-m/nofp/libgcc.a(_arm_muldivdf3.o)
                                                  /opt/arm-none-eabi/bin/../lib/gcc/arm-none-eabi/12.2.1/../../../../arm-none-eabi/lib/thumb/v7e-m/nofp/libc_nano.a(libc_a-mprec.o)
                                                  /opt/arm-none-eabi/bin/../lib/gcc/arm-none-eabi/12.2.1/../../../../arm-none-eabi/lib/thumb/v7e-m/nofp/libc_nano.a(libc_a-dtoa.o)
__aeabi_dmul                                      /opt/arm-none-eabi/bin/../lib/gcc/arm-none-eabi/12.2.1/thumb/v7e-m/nofp/libgcc.a(_arm_muldivdf3.o)
                                                  /opt/arm-none-eabi/bin/../lib/gcc/arm-none-eabi/12.2.1/thumb/v7e-m/nofp/libgcc.a(_arm_muldf3.o)
                                                  /opt/arm-none-eabi/bin/../lib/gcc/arm-none-eabi/12.2.1/../../../../arm-none-eabi/lib/thumb/v7e-m/nofp/libc_nano.a(libc_a-mprec.o)
                                                  /opt/arm-none-eabi/bin/../lib/gcc/arm-none-eabi/12.2.1/../../../../arm-none-eabi/lib/thumb/v7e-m/nofp/libc_nano.a(libc_a-dtoa.o)
__aeabi_drsub                                     /opt/arm-none-eabi/bin/../lib/gcc/arm-none-eabi/12.2.1/thumb/v7e-m/nofp/libgcc.a(_arm_addsubdf3.o)
__aeabi_dsub                                      /opt/arm-none-eabi/bin/../lib/gcc/arm-none-eabi/12.2.1/thumb/v7e-m/nofp/libgcc.a(_arm_addsubdf3.o)
                                                  /opt/arm-none-eabi/bin/../lib/gcc/arm-none-eabi/12.2.1/../../../../arm-none-eabi/lib/thumb/v7e-m/nofp/libc_nano.a(libc_a-dtoa.o)
__aeabi_f2d                                       /opt/arm-none-eabi/bin/../lib/gcc/arm-none-eabi/12.2.1/thumb/v7e-m/nofp/libgcc.a(_arm_addsubdf3.o)
__aeabi_i2d                                       /opt/arm-none-eabi/bin/../lib/gcc/arm-none-eabi/12.2.1/thumb/v7e-m/nofp/libgcc.a(_arm_addsubdf3.o)
                                                  /opt/arm-none-eabi/bin/../lib/gcc/arm-none-eabi/12.2.1/../../../../arm-none-eabi/lib/thumb/v7e-m/nofp/libc_nano.a(libc_a-dtoa.o)
__aeabi_l2d                                       /opt/arm-none-eabi/bin/../lib/gcc/arm-none-eabi/12.2.1/thumb/v7e-m/nofp/libgcc.a(_arm_addsubdf3.o)
__aeabi_ui2d                                      /opt/arm-none-eabi/bin/../lib/gcc/arm-none-eabi/12.2.1/thumb/v7e-m/nofp/libgcc.a(_arm_addsubdf3.o)
                                                  /opt/arm-none-eabi/bin/../lib/gcc/arm-none-eabi/12.2.1/../../../../arm-none-eabi/lib/thumb/v7e-m/nofp/libc_nano.a(libc_a-dtoa.o)
__aeabi_ul2d                                      /opt/arm-none-eabi/bin/../lib/gcc/arm-none-eabi/12.2.1/thumb/v7e-m/nofp/libgcc.a(_arm_addsubdf3.o)
__any_on                                          /opt/arm-none-eabi/bin/../lib/gcc/arm-none-eabi/12.2.1/../../../../arm-none-eabi/lib/thumb/v7e-m/nofp/libc_nano.a(libc_a-mprec.o)
__ascii_mbtowc                                    /opt/arm-none-eabi/bin/../lib/gcc/arm-none-eabi/12.2.1/../../../../arm-none-eabi/lib/thumb/v7e-m/nofp/libc_nano.a(libc_a-mbtowc_r.o)
                                                  /opt/arm-none-eabi/bin/../lib/gcc/arm-none-eabi/12.2.1/../../../../arm-none-eabi/lib/thumb/v7e-m/nofp/libc_nano.a(libc_a-locale.o)
__ascii_wctomb                                    /opt/arm-none-eabi/bin/../lib/gcc/arm-none-eabi/12.2.1/../../../../arm-none-eabi/lib/thumb/v7e-m/nofp/libc_nano.a(libc_a-wctomb_r.o)
                                                  /opt/arm-none-eabi/bin/../lib/gcc/arm-none-eabi/12.2.1/../../../../arm-none-eabi/lib/thumb/v7e-m/nofp/libc_nano.a(libc_a-locale.o)
__assert                                          /opt/arm-none-eabi/bin/../lib/gcc/arm-none-eabi/12.2.1/../../../../arm-none-eabi/lib/thumb/v7e-m/nofp/libc_nano.a(libc_a-assert.o)
__assert_func                                     /opt/arm-none-eabi/bin/../lib/gcc/arm-none-eabi/12.2.1/../../../../arm-none-eabi/lib/thumb/v7e-m/nofp/libc_nano.a(libc_a-assert.o)
                                                  /opt/arm-none-eabi/bin/../lib/gcc/arm-none-eabi/12.2.1/../../../../arm-none-eabi/lib/thumb/v7e-m/nofp/libc_nano.a(libc_a-mprec.o)
                                                  /opt/arm-none-eabi/bin/../lib/gcc/arm-none-eabi/12.2.1/../../../../arm-none-eabi/lib/thumb/v7e-m/nofp/libc_nano.a(libc_a-dtoa.o)
__atexit                                          /opt/arm-none-eabi/bin/../lib/gcc/arm-none-eabi/12.2.1/../../../../arm-none-eabi/lib/thumb/v7e-m/nofp/libc_nano.a(libc_a-__call_atexit.o)
                                                  /opt/arm-none-eabi/bin/../lib/gcc/arm-none-eabi/12.2.1/../../../../arm-none-eabi/lib/thumb/v7e-m/nofp/libc_nano.a(libc_a-__atexit.o)
__atexit0                                         /opt/arm-none-eabi/bin/../lib/gcc/arm-none-eabi/12.2.1/../../../../arm-none-eabi/lib/thumb/v7e-m/nofp/libc_nano.a(libc_a-__atexit.o)
__atexit_dummy                                    /opt/arm-none-eabi/bin/../lib/gcc/arm-none-eabi/12.2.1/../../../../arm-none-eabi/lib/thumb/v7e-m/nofp/libc_nano.a(libc_a-__atexit.o)
__atexit_recursive_mutex                          /opt/arm-none-eabi/bin/../lib/gcc/arm-none-eabi/12.2.1/../../../../arm-none-eabi/lib/thumb/v7e-m/nofp/libc_nano.a(libc_a-__call_atexit.o)
                                                  /opt/arm-none-eabi/bin/../lib/gcc/arm-none-eabi/12.2.1/../../../../arm-none-eabi/lib/thumb/v7e-m/nofp/libc_nano.a(libc_a-__atexit.o)
__b2d                                             /opt/arm-none-eabi/bin/../lib/gcc/arm-none-eabi/12.2.1/../../../../arm-none-eabi/lib/thumb/v7e-m/nofp/libc_nano.a(libc_a-mprec.o)
__bss_end__                                       /opt/arm-none-eabi/bin/../lib/gcc/arm-none-eabi/12.2.1/../../../../arm-none-eabi/lib/thumb/v7e-m/nofp/crt0.o
__bss_start__                                     /opt/arm-none-eabi/bin/../lib/gcc/arm-none-eabi/12.2.1/../../../../arm-none-eabi/lib/thumb/v7e-m/nofp/crt0.o
__call_exitprocs                                  /opt/arm-none-eabi/bin/../lib/gcc/arm-none-eabi/12.2.1/../../../../arm-none-eabi/lib/thumb/v7e-m/nofp/libc_nano.a(libc_a-__call_atexit.o)
                                                  /opt/arm-none-eabi/bin/../lib/gcc/arm-none-eabi/12.2.1/../../../../arm-none-eabi/lib/thumb/v7e-m/nofp/libc_nano.a(libc_a-__atexit.o)
                                                  /opt/arm-none-eabi/bin/../lib/gcc/arm-none-eabi/12.2.1/../../../../arm-none-eabi/lib/thumb/v7e-m/nofp/libc_nano.a(libc_a-exit.o)
__cmpdf2                                          /opt/arm-none-eabi/bin/../lib/gcc/arm-none-eabi/12.2.1/thumb/v7e-m/nofp/libgcc.a(_arm_cmpdf2.o)
__copybits                                        /opt/arm-none-eabi/bin/../lib/gcc/arm-none-eabi/12.2.1/../../../../arm-none-eabi/lib/thumb/v7e-m/nofp/libc_nano.a(libc_a-mprec.o)
__cvt                                             /opt/arm-none-eabi/bin/../lib/gcc/arm-none-eabi/12.2.1/../../../../arm-none-eabi/lib/thumb/v7e-m/nofp/libc_nano.a(libc_a-nano-vfprintf_float.o)
__d2b                                             /opt/arm-none-eabi/bin/../lib/gcc/arm-none-eabi/12.2.1/../../../../arm-none-eabi/lib/thumb/v7e-m/nofp/libc_nano.a(libc_a-mprec.o)
                                                  /opt/arm-none-eabi/bin/../lib/gcc/arm-none-eabi/12.2.1/../../../../arm-none-eabi/lib/thumb/v7e-m/nofp/libc_nano.a(libc_a-dtoa.o)
__deregister_frame_info                           /opt/arm-none-eabi/bin/../lib/gcc/arm-none-eabi/12.2.1/thumb/v7e-m/nofp/crtbegin.o
__divdf3                                          /opt/arm-none-eabi/bin/../lib/gcc/arm-none-eabi/12.2.1/thumb/v7e-m/nofp/libgcc.a(_arm_muldivdf3.o)
__dso_handle                                      /opt/arm-none-eabi/bin/../lib/gcc/arm-none-eabi/12.2.1/thumb/v7e-m/nofp/crtbegin.o
__eqdf2                                           /opt/arm-none-eabi/bin/../lib/gcc/arm-none-eabi/12.2.1/thumb/v7e-m/nofp/libgcc.a(_arm_cmpdf2.o)
__exponent                                        /opt/arm-none-eabi/bin/../lib/gcc/arm-none-eabi/12.2.1/../../../../arm-none-eabi/lib/thumb/v7e-m/nofp/libc_nano.a(libc_a-nano-vfprintf_float.o)
__extendsfdf2                                     /opt/arm-none-eabi/bin/../lib/gcc/arm-none-eabi/12.2.1/thumb/v7e-m/nofp/libgcc.a(_arm_addsubdf3.o)
__fini_array_end                                  /opt/arm-none-eabi/bin/../lib/gcc/arm-none-eabi/12.2.1/../../../../arm-none-eabi/lib/thumb/v7e-m/nofp/libc_nano.a(libc_a-fini.o)
__fini_array_start                                /opt/arm-none-eabi/bin/../lib/gcc/arm-none-eabi/12.2.1/../../../../arm-none-eabi/lib/thumb/v7e-m/nofp/libc_nano.a(libc_a-fini.o)
__fixdfsi                                         /opt/arm-none-eabi/bin/../lib/gcc/arm-none-eabi/12.2.1/thumb/v7e-m/nofp/libgcc.a(_arm_fixdfsi.o)
__floatdidf                                       /opt/arm-none-eabi/bin/../lib/gcc/arm-none-eabi/12.2.1/thumb/v7e-m/nofp/libgcc.a(_arm_addsubdf3.o)
__floatsidf                                       /opt/arm-none-eabi/bin/../lib/gcc/arm-none-eabi/12.2.1/thumb/v7e-m/nofp/libgcc.a(_arm_addsubdf3.o)
__floatundidf                                     /opt/arm-none-eabi/bin/../lib/gcc/arm-none-eabi/12.2.1/thumb/v7e-m/nofp/libgcc.a(_arm_addsubdf3.o)
__floatunsidf                                     /opt/arm-none-eabi/bin/../lib/gcc/arm-none-eabi/12.2.1/thumb/v7e-m/nofp/libgcc.a(_arm_addsubdf3.o)
__fp_lock_all                                     /opt/arm-none-eabi/bin/../lib/gcc/arm-none-eabi/12.2.1/../../../../arm-none-eabi/lib/thumb/v7e-m/nofp/libc_nano.a(libc_a-findfp.o)
__fp_unlock_all                                   /opt/arm-none-eabi/bin/../lib/gcc/arm-none-eabi/12.2.1/../../../../arm-none-eabi/lib/thumb/v7e-m/nofp/libc_nano.a(libc_a-findfp.o)
__gedf2                                           /opt/arm-none-eabi/bin/../lib/gcc/arm-none-eabi/12.2.1/thumb/v7e-m/nofp/libgcc.a(_arm_cmpdf2.o)
__global_locale                                   /opt/arm-none-eabi/bin/../lib/gcc/arm-none-eabi/12.2.1/../../../../arm-none-eabi/lib/thumb/v7e-m/nofp/libc_nano.a(libc_a-locale.o)
                                                  /opt/arm-none-eabi/bin/../lib/gcc/arm-none-eabi/12.2.1/../../../../arm-none-eabi/lib/thumb/v7e-m/nofp/libc_nano.a(libc_a-wctomb_r.o)
                                                  /opt/arm-none-eabi/bin/../lib/gcc/arm-none-eabi/12.2.1/../../../../arm-none-eabi/lib/thumb/v7e-m/nofp/libc_nano.a(libc_a-mbtowc_r.o)
                                                  /opt/arm-none-eabi/bin/../lib/gcc/arm-none-eabi/12.2.1/../../../../arm-none-eabi/lib/thumb/v7e-m/nofp/libc_nano.a(libc_a-localeconv.o)
__gtdf2                                           /opt/arm-none-eabi/bin/../lib/gcc/arm-none-eabi/12.2.1/thumb/v7e-m/nofp/libgcc.a(_arm_cmpdf2.o)
__hi0bits                                         /opt/arm-none-eabi/bin/../lib/gcc/arm-none-eabi/12.2.1/../../../../arm-none-eabi/lib/thumb/v7e-m/nofp/libc_nano.a(libc_a-mprec.o)
                                                  /opt/arm-none-eabi/bin/../lib/gcc/arm-none-eabi/12.2.1/../../../../arm-none-eabi/lib/thumb/v7e-m/nofp/libc_nano.a(libc_a-dtoa.o)
__i2b                                             /opt/arm-none-eabi/bin/../lib/gcc/arm-none-eabi/12.2.1/../../../../arm-none-eabi/lib/thumb/v7e-m/nofp/libc_nano.a(libc_a-mprec.o)
                                                  /opt/arm-none-eabi/bin/../lib/gcc/arm-none-eabi/12.2.1/../../../../arm-none-eabi/lib/thumb/v7e-m/nofp/libc_nano.a(libc_a-dtoa.o)
__init_array_end                                  /opt/arm-none-eabi/bin/../lib/gcc/arm-none-eabi/12.2.1/../../../../arm-none-eabi/lib/thumb/v7e-m/nofp/libc_nano.a(libc_a-init.o)
__init_array_start                                /opt/arm-none-eabi/bin/../lib/gcc/arm-none-eabi/12.2.1/../../../../arm-none-eabi/lib/thumb/v7e-m/nofp/libc_nano.a(libc_a-init.o)
__ledf2                                           /opt/arm-none-eabi/bin/../lib/gcc/arm-none-eabi/12.2.1/thumb/v7e-m/nofp/libgcc.a(_arm_cmpdf2.o)
__libc_fini_array                                 /opt/arm-none-eabi/bin/../lib/gcc/arm-none-eabi/12.2.1/../../../../arm-none-eabi/lib/thumb/v7e-m/nofp/libc_nano.a(libc_a-fini.o)
                                                  /opt/arm-none-eabi/bin/../lib/gcc/arm-none-eabi/12.2.1/../../../../arm-none-eabi/lib/thumb/v7e-m/nofp/crt0.o
__libc_init_array                                 /opt/arm-none-eabi/bin/../lib/gcc/arm-none-eabi/12.2.1/../../../../arm-none-eabi/lib/thumb/v7e-m/nofp/libc_nano.a(libc_a-init.o)
                                                  build/startup_gd32f450_470.o
                                                  /opt/arm-none-eabi/bin/../lib/gcc/arm-none-eabi/12.2.1/../../../../arm-none-eabi/lib/thumb/v7e-m/nofp/crt0.o
__lo0bits                                         /opt/arm-none-eabi/bin/../lib/gcc/arm-none-eabi/12.2.1/../../../../arm-none-eabi/lib/thumb/v7e-m/nofp/libc_nano.a(libc_a-mprec.o)
__locale_mb_cur_max                               /opt/arm-none-eabi/bin/../lib/gcc/arm-none-eabi/12.2.1/../../../../arm-none-eabi/lib/thumb/v7e-m/nofp/libc_nano.a(libc_a-locale.o)
__localeconv_l                                    /opt/arm-none-eabi/bin/../lib/gcc/arm-none-eabi/12.2.1/../../../../arm-none-eabi/lib/thumb/v7e-m/nofp/libc_nano.a(libc_a-localeconv.o)
__lock___arc4random_mutex                         /opt/arm-none-eabi/bin/../lib/gcc/arm-none-eabi/12.2.1/../../../../arm-none-eabi/lib/thumb/v7e-m/nofp/libc_nano.a(libc_a-lock.o)
__lock___at_quick_exit_mutex                      /opt/arm-none-eabi/bin/../lib/gcc/arm-none-eabi/12.2.1/../../../../arm-none-eabi/lib/thumb/v7e-m/nofp/libc_nano.a(libc_a-lock.o)
__lock___atexit_recursive_mutex                   /opt/arm-none-eabi/bin/../lib/gcc/arm-none-eabi/12.2.1/../../../../arm-none-eabi/lib/thumb/v7e-m/nofp/libc_nano.a(libc_a-lock.o)
                                                  /opt/arm-none-eabi/bin/../lib/gcc/arm-none-eabi/12.2.1/../../../../arm-none-eabi/lib/thumb/v7e-m/nofp/libc_nano.a(libc_a-__call_atexit.o)
__lock___dd_hash_mutex                            /opt/arm-none-eabi/bin/../lib/gcc/arm-none-eabi/12.2.1/../../../../arm-none-eabi/lib/thumb/v7e-m/nofp/libc_nano.a(libc_a-lock.o)
__lock___env_recursive_mutex                      /opt/arm-none-eabi/bin/../lib/gcc/arm-none-eabi/12.2.1/../../../../arm-none-eabi/lib/thumb/v7e-m/nofp/libc_nano.a(libc_a-lock.o)
__lock___malloc_recursive_mutex                   /opt/arm-none-eabi/bin/../lib/gcc/arm-none-eabi/12.2.1/../../../../arm-none-eabi/lib/thumb/v7e-m/nofp/libc_nano.a(libc_a-lock.o)
                                                  /opt/arm-none-eabi/bin/../lib/gcc/arm-none-eabi/12.2.1/../../../../arm-none-eabi/lib/thumb/v7e-m/nofp/libc_nano.a(libc_a-mlock.o)
__lock___sfp_recursive_mutex                      /opt/arm-none-eabi/bin/../lib/gcc/arm-none-eabi/12.2.1/../../../../arm-none-eabi/lib/thumb/v7e-m/nofp/libc_nano.a(libc_a-lock.o)
                                                  /opt/arm-none-eabi/bin/../lib/gcc/arm-none-eabi/12.2.1/../../../../arm-none-eabi/lib/thumb/v7e-m/nofp/libc_nano.a(libc_a-findfp.o)
__lock___tz_mutex                                 /opt/arm-none-eabi/bin/../lib/gcc/arm-none-eabi/12.2.1/../../../../arm-none-eabi/lib/thumb/v7e-m/nofp/libc_nano.a(libc_a-lock.o)
__lshift                                          /opt/arm-none-eabi/bin/../lib/gcc/arm-none-eabi/12.2.1/../../../../arm-none-eabi/lib/thumb/v7e-m/nofp/libc_nano.a(libc_a-mprec.o)
                                                  /opt/arm-none-eabi/bin/../lib/gcc/arm-none-eabi/12.2.1/../../../../arm-none-eabi/lib/thumb/v7e-m/nofp/libc_nano.a(libc_a-dtoa.o)
__ltdf2                                           /opt/arm-none-eabi/bin/../lib/gcc/arm-none-eabi/12.2.1/thumb/v7e-m/nofp/libgcc.a(_arm_cmpdf2.o)
__malloc_free_list                                /opt/arm-none-eabi/bin/../lib/gcc/arm-none-eabi/12.2.1/../../../../arm-none-eabi/lib/thumb/v7e-m/nofp/libc_nano.a(libc_a-mallocr.o)
                                                  /opt/arm-none-eabi/bin/../lib/gcc/arm-none-eabi/12.2.1/../../../../arm-none-eabi/lib/thumb/v7e-m/nofp/libc_nano.a(libc_a-freer.o)
__malloc_lock                                     /opt/arm-none-eabi/bin/../lib/gcc/arm-none-eabi/12.2.1/../../../../arm-none-eabi/lib/thumb/v7e-m/nofp/libc_nano.a(libc_a-mlock.o)
                                                  /opt/arm-none-eabi/bin/../lib/gcc/arm-none-eabi/12.2.1/../../../../arm-none-eabi/lib/thumb/v7e-m/nofp/libc_nano.a(libc_a-mallocr.o)
                                                  /opt/arm-none-eabi/bin/../lib/gcc/arm-none-eabi/12.2.1/../../../../arm-none-eabi/lib/thumb/v7e-m/nofp/libc_nano.a(libc_a-freer.o)
__malloc_sbrk_start                               /opt/arm-none-eabi/bin/../lib/gcc/arm-none-eabi/12.2.1/../../../../arm-none-eabi/lib/thumb/v7e-m/nofp/libc_nano.a(libc_a-mallocr.o)
__malloc_unlock                                   /opt/arm-none-eabi/bin/../lib/gcc/arm-none-eabi/12.2.1/../../../../arm-none-eabi/lib/thumb/v7e-m/nofp/libc_nano.a(libc_a-mlock.o)
                                                  /opt/arm-none-eabi/bin/../lib/gcc/arm-none-eabi/12.2.1/../../../../arm-none-eabi/lib/thumb/v7e-m/nofp/libc_nano.a(libc_a-mallocr.o)
                                                  /opt/arm-none-eabi/bin/../lib/gcc/arm-none-eabi/12.2.1/../../../../arm-none-eabi/lib/thumb/v7e-m/nofp/libc_nano.a(libc_a-freer.o)
__mcmp                                            /opt/arm-none-eabi/bin/../lib/gcc/arm-none-eabi/12.2.1/../../../../arm-none-eabi/lib/thumb/v7e-m/nofp/libc_nano.a(libc_a-mprec.o)
                                                  /opt/arm-none-eabi/bin/../lib/gcc/arm-none-eabi/12.2.1/../../../../arm-none-eabi/lib/thumb/v7e-m/nofp/libc_nano.a(libc_a-dtoa.o)
__mdiff                                           /opt/arm-none-eabi/bin/../lib/gcc/arm-none-eabi/12.2.1/../../../../arm-none-eabi/lib/thumb/v7e-m/nofp/libc_nano.a(libc_a-mprec.o)
                                                  /opt/arm-none-eabi/bin/../lib/gcc/arm-none-eabi/12.2.1/../../../../arm-none-eabi/lib/thumb/v7e-m/nofp/libc_nano.a(libc_a-dtoa.o)
__mprec_bigtens                                   /opt/arm-none-eabi/bin/../lib/gcc/arm-none-eabi/12.2.1/../../../../arm-none-eabi/lib/thumb/v7e-m/nofp/libc_nano.a(libc_a-mprec.o)
                                                  /opt/arm-none-eabi/bin/../lib/gcc/arm-none-eabi/12.2.1/../../../../arm-none-eabi/lib/thumb/v7e-m/nofp/libc_nano.a(libc_a-dtoa.o)
__mprec_tens                                      /opt/arm-none-eabi/bin/../lib/gcc/arm-none-eabi/12.2.1/../../../../arm-none-eabi/lib/thumb/v7e-m/nofp/libc_nano.a(libc_a-mprec.o)
                                                  /opt/arm-none-eabi/bin/../lib/gcc/arm-none-eabi/12.2.1/../../../../arm-none-eabi/lib/thumb/v7e-m/nofp/libc_nano.a(libc_a-dtoa.o)
__mprec_tinytens                                  /opt/arm-none-eabi/bin/../lib/gcc/arm-none-eabi/12.2.1/../../../../arm-none-eabi/lib/thumb/v7e-m/nofp/libc_nano.a(libc_a-mprec.o)
__muldf3                                          /opt/arm-none-eabi/bin/../lib/gcc/arm-none-eabi/12.2.1/thumb/v7e-m/nofp/libgcc.a(_arm_muldivdf3.o)
                                                  /opt/arm-none-eabi/bin/../lib/gcc/arm-none-eabi/12.2.1/thumb/v7e-m/nofp/libgcc.a(_arm_muldf3.o)
__multadd                                         /opt/arm-none-eabi/bin/../lib/gcc/arm-none-eabi/12.2.1/../../../../arm-none-eabi/lib/thumb/v7e-m/nofp/libc_nano.a(libc_a-mprec.o)
                                                  /opt/arm-none-eabi/bin/../lib/gcc/arm-none-eabi/12.2.1/../../../../arm-none-eabi/lib/thumb/v7e-m/nofp/libc_nano.a(libc_a-dtoa.o)
__multiply                                        /opt/arm-none-eabi/bin/../lib/gcc/arm-none-eabi/12.2.1/../../../../arm-none-eabi/lib/thumb/v7e-m/nofp/libc_nano.a(libc_a-mprec.o)
                                                  /opt/arm-none-eabi/bin/../lib/gcc/arm-none-eabi/12.2.1/../../../../arm-none-eabi/lib/thumb/v7e-m/nofp/libc_nano.a(libc_a-dtoa.o)
__nedf2                                           /opt/arm-none-eabi/bin/../lib/gcc/arm-none-eabi/12.2.1/thumb/v7e-m/nofp/libgcc.a(_arm_cmpdf2.o)
__on_exit_args                                    /opt/arm-none-eabi/bin/../lib/gcc/arm-none-eabi/12.2.1/../../../../arm-none-eabi/lib/thumb/v7e-m/nofp/libc_nano.a(libc_a-__atexit.o)
__pow5mult                                        /opt/arm-none-eabi/bin/../lib/gcc/arm-none-eabi/12.2.1/../../../../arm-none-eabi/lib/thumb/v7e-m/nofp/libc_nano.a(libc_a-mprec.o)
                                                  /opt/arm-none-eabi/bin/../lib/gcc/arm-none-eabi/12.2.1/../../../../arm-none-eabi/lib/thumb/v7e-m/nofp/libc_nano.a(libc_a-dtoa.o)
__preinit_array_end                               /opt/arm-none-eabi/bin/../lib/gcc/arm-none-eabi/12.2.1/../../../../arm-none-eabi/lib/thumb/v7e-m/nofp/libc_nano.a(libc_a-init.o)
__preinit_array_start                             /opt/arm-none-eabi/bin/../lib/gcc/arm-none-eabi/12.2.1/../../../../arm-none-eabi/lib/thumb/v7e-m/nofp/libc_nano.a(libc_a-init.o)
__ratio                                           /opt/arm-none-eabi/bin/../lib/gcc/arm-none-eabi/12.2.1/../../../../arm-none-eabi/lib/thumb/v7e-m/nofp/libc_nano.a(libc_a-mprec.o)
__register_exitproc                               /opt/arm-none-eabi/bin/../lib/gcc/arm-none-eabi/12.2.1/../../../../arm-none-eabi/lib/thumb/v7e-m/nofp/libc_nano.a(libc_a-__atexit.o)
                                                  /opt/arm-none-eabi/bin/../lib/gcc/arm-none-eabi/12.2.1/../../../../arm-none-eabi/lib/thumb/v7e-m/nofp/libc_nano.a(libc_a-atexit.o)
__register_frame_info                             /opt/arm-none-eabi/bin/../lib/gcc/arm-none-eabi/12.2.1/thumb/v7e-m/nofp/crtbegin.o
__retarget_lock_acquire                           /opt/arm-none-eabi/bin/../lib/gcc/arm-none-eabi/12.2.1/../../../../arm-none-eabi/lib/thumb/v7e-m/nofp/libc_nano.a(libc_a-lock.o)
__retarget_lock_acquire_recursive                 /opt/arm-none-eabi/bin/../lib/gcc/arm-none-eabi/12.2.1/../../../../arm-none-eabi/lib/thumb/v7e-m/nofp/libc_nano.a(libc_a-lock.o)
                                                  /opt/arm-none-eabi/bin/../lib/gcc/arm-none-eabi/12.2.1/../../../../arm-none-eabi/lib/thumb/v7e-m/nofp/libc_nano.a(libc_a-fflush.o)
                                                  /opt/arm-none-eabi/bin/../lib/gcc/arm-none-eabi/12.2.1/../../../../arm-none-eabi/lib/thumb/v7e-m/nofp/libc_nano.a(libc_a-nano-vfprintf.o)
                                                  /opt/arm-none-eabi/bin/../lib/gcc/arm-none-eabi/12.2.1/../../../../arm-none-eabi/lib/thumb/v7e-m/nofp/libc_nano.a(libc_a-mlock.o)
                                                  /opt/arm-none-eabi/bin/../lib/gcc/arm-none-eabi/12.2.1/../../../../arm-none-eabi/lib/thumb/v7e-m/nofp/libc_nano.a(libc_a-__call_atexit.o)
                                                  /opt/arm-none-eabi/bin/../lib/gcc/arm-none-eabi/12.2.1/../../../../arm-none-eabi/lib/thumb/v7e-m/nofp/libc_nano.a(libc_a-__atexit.o)
                                                  /opt/arm-none-eabi/bin/../lib/gcc/arm-none-eabi/12.2.1/../../../../arm-none-eabi/lib/thumb/v7e-m/nofp/libc_nano.a(libc_a-puts.o)
                                                  /opt/arm-none-eabi/bin/../lib/gcc/arm-none-eabi/12.2.1/../../../../arm-none-eabi/lib/thumb/v7e-m/nofp/libc_nano.a(libc_a-findfp.o)
__retarget_lock_close                             /opt/arm-none-eabi/bin/../lib/gcc/arm-none-eabi/12.2.1/../../../../arm-none-eabi/lib/thumb/v7e-m/nofp/libc_nano.a(libc_a-lock.o)
__retarget_lock_close_recursive                   /opt/arm-none-eabi/bin/../lib/gcc/arm-none-eabi/12.2.1/../../../../arm-none-eabi/lib/thumb/v7e-m/nofp/libc_nano.a(libc_a-lock.o)
__retarget_lock_init                              /opt/arm-none-eabi/bin/../lib/gcc/arm-none-eabi/12.2.1/../../../../arm-none-eabi/lib/thumb/v7e-m/nofp/libc_nano.a(libc_a-lock.o)
__retarget_lock_init_recursive                    /opt/arm-none-eabi/bin/../lib/gcc/arm-none-eabi/12.2.1/../../../../arm-none-eabi/lib/thumb/v7e-m/nofp/libc_nano.a(libc_a-lock.o)
                                                  /opt/arm-none-eabi/bin/../lib/gcc/arm-none-eabi/12.2.1/../../../../arm-none-eabi/lib/thumb/v7e-m/nofp/libc_nano.a(libc_a-findfp.o)
__retarget_lock_release                           /opt/arm-none-eabi/bin/../lib/gcc/arm-none-eabi/12.2.1/../../../../arm-none-eabi/lib/thumb/v7e-m/nofp/libc_nano.a(libc_a-lock.o)
__retarget_lock_release_recursive                 /opt/arm-none-eabi/bin/../lib/gcc/arm-none-eabi/12.2.1/../../../../arm-none-eabi/lib/thumb/v7e-m/nofp/libc_nano.a(libc_a-lock.o)
                                                  /opt/arm-none-eabi/bin/../lib/gcc/arm-none-eabi/12.2.1/../../../../arm-none-eabi/lib/thumb/v7e-m/nofp/libc_nano.a(libc_a-fflush.o)
                                                  /opt/arm-none-eabi/bin/../lib/gcc/arm-none-eabi/12.2.1/../../../../arm-none-eabi/lib/thumb/v7e-m/nofp/libc_nano.a(libc_a-nano-vfprintf.o)
                                                  /opt/arm-none-eabi/bin/../lib/gcc/arm-none-eabi/12.2.1/../../../../arm-none-eabi/lib/thumb/v7e-m/nofp/libc_nano.a(libc_a-mlock.o)
                                                  /opt/arm-none-eabi/bin/../lib/gcc/arm-none-eabi/12.2.1/../../../../arm-none-eabi/lib/thumb/v7e-m/nofp/libc_nano.a(libc_a-__call_atexit.o)
                                                  /opt/arm-none-eabi/bin/../lib/gcc/arm-none-eabi/12.2.1/../../../../arm-none-eabi/lib/thumb/v7e-m/nofp/libc_nano.a(libc_a-__atexit.o)
                                                  /opt/arm-none-eabi/bin/../lib/gcc/arm-none-eabi/12.2.1/../../../../arm-none-eabi/lib/thumb/v7e-m/nofp/libc_nano.a(libc_a-puts.o)
                                                  /opt/arm-none-eabi/bin/../lib/gcc/arm-none-eabi/12.2.1/../../../../arm-none-eabi/lib/thumb/v7e-m/nofp/libc_nano.a(libc_a-findfp.o)
__retarget_lock_try_acquire                       /opt/arm-none-eabi/bin/../lib/gcc/arm-none-eabi/12.2.1/../../../../arm-none-eabi/lib/thumb/v7e-m/nofp/libc_nano.a(libc_a-lock.o)
__retarget_lock_try_acquire_recursive             /opt/arm-none-eabi/bin/../lib/gcc/arm-none-eabi/12.2.1/../../../../arm-none-eabi/lib/thumb/v7e-m/nofp/libc_nano.a(libc_a-lock.o)
__s2b                                             /opt/arm-none-eabi/bin/../lib/gcc/arm-none-eabi/12.2.1/../../../../arm-none-eabi/lib/thumb/v7e-m/nofp/libc_nano.a(libc_a-mprec.o)
__sclose                                          /opt/arm-none-eabi/bin/../lib/gcc/arm-none-eabi/12.2.1/../../../../arm-none-eabi/lib/thumb/v7e-m/nofp/libc_nano.a(libc_a-stdio.o)
                                                  /opt/arm-none-eabi/bin/../lib/gcc/arm-none-eabi/12.2.1/../../../../arm-none-eabi/lib/thumb/v7e-m/nofp/libc_nano.a(libc_a-findfp.o)
__seofread                                        /opt/arm-none-eabi/bin/../lib/gcc/arm-none-eabi/12.2.1/../../../../arm-none-eabi/lib/thumb/v7e-m/nofp/libc_nano.a(libc_a-stdio.o)
__sf                                              /opt/arm-none-eabi/bin/../lib/gcc/arm-none-eabi/12.2.1/../../../../arm-none-eabi/lib/thumb/v7e-m/nofp/libc_nano.a(libc_a-findfp.o)
                                                  /opt/arm-none-eabi/bin/../lib/gcc/arm-none-eabi/12.2.1/../../../../arm-none-eabi/lib/thumb/v7e-m/nofp/libc_nano.a(libc_a-impure.o)
__sflush_r                                        /opt/arm-none-eabi/bin/../lib/gcc/arm-none-eabi/12.2.1/../../../../arm-none-eabi/lib/thumb/v7e-m/nofp/libc_nano.a(libc_a-fflush.o)
__sfp                                             /opt/arm-none-eabi/bin/../lib/gcc/arm-none-eabi/12.2.1/../../../../arm-none-eabi/lib/thumb/v7e-m/nofp/libc_nano.a(libc_a-findfp.o)
__sfp_lock_acquire                                /opt/arm-none-eabi/bin/../lib/gcc/arm-none-eabi/12.2.1/../../../../arm-none-eabi/lib/thumb/v7e-m/nofp/libc_nano.a(libc_a-findfp.o)
__sfp_lock_release                                /opt/arm-none-eabi/bin/../lib/gcc/arm-none-eabi/12.2.1/../../../../arm-none-eabi/lib/thumb/v7e-m/nofp/libc_nano.a(libc_a-findfp.o)
__sfputs_r                                        /opt/arm-none-eabi/bin/../lib/gcc/arm-none-eabi/12.2.1/../../../../arm-none-eabi/lib/thumb/v7e-m/nofp/libc_nano.a(libc_a-nano-vfprintf.o)
__sfvwrite_r                                      /opt/arm-none-eabi/bin/../lib/gcc/arm-none-eabi/12.2.1/../../../../arm-none-eabi/lib/thumb/v7e-m/nofp/libc_nano.a(libc_a-fvwrite.o)
                                                  /opt/arm-none-eabi/bin/../lib/gcc/arm-none-eabi/12.2.1/../../../../arm-none-eabi/lib/thumb/v7e-m/nofp/libc_nano.a(libc_a-nano-vfprintf.o)
__sglue                                           /opt/arm-none-eabi/bin/../lib/gcc/arm-none-eabi/12.2.1/../../../../arm-none-eabi/lib/thumb/v7e-m/nofp/libc_nano.a(libc_a-findfp.o)
                                                  /opt/arm-none-eabi/bin/../lib/gcc/arm-none-eabi/12.2.1/../../../../arm-none-eabi/lib/thumb/v7e-m/nofp/libc_nano.a(libc_a-fflush.o)
__sigtramp                                        /opt/arm-none-eabi/bin/../lib/gcc/arm-none-eabi/12.2.1/../../../../arm-none-eabi/lib/thumb/v7e-m/nofp/libc_nano.a(libc_a-signal.o)
__sigtramp_r                                      /opt/arm-none-eabi/bin/../lib/gcc/arm-none-eabi/12.2.1/../../../../arm-none-eabi/lib/thumb/v7e-m/nofp/libc_nano.a(libc_a-signal.o)
__sinit                                           /opt/arm-none-eabi/bin/../lib/gcc/arm-none-eabi/12.2.1/../../../../arm-none-eabi/lib/thumb/v7e-m/nofp/libc_nano.a(libc_a-findfp.o)
                                                  /opt/arm-none-eabi/bin/../lib/gcc/arm-none-eabi/12.2.1/../../../../arm-none-eabi/lib/thumb/v7e-m/nofp/libc_nano.a(libc_a-fflush.o)
                                                  /opt/arm-none-eabi/bin/../lib/gcc/arm-none-eabi/12.2.1/../../../../arm-none-eabi/lib/thumb/v7e-m/nofp/libc_nano.a(libc_a-nano-vfprintf.o)
                                                  /opt/arm-none-eabi/bin/../lib/gcc/arm-none-eabi/12.2.1/../../../../arm-none-eabi/lib/thumb/v7e-m/nofp/libc_nano.a(libc_a-wsetup.o)
                                                  /opt/arm-none-eabi/bin/../lib/gcc/arm-none-eabi/12.2.1/../../../../arm-none-eabi/lib/thumb/v7e-m/nofp/libc_nano.a(libc_a-wbuf.o)
                                                  /opt/arm-none-eabi/bin/../lib/gcc/arm-none-eabi/12.2.1/../../../../arm-none-eabi/lib/thumb/v7e-m/nofp/libc_nano.a(libc_a-puts.o)
__smakebuf_r                                      /opt/arm-none-eabi/bin/../lib/gcc/arm-none-eabi/12.2.1/../../../../arm-none-eabi/lib/thumb/v7e-m/nofp/libc_nano.a(libc_a-makebuf.o)
                                                  /opt/arm-none-eabi/bin/../lib/gcc/arm-none-eabi/12.2.1/../../../../arm-none-eabi/lib/thumb/v7e-m/nofp/libc_nano.a(libc_a-wsetup.o)
__sprint_r                                        /opt/arm-none-eabi/bin/../lib/gcc/arm-none-eabi/12.2.1/../../../../arm-none-eabi/lib/thumb/v7e-m/nofp/libc_nano.a(libc_a-nano-vfprintf.o)
__sread                                           /opt/arm-none-eabi/bin/../lib/gcc/arm-none-eabi/12.2.1/../../../../arm-none-eabi/lib/thumb/v7e-m/nofp/libc_nano.a(libc_a-stdio.o)
                                                  /opt/arm-none-eabi/bin/../lib/gcc/arm-none-eabi/12.2.1/../../../../arm-none-eabi/lib/thumb/v7e-m/nofp/libc_nano.a(libc_a-findfp.o)
__sseek                                           /opt/arm-none-eabi/bin/../lib/gcc/arm-none-eabi/12.2.1/../../../../arm-none-eabi/lib/thumb/v7e-m/nofp/libc_nano.a(libc_a-stdio.o)
                                                  /opt/arm-none-eabi/bin/../lib/gcc/arm-none-eabi/12.2.1/../../../../arm-none-eabi/lib/thumb/v7e-m/nofp/libc_nano.a(libc_a-findfp.o)
__ssprint_r                                       /opt/arm-none-eabi/bin/../lib/gcc/arm-none-eabi/12.2.1/../../../../arm-none-eabi/lib/thumb/v7e-m/nofp/libc_nano.a(libc_a-nano-svfprintf.o)
__ssputs_r                                        /opt/arm-none-eabi/bin/../lib/gcc/arm-none-eabi/12.2.1/../../../../arm-none-eabi/lib/thumb/v7e-m/nofp/libc_nano.a(libc_a-nano-svfprintf.o)
__stack                                           /opt/arm-none-eabi/bin/../lib/gcc/arm-none-eabi/12.2.1/../../../../arm-none-eabi/lib/thumb/v7e-m/nofp/crt0.o
__stdio_exit_handler                              /opt/arm-none-eabi/bin/../lib/gcc/arm-none-eabi/12.2.1/../../../../arm-none-eabi/lib/thumb/v7e-m/nofp/libc_nano.a(libc_a-findfp.o)
                                                  /opt/arm-none-eabi/bin/../lib/gcc/arm-none-eabi/12.2.1/../../../../arm-none-eabi/lib/thumb/v7e-m/nofp/libc_nano.a(libc_a-exit.o)
__subdf3                                          /opt/arm-none-eabi/bin/../lib/gcc/arm-none-eabi/12.2.1/thumb/v7e-m/nofp/libgcc.a(_arm_addsubdf3.o)
__swbuf                                           /opt/arm-none-eabi/bin/../lib/gcc/arm-none-eabi/12.2.1/../../../../arm-none-eabi/lib/thumb/v7e-m/nofp/libc_nano.a(libc_a-wbuf.o)
__swbuf_r                                         /opt/arm-none-eabi/bin/../lib/gcc/arm-none-eabi/12.2.1/../../../../arm-none-eabi/lib/thumb/v7e-m/nofp/libc_nano.a(libc_a-wbuf.o)
                                                  /opt/arm-none-eabi/bin/../lib/gcc/arm-none-eabi/12.2.1/../../../../arm-none-eabi/lib/thumb/v7e-m/nofp/libc_nano.a(libc_a-nano-vfprintf.o)
                                                  /opt/arm-none-eabi/bin/../lib/gcc/arm-none-eabi/12.2.1/../../../../arm-none-eabi/lib/thumb/v7e-m/nofp/libc_nano.a(libc_a-puts.o)
__swhatbuf_r                                      /opt/arm-none-eabi/bin/../lib/gcc/arm-none-eabi/12.2.1/../../../../arm-none-eabi/lib/thumb/v7e-m/nofp/libc_nano.a(libc_a-makebuf.o)
__swrite                                          /opt/arm-none-eabi/bin/../lib/gcc/arm-none-eabi/12.2.1/../../../../arm-none-eabi/lib/thumb/v7e-m/nofp/libc_nano.a(libc_a-stdio.o)
                                                  /opt/arm-none-eabi/bin/../lib/gcc/arm-none-eabi/12.2.1/../../../../arm-none-eabi/lib/thumb/v7e-m/nofp/libc_nano.a(libc_a-findfp.o)
__swsetup_r                                       /opt/arm-none-eabi/bin/../lib/gcc/arm-none-eabi/12.2.1/../../../../arm-none-eabi/lib/thumb/v7e-m/nofp/libc_nano.a(libc_a-wsetup.o)
                                                  /opt/arm-none-eabi/bin/../lib/gcc/arm-none-eabi/12.2.1/../../../../arm-none-eabi/lib/thumb/v7e-m/nofp/libc_nano.a(libc_a-fvwrite.o)
                                                  /opt/arm-none-eabi/bin/../lib/gcc/arm-none-eabi/12.2.1/../../../../arm-none-eabi/lib/thumb/v7e-m/nofp/libc_nano.a(libc_a-nano-vfprintf.o)
                                                  /opt/arm-none-eabi/bin/../lib/gcc/arm-none-eabi/12.2.1/../../../../arm-none-eabi/lib/thumb/v7e-m/nofp/libc_nano.a(libc_a-wbuf.o)
                                                  /opt/arm-none-eabi/bin/../lib/gcc/arm-none-eabi/12.2.1/../../../../arm-none-eabi/lib/thumb/v7e-m/nofp/libc_nano.a(libc_a-puts.o)
__ulp                                             /opt/arm-none-eabi/bin/../lib/gcc/arm-none-eabi/12.2.1/../../../../arm-none-eabi/lib/thumb/v7e-m/nofp/libc_nano.a(libc_a-mprec.o)
__unorddf2                                        /opt/arm-none-eabi/bin/../lib/gcc/arm-none-eabi/12.2.1/thumb/v7e-m/nofp/libgcc.a(_arm_unorddf2.o)
_calloc_r                                         /opt/arm-none-eabi/bin/../lib/gcc/arm-none-eabi/12.2.1/../../../../arm-none-eabi/lib/thumb/v7e-m/nofp/libc_nano.a(libc_a-callocr.o)
                                                  /opt/arm-none-eabi/bin/../lib/gcc/arm-none-eabi/12.2.1/../../../../arm-none-eabi/lib/thumb/v7e-m/nofp/libc_nano.a(libc_a-mprec.o)
_close                                            /opt/arm-none-eabi/bin/../lib/gcc/arm-none-eabi/12.2.1/../../../../arm-none-eabi/lib/thumb/v7e-m/nofp/libnosys.a(close.o)
                                                  /opt/arm-none-eabi/bin/../lib/gcc/arm-none-eabi/12.2.1/../../../../arm-none-eabi/lib/thumb/v7e-m/nofp/libc_nano.a(libc_a-closer.o)
_close_r                                          /opt/arm-none-eabi/bin/../lib/gcc/arm-none-eabi/12.2.1/../../../../arm-none-eabi/lib/thumb/v7e-m/nofp/libc_nano.a(libc_a-closer.o)
                                                  /opt/arm-none-eabi/bin/../lib/gcc/arm-none-eabi/12.2.1/../../../../arm-none-eabi/lib/thumb/v7e-m/nofp/libc_nano.a(libc_a-stdio.o)
_ctype_                                           /opt/arm-none-eabi/bin/../lib/gcc/arm-none-eabi/12.2.1/../../../../arm-none-eabi/lib/thumb/v7e-m/nofp/libc_nano.a(libc_a-ctype_.o)
                                                  /opt/arm-none-eabi/bin/../lib/gcc/arm-none-eabi/12.2.1/../../../../arm-none-eabi/lib/thumb/v7e-m/nofp/libc_nano.a(libc_a-locale.o)
_dtoa_r                                           /opt/arm-none-eabi/bin/../lib/gcc/arm-none-eabi/12.2.1/../../../../arm-none-eabi/lib/thumb/v7e-m/nofp/libc_nano.a(libc_a-dtoa.o)
                                                  /opt/arm-none-eabi/bin/../lib/gcc/arm-none-eabi/12.2.1/../../../../arm-none-eabi/lib/thumb/v7e-m/nofp/libc_nano.a(libc_a-nano-vfprintf_float.o)
_ebss                                             build/startup_gd32f450_470.o
_edata                                            build/startup_gd32f450_470.o
_estack                                           build/startup_gd32f450_470.o
_exit                                             /opt/arm-none-eabi/bin/../lib/gcc/arm-none-eabi/12.2.1/../../../../arm-none-eabi/lib/thumb/v7e-m/nofp/libnosys.a(_exit.o)
                                                  /opt/arm-none-eabi/bin/../lib/gcc/arm-none-eabi/12.2.1/../../../../arm-none-eabi/lib/thumb/v7e-m/nofp/libc_nano.a(libc_a-abort.o)
                                                  /opt/arm-none-eabi/bin/../lib/gcc/arm-none-eabi/12.2.1/../../../../arm-none-eabi/lib/thumb/v7e-m/nofp/libc_nano.a(libc_a-exit.o)
_fflush_r                                         /opt/arm-none-eabi/bin/../lib/gcc/arm-none-eabi/12.2.1/../../../../arm-none-eabi/lib/thumb/v7e-m/nofp/libc_nano.a(libc_a-fflush.o)
                                                  /opt/arm-none-eabi/bin/../lib/gcc/arm-none-eabi/12.2.1/../../../../arm-none-eabi/lib/thumb/v7e-m/nofp/libc_nano.a(libc_a-fvwrite.o)
                                                  /opt/arm-none-eabi/bin/../lib/gcc/arm-none-eabi/12.2.1/../../../../arm-none-eabi/lib/thumb/v7e-m/nofp/libc_nano.a(libc_a-wbuf.o)
                                                  /opt/arm-none-eabi/bin/../lib/gcc/arm-none-eabi/12.2.1/../../../../arm-none-eabi/lib/thumb/v7e-m/nofp/libc_nano.a(libc_a-findfp.o)
_fini                                             /opt/arm-none-eabi/bin/../lib/gcc/arm-none-eabi/12.2.1/thumb/v7e-m/nofp/crti.o
                                                  /opt/arm-none-eabi/bin/../lib/gcc/arm-none-eabi/12.2.1/../../../../arm-none-eabi/lib/thumb/v7e-m/nofp/libc_nano.a(libc_a-fini.o)
_fiprintf_r                                       /opt/arm-none-eabi/bin/../lib/gcc/arm-none-eabi/12.2.1/../../../../arm-none-eabi/lib/thumb/v7e-m/nofp/libc_nano.a(libc_a-fprintf.o)
_fprintf_r                                        /opt/arm-none-eabi/bin/../lib/gcc/arm-none-eabi/12.2.1/../../../../arm-none-eabi/lib/thumb/v7e-m/nofp/libc_nano.a(libc_a-fprintf.o)
_free_r                                           /opt/arm-none-eabi/bin/../lib/gcc/arm-none-eabi/12.2.1/../../../../arm-none-eabi/lib/thumb/v7e-m/nofp/libc_nano.a(libc_a-freer.o)
                                                  /opt/arm-none-eabi/bin/../lib/gcc/arm-none-eabi/12.2.1/../../../../arm-none-eabi/lib/thumb/v7e-m/nofp/libc_nano.a(libc_a-reallocr.o)
                                                  /opt/arm-none-eabi/bin/../lib/gcc/arm-none-eabi/12.2.1/../../../../arm-none-eabi/lib/thumb/v7e-m/nofp/libc_nano.a(libc_a-fvwrite.o)
                                                  /opt/arm-none-eabi/bin/../lib/gcc/arm-none-eabi/12.2.1/../../../../arm-none-eabi/lib/thumb/v7e-m/nofp/libc_nano.a(libc_a-fflush.o)
                                                  /opt/arm-none-eabi/bin/../lib/gcc/arm-none-eabi/12.2.1/../../../../arm-none-eabi/lib/thumb/v7e-m/nofp/libc_nano.a(libc_a-nano-svfprintf.o)
                                                  /opt/arm-none-eabi/bin/../lib/gcc/arm-none-eabi/12.2.1/../../../../arm-none-eabi/lib/thumb/v7e-m/nofp/libc_nano.a(libc_a-malloc.o)
                                                  /opt/arm-none-eabi/bin/../lib/gcc/arm-none-eabi/12.2.1/../../../../arm-none-eabi/lib/thumb/v7e-m/nofp/libc_nano.a(libc_a-reent.o)
                                                  /opt/arm-none-eabi/bin/../lib/gcc/arm-none-eabi/12.2.1/../../../../arm-none-eabi/lib/thumb/v7e-m/nofp/libc_nano.a(libc_a-wsetup.o)
_fstat                                            /opt/arm-none-eabi/bin/../lib/gcc/arm-none-eabi/12.2.1/../../../../arm-none-eabi/lib/thumb/v7e-m/nofp/libnosys.a(fstat.o)
                                                  /opt/arm-none-eabi/bin/../lib/gcc/arm-none-eabi/12.2.1/../../../../arm-none-eabi/lib/thumb/v7e-m/nofp/libc_nano.a(libc_a-fstatr.o)
_fstat_r                                          /opt/arm-none-eabi/bin/../lib/gcc/arm-none-eabi/12.2.1/../../../../arm-none-eabi/lib/thumb/v7e-m/nofp/libc_nano.a(libc_a-fstatr.o)
                                                  /opt/arm-none-eabi/bin/../lib/gcc/arm-none-eabi/12.2.1/../../../../arm-none-eabi/lib/thumb/v7e-m/nofp/libc_nano.a(libc_a-makebuf.o)
_fwalk_sglue                                      /opt/arm-none-eabi/bin/../lib/gcc/arm-none-eabi/12.2.1/../../../../arm-none-eabi/lib/thumb/v7e-m/nofp/libc_nano.a(libc_a-fwalk.o)
                                                  /opt/arm-none-eabi/bin/../lib/gcc/arm-none-eabi/12.2.1/../../../../arm-none-eabi/lib/thumb/v7e-m/nofp/libc_nano.a(libc_a-fflush.o)
                                                  /opt/arm-none-eabi/bin/../lib/gcc/arm-none-eabi/12.2.1/../../../../arm-none-eabi/lib/thumb/v7e-m/nofp/libc_nano.a(libc_a-findfp.o)
_getpid                                           /opt/arm-none-eabi/bin/../lib/gcc/arm-none-eabi/12.2.1/../../../../arm-none-eabi/lib/thumb/v7e-m/nofp/libnosys.a(getpid.o)
                                                  /opt/arm-none-eabi/bin/../lib/gcc/arm-none-eabi/12.2.1/../../../../arm-none-eabi/lib/thumb/v7e-m/nofp/libc_nano.a(libc_a-signalr.o)
_getpid_r                                         /opt/arm-none-eabi/bin/../lib/gcc/arm-none-eabi/12.2.1/../../../../arm-none-eabi/lib/thumb/v7e-m/nofp/libc_nano.a(libc_a-signalr.o)
                                                  /opt/arm-none-eabi/bin/../lib/gcc/arm-none-eabi/12.2.1/../../../../arm-none-eabi/lib/thumb/v7e-m/nofp/libc_nano.a(libc_a-signal.o)
_impure_data                                      /opt/arm-none-eabi/bin/../lib/gcc/arm-none-eabi/12.2.1/../../../../arm-none-eabi/lib/thumb/v7e-m/nofp/libc_nano.a(libc_a-impure.o)
                                                  /opt/arm-none-eabi/bin/../lib/gcc/arm-none-eabi/12.2.1/../../../../arm-none-eabi/lib/thumb/v7e-m/nofp/libc_nano.a(libc_a-fflush.o)
                                                  /opt/arm-none-eabi/bin/../lib/gcc/arm-none-eabi/12.2.1/../../../../arm-none-eabi/lib/thumb/v7e-m/nofp/libc_nano.a(libc_a-findfp.o)
_impure_ptr                                       /opt/arm-none-eabi/bin/../lib/gcc/arm-none-eabi/12.2.1/../../../../arm-none-eabi/lib/thumb/v7e-m/nofp/libc_nano.a(libc_a-impure.o)
                                                  /opt/arm-none-eabi/bin/../lib/gcc/arm-none-eabi/12.2.1/../../../../arm-none-eabi/lib/thumb/v7e-m/nofp/libc_nano.a(libc_a-signal.o)
                                                  /opt/arm-none-eabi/bin/../lib/gcc/arm-none-eabi/12.2.1/../../../../arm-none-eabi/lib/thumb/v7e-m/nofp/libc_nano.a(libc_a-fprintf.o)
                                                  /opt/arm-none-eabi/bin/../lib/gcc/arm-none-eabi/12.2.1/../../../../arm-none-eabi/lib/thumb/v7e-m/nofp/libc_nano.a(libc_a-assert.o)
                                                  /opt/arm-none-eabi/bin/../lib/gcc/arm-none-eabi/12.2.1/../../../../arm-none-eabi/lib/thumb/v7e-m/nofp/libc_nano.a(libc_a-locale.o)
                                                  /opt/arm-none-eabi/bin/../lib/gcc/arm-none-eabi/12.2.1/../../../../arm-none-eabi/lib/thumb/v7e-m/nofp/libc_nano.a(libc_a-fflush.o)
                                                  /opt/arm-none-eabi/bin/../lib/gcc/arm-none-eabi/12.2.1/../../../../arm-none-eabi/lib/thumb/v7e-m/nofp/libc_nano.a(libc_a-nano-vfprintf.o)
                                                  /opt/arm-none-eabi/bin/../lib/gcc/arm-none-eabi/12.2.1/../../../../arm-none-eabi/lib/thumb/v7e-m/nofp/libc_nano.a(libc_a-malloc.o)
                                                  /opt/arm-none-eabi/bin/../lib/gcc/arm-none-eabi/12.2.1/../../../../arm-none-eabi/lib/thumb/v7e-m/nofp/libc_nano.a(libc_a-reent.o)
                                                  /opt/arm-none-eabi/bin/../lib/gcc/arm-none-eabi/12.2.1/../../../../arm-none-eabi/lib/thumb/v7e-m/nofp/libc_nano.a(libc_a-wsetup.o)
                                                  /opt/arm-none-eabi/bin/../lib/gcc/arm-none-eabi/12.2.1/../../../../arm-none-eabi/lib/thumb/v7e-m/nofp/libc_nano.a(libc_a-wbuf.o)
                                                  /opt/arm-none-eabi/bin/../lib/gcc/arm-none-eabi/12.2.1/../../../../arm-none-eabi/lib/thumb/v7e-m/nofp/libc_nano.a(libc_a-sprintf.o)
                                                  /opt/arm-none-eabi/bin/../lib/gcc/arm-none-eabi/12.2.1/../../../../arm-none-eabi/lib/thumb/v7e-m/nofp/libc_nano.a(libc_a-puts.o)
                                                  /opt/arm-none-eabi/bin/../lib/gcc/arm-none-eabi/12.2.1/../../../../arm-none-eabi/lib/thumb/v7e-m/nofp/libc_nano.a(libc_a-printf.o)
_init                                             /opt/arm-none-eabi/bin/../lib/gcc/arm-none-eabi/12.2.1/thumb/v7e-m/nofp/crti.o
                                                  /opt/arm-none-eabi/bin/../lib/gcc/arm-none-eabi/12.2.1/../../../../arm-none-eabi/lib/thumb/v7e-m/nofp/libc_nano.a(libc_a-init.o)
_init_signal                                      /opt/arm-none-eabi/bin/../lib/gcc/arm-none-eabi/12.2.1/../../../../arm-none-eabi/lib/thumb/v7e-m/nofp/libc_nano.a(libc_a-signal.o)
_init_signal_r                                    /opt/arm-none-eabi/bin/../lib/gcc/arm-none-eabi/12.2.1/../../../../arm-none-eabi/lib/thumb/v7e-m/nofp/libc_nano.a(libc_a-signal.o)
_iprintf_r                                        /opt/arm-none-eabi/bin/../lib/gcc/arm-none-eabi/12.2.1/../../../../arm-none-eabi/lib/thumb/v7e-m/nofp/libc_nano.a(libc_a-printf.o)
_isatty                                           /opt/arm-none-eabi/bin/../lib/gcc/arm-none-eabi/12.2.1/../../../../arm-none-eabi/lib/thumb/v7e-m/nofp/libnosys.a(isatty.o)
                                                  /opt/arm-none-eabi/bin/../lib/gcc/arm-none-eabi/12.2.1/../../../../arm-none-eabi/lib/thumb/v7e-m/nofp/libc_nano.a(libc_a-isattyr.o)
_isatty_r                                         /opt/arm-none-eabi/bin/../lib/gcc/arm-none-eabi/12.2.1/../../../../arm-none-eabi/lib/thumb/v7e-m/nofp/libc_nano.a(libc_a-isattyr.o)
                                                  /opt/arm-none-eabi/bin/../lib/gcc/arm-none-eabi/12.2.1/../../../../arm-none-eabi/lib/thumb/v7e-m/nofp/libc_nano.a(libc_a-makebuf.o)
_kill                                             /opt/arm-none-eabi/bin/../lib/gcc/arm-none-eabi/12.2.1/../../../../arm-none-eabi/lib/thumb/v7e-m/nofp/libnosys.a(kill.o)
                                                  /opt/arm-none-eabi/bin/../lib/gcc/arm-none-eabi/12.2.1/../../../../arm-none-eabi/lib/thumb/v7e-m/nofp/libc_nano.a(libc_a-signalr.o)
_kill_r                                           /opt/arm-none-eabi/bin/../lib/gcc/arm-none-eabi/12.2.1/../../../../arm-none-eabi/lib/thumb/v7e-m/nofp/libc_nano.a(libc_a-signalr.o)
                                                  /opt/arm-none-eabi/bin/../lib/gcc/arm-none-eabi/12.2.1/../../../../arm-none-eabi/lib/thumb/v7e-m/nofp/libc_nano.a(libc_a-signal.o)
_localeconv_r                                     /opt/arm-none-eabi/bin/../lib/gcc/arm-none-eabi/12.2.1/../../../../arm-none-eabi/lib/thumb/v7e-m/nofp/libc_nano.a(libc_a-localeconv.o)
                                                  /opt/arm-none-eabi/bin/../lib/gcc/arm-none-eabi/12.2.1/../../../../arm-none-eabi/lib/thumb/v7e-m/nofp/libc_nano.a(libc_a-nano-vfprintf_float.o)
_lseek                                            /opt/arm-none-eabi/bin/../lib/gcc/arm-none-eabi/12.2.1/../../../../arm-none-eabi/lib/thumb/v7e-m/nofp/libnosys.a(lseek.o)
                                                  /opt/arm-none-eabi/bin/../lib/gcc/arm-none-eabi/12.2.1/../../../../arm-none-eabi/lib/thumb/v7e-m/nofp/libc_nano.a(libc_a-lseekr.o)
_lseek_r                                          /opt/arm-none-eabi/bin/../lib/gcc/arm-none-eabi/12.2.1/../../../../arm-none-eabi/lib/thumb/v7e-m/nofp/libc_nano.a(libc_a-lseekr.o)
                                                  /opt/arm-none-eabi/bin/../lib/gcc/arm-none-eabi/12.2.1/../../../../arm-none-eabi/lib/thumb/v7e-m/nofp/libc_nano.a(libc_a-stdio.o)
_mainCRTStartup                                   /opt/arm-none-eabi/bin/../lib/gcc/arm-none-eabi/12.2.1/../../../../arm-none-eabi/lib/thumb/v7e-m/nofp/crt0.o
_malloc_r                                         /opt/arm-none-eabi/bin/../lib/gcc/arm-none-eabi/12.2.1/../../../../arm-none-eabi/lib/thumb/v7e-m/nofp/libc_nano.a(libc_a-mallocr.o)
                                                  /opt/arm-none-eabi/bin/../lib/gcc/arm-none-eabi/12.2.1/../../../../arm-none-eabi/lib/thumb/v7e-m/nofp/libc_nano.a(libc_a-signal.o)
                                                  /opt/arm-none-eabi/bin/../lib/gcc/arm-none-eabi/12.2.1/../../../../arm-none-eabi/lib/thumb/v7e-m/nofp/libc_nano.a(libc_a-reallocr.o)
                                                  /opt/arm-none-eabi/bin/../lib/gcc/arm-none-eabi/12.2.1/../../../../arm-none-eabi/lib/thumb/v7e-m/nofp/libc_nano.a(libc_a-callocr.o)
                                                  /opt/arm-none-eabi/bin/../lib/gcc/arm-none-eabi/12.2.1/../../../../arm-none-eabi/lib/thumb/v7e-m/nofp/libc_nano.a(libc_a-makebuf.o)
                                                  /opt/arm-none-eabi/bin/../lib/gcc/arm-none-eabi/12.2.1/../../../../arm-none-eabi/lib/thumb/v7e-m/nofp/libc_nano.a(libc_a-fvwrite.o)
                                                  /opt/arm-none-eabi/bin/../lib/gcc/arm-none-eabi/12.2.1/../../../../arm-none-eabi/lib/thumb/v7e-m/nofp/libc_nano.a(libc_a-nano-svfprintf.o)
                                                  /opt/arm-none-eabi/bin/../lib/gcc/arm-none-eabi/12.2.1/../../../../arm-none-eabi/lib/thumb/v7e-m/nofp/libc_nano.a(libc_a-malloc.o)
                                                  /opt/arm-none-eabi/bin/../lib/gcc/arm-none-eabi/12.2.1/../../../../arm-none-eabi/lib/thumb/v7e-m/nofp/libc_nano.a(libc_a-findfp.o)
_malloc_usable_size_r                             /opt/arm-none-eabi/bin/../lib/gcc/arm-none-eabi/12.2.1/../../../../arm-none-eabi/lib/thumb/v7e-m/nofp/libc_nano.a(libc_a-msizer.o)
                                                  /opt/arm-none-eabi/bin/../lib/gcc/arm-none-eabi/12.2.1/../../../../arm-none-eabi/lib/thumb/v7e-m/nofp/libc_nano.a(libc_a-reallocr.o)
_mbtowc_r                                         /opt/arm-none-eabi/bin/../lib/gcc/arm-none-eabi/12.2.1/../../../../arm-none-eabi/lib/thumb/v7e-m/nofp/libc_nano.a(libc_a-mbtowc_r.o)
_mprec_log10                                      /opt/arm-none-eabi/bin/../lib/gcc/arm-none-eabi/12.2.1/../../../../arm-none-eabi/lib/thumb/v7e-m/nofp/libc_nano.a(libc_a-mprec.o)
_printf_common                                    /opt/arm-none-eabi/bin/../lib/gcc/arm-none-eabi/12.2.1/../../../../arm-none-eabi/lib/thumb/v7e-m/nofp/libc_nano.a(libc_a-nano-vfprintf_i.o)
                                                  /opt/arm-none-eabi/bin/../lib/gcc/arm-none-eabi/12.2.1/../../../../arm-none-eabi/lib/thumb/v7e-m/nofp/libc_nano.a(libc_a-nano-vfprintf_float.o)
_printf_float                                     /opt/arm-none-eabi/bin/../lib/gcc/arm-none-eabi/12.2.1/../../../../arm-none-eabi/lib/thumb/v7e-m/nofp/libc_nano.a(libc_a-nano-vfprintf_float.o)
                                                  /opt/arm-none-eabi/bin/../lib/gcc/arm-none-eabi/12.2.1/../../../../arm-none-eabi/lib/thumb/v7e-m/nofp/libc_nano.a(libc_a-nano-vfprintf.o)
                                                  /opt/arm-none-eabi/bin/../lib/gcc/arm-none-eabi/12.2.1/../../../../arm-none-eabi/lib/thumb/v7e-m/nofp/libc_nano.a(libc_a-nano-svfprintf.o)
_printf_i                                         /opt/arm-none-eabi/bin/../lib/gcc/arm-none-eabi/12.2.1/../../../../arm-none-eabi/lib/thumb/v7e-m/nofp/libc_nano.a(libc_a-nano-vfprintf_i.o)
                                                  /opt/arm-none-eabi/bin/../lib/gcc/arm-none-eabi/12.2.1/../../../../arm-none-eabi/lib/thumb/v7e-m/nofp/libc_nano.a(libc_a-nano-vfprintf.o)
                                                  /opt/arm-none-eabi/bin/../lib/gcc/arm-none-eabi/12.2.1/../../../../arm-none-eabi/lib/thumb/v7e-m/nofp/libc_nano.a(libc_a-nano-svfprintf.o)
_printf_r                                         /opt/arm-none-eabi/bin/../lib/gcc/arm-none-eabi/12.2.1/../../../../arm-none-eabi/lib/thumb/v7e-m/nofp/libc_nano.a(libc_a-printf.o)
_puts_r                                           /opt/arm-none-eabi/bin/../lib/gcc/arm-none-eabi/12.2.1/../../../../arm-none-eabi/lib/thumb/v7e-m/nofp/libc_nano.a(libc_a-puts.o)
_raise_r                                          /opt/arm-none-eabi/bin/../lib/gcc/arm-none-eabi/12.2.1/../../../../arm-none-eabi/lib/thumb/v7e-m/nofp/libc_nano.a(libc_a-signal.o)
_read                                             /opt/arm-none-eabi/bin/../lib/gcc/arm-none-eabi/12.2.1/../../../../arm-none-eabi/lib/thumb/v7e-m/nofp/libnosys.a(read.o)
                                                  /opt/arm-none-eabi/bin/../lib/gcc/arm-none-eabi/12.2.1/../../../../arm-none-eabi/lib/thumb/v7e-m/nofp/libc_nano.a(libc_a-readr.o)
_read_r                                           /opt/arm-none-eabi/bin/../lib/gcc/arm-none-eabi/12.2.1/../../../../arm-none-eabi/lib/thumb/v7e-m/nofp/libc_nano.a(libc_a-readr.o)
                                                  /opt/arm-none-eabi/bin/../lib/gcc/arm-none-eabi/12.2.1/../../../../arm-none-eabi/lib/thumb/v7e-m/nofp/libc_nano.a(libc_a-stdio.o)
_realloc_r                                        /opt/arm-none-eabi/bin/../lib/gcc/arm-none-eabi/12.2.1/../../../../arm-none-eabi/lib/thumb/v7e-m/nofp/libc_nano.a(libc_a-reallocr.o)
                                                  /opt/arm-none-eabi/bin/../lib/gcc/arm-none-eabi/12.2.1/../../../../arm-none-eabi/lib/thumb/v7e-m/nofp/libc_nano.a(libc_a-fvwrite.o)
                                                  /opt/arm-none-eabi/bin/../lib/gcc/arm-none-eabi/12.2.1/../../../../arm-none-eabi/lib/thumb/v7e-m/nofp/libc_nano.a(libc_a-nano-svfprintf.o)
_reclaim_reent                                    /opt/arm-none-eabi/bin/../lib/gcc/arm-none-eabi/12.2.1/../../../../arm-none-eabi/lib/thumb/v7e-m/nofp/libc_nano.a(libc_a-reent.o)
_sbrk                                             /opt/arm-none-eabi/bin/../lib/gcc/arm-none-eabi/12.2.1/../../../../arm-none-eabi/lib/thumb/v7e-m/nofp/libnosys.a(sbrk.o)
                                                  /opt/arm-none-eabi/bin/../lib/gcc/arm-none-eabi/12.2.1/../../../../arm-none-eabi/lib/thumb/v7e-m/nofp/libc_nano.a(libc_a-sbrkr.o)
_sbrk_r                                           /opt/arm-none-eabi/bin/../lib/gcc/arm-none-eabi/12.2.1/../../../../arm-none-eabi/lib/thumb/v7e-m/nofp/libc_nano.a(libc_a-sbrkr.o)
                                                  /opt/arm-none-eabi/bin/../lib/gcc/arm-none-eabi/12.2.1/../../../../arm-none-eabi/lib/thumb/v7e-m/nofp/libc_nano.a(libc_a-mallocr.o)
_sbss                                             build/startup_gd32f450_470.o
_sdata                                            build/startup_gd32f450_470.o
_setlocale_r                                      /opt/arm-none-eabi/bin/../lib/gcc/arm-none-eabi/12.2.1/../../../../arm-none-eabi/lib/thumb/v7e-m/nofp/libc_nano.a(libc_a-locale.o)
_sidata                                           build/startup_gd32f450_470.o
_signal_r                                         /opt/arm-none-eabi/bin/../lib/gcc/arm-none-eabi/12.2.1/../../../../arm-none-eabi/lib/thumb/v7e-m/nofp/libc_nano.a(libc_a-signal.o)
_siprintf_r                                       /opt/arm-none-eabi/bin/../lib/gcc/arm-none-eabi/12.2.1/../../../../arm-none-eabi/lib/thumb/v7e-m/nofp/libc_nano.a(libc_a-sprintf.o)
_sprintf_r                                        /opt/arm-none-eabi/bin/../lib/gcc/arm-none-eabi/12.2.1/../../../../arm-none-eabi/lib/thumb/v7e-m/nofp/libc_nano.a(libc_a-sprintf.o)
_stack_init                                       /opt/arm-none-eabi/bin/../lib/gcc/arm-none-eabi/12.2.1/../../../../arm-none-eabi/lib/thumb/v7e-m/nofp/crt0.o
_start                                            /opt/arm-none-eabi/bin/../lib/gcc/arm-none-eabi/12.2.1/../../../../arm-none-eabi/lib/thumb/v7e-m/nofp/crt0.o
_svfiprintf_r                                     /opt/arm-none-eabi/bin/../lib/gcc/arm-none-eabi/12.2.1/../../../../arm-none-eabi/lib/thumb/v7e-m/nofp/libc_nano.a(libc_a-nano-svfprintf.o)
_svfprintf_r                                      /opt/arm-none-eabi/bin/../lib/gcc/arm-none-eabi/12.2.1/../../../../arm-none-eabi/lib/thumb/v7e-m/nofp/libc_nano.a(libc_a-nano-svfprintf.o)
                                                  /opt/arm-none-eabi/bin/../lib/gcc/arm-none-eabi/12.2.1/../../../../arm-none-eabi/lib/thumb/v7e-m/nofp/libc_nano.a(libc_a-sprintf.o)
_vfiprintf_r                                      /opt/arm-none-eabi/bin/../lib/gcc/arm-none-eabi/12.2.1/../../../../arm-none-eabi/lib/thumb/v7e-m/nofp/libc_nano.a(libc_a-nano-vfprintf.o)
_vfprintf_r                                       /opt/arm-none-eabi/bin/../lib/gcc/arm-none-eabi/12.2.1/../../../../arm-none-eabi/lib/thumb/v7e-m/nofp/libc_nano.a(libc_a-nano-vfprintf.o)
                                                  /opt/arm-none-eabi/bin/../lib/gcc/arm-none-eabi/12.2.1/../../../../arm-none-eabi/lib/thumb/v7e-m/nofp/libc_nano.a(libc_a-fprintf.o)
                                                  /opt/arm-none-eabi/bin/../lib/gcc/arm-none-eabi/12.2.1/../../../../arm-none-eabi/lib/thumb/v7e-m/nofp/libc_nano.a(libc_a-printf.o)
_wctomb_r                                         /opt/arm-none-eabi/bin/../lib/gcc/arm-none-eabi/12.2.1/../../../../arm-none-eabi/lib/thumb/v7e-m/nofp/libc_nano.a(libc_a-wctomb_r.o)
_write                                            /opt/arm-none-eabi/bin/../lib/gcc/arm-none-eabi/12.2.1/../../../../arm-none-eabi/lib/thumb/v7e-m/nofp/libnosys.a(write.o)
                                                  /opt/arm-none-eabi/bin/../lib/gcc/arm-none-eabi/12.2.1/../../../../arm-none-eabi/lib/thumb/v7e-m/nofp/libc_nano.a(libc_a-writer.o)
_write_r                                          /opt/arm-none-eabi/bin/../lib/gcc/arm-none-eabi/12.2.1/../../../../arm-none-eabi/lib/thumb/v7e-m/nofp/libc_nano.a(libc_a-writer.o)
                                                  /opt/arm-none-eabi/bin/../lib/gcc/arm-none-eabi/12.2.1/../../../../arm-none-eabi/lib/thumb/v7e-m/nofp/libc_nano.a(libc_a-stdio.o)
abort                                             /opt/arm-none-eabi/bin/../lib/gcc/arm-none-eabi/12.2.1/../../../../arm-none-eabi/lib/thumb/v7e-m/nofp/libc_nano.a(libc_a-abort.o)
                                                  /opt/arm-none-eabi/bin/../lib/gcc/arm-none-eabi/12.2.1/../../../../arm-none-eabi/lib/thumb/v7e-m/nofp/libc_nano.a(libc_a-assert.o)
adc_calibration_enable                            build/gd32f4xx_adc.o
adc_channel_16_to_18                              build/gd32f4xx_adc.o
adc_channel_length_config                         build/gd32f4xx_adc.o
adc_clock_config                                  build/gd32f4xx_adc.o
adc_data_alignment_config                         build/gd32f4xx_adc.o
adc_deinit                                        build/gd32f4xx_adc.o
adc_disable                                       build/gd32f4xx_adc.o
adc_discontinuous_mode_config                     build/gd32f4xx_adc.o
adc_dma_mode_disable                              build/gd32f4xx_adc.o
adc_dma_mode_enable                               build/gd32f4xx_adc.o
adc_dma_request_after_last_disable                build/gd32f4xx_adc.o
adc_dma_request_after_last_enable                 build/gd32f4xx_adc.o
adc_enable                                        build/gd32f4xx_adc.o
adc_end_of_conversion_config                      build/gd32f4xx_adc.o
adc_external_trigger_config                       build/gd32f4xx_adc.o
adc_external_trigger_source_config                build/gd32f4xx_adc.o
adc_flag_clear                                    build/gd32f4xx_adc.o
adc_flag_get                                      build/gd32f4xx_adc.o
adc_inserted_channel_config                       build/gd32f4xx_adc.o
adc_inserted_channel_offset_config                build/gd32f4xx_adc.o
adc_inserted_data_read                            build/gd32f4xx_adc.o
adc_inserted_software_startconv_flag_get          build/gd32f4xx_adc.o
adc_interrupt_disable                             build/gd32f4xx_adc.o
adc_interrupt_enable                              build/gd32f4xx_adc.o
adc_interrupt_flag_clear                          build/gd32f4xx_adc.o
adc_interrupt_flag_get                            build/gd32f4xx_adc.o
adc_oversample_mode_config                        build/gd32f4xx_adc.o
adc_oversample_mode_disable                       build/gd32f4xx_adc.o
adc_oversample_mode_enable                        build/gd32f4xx_adc.o
adc_resolution_config                             build/gd32f4xx_adc.o
adc_routine_channel_config                        build/gd32f4xx_adc.o
adc_routine_data_read                             build/gd32f4xx_adc.o
adc_routine_software_startconv_flag_get           build/gd32f4xx_adc.o
adc_software_trigger_enable                       build/gd32f4xx_adc.o
adc_special_function_config                       build/gd32f4xx_adc.o
adc_sync_delay_config                             build/gd32f4xx_adc.o
adc_sync_dma_config                               build/gd32f4xx_adc.o
adc_sync_dma_request_after_last_disable           build/gd32f4xx_adc.o
adc_sync_dma_request_after_last_enable            build/gd32f4xx_adc.o
adc_sync_mode_config                              build/gd32f4xx_adc.o
adc_sync_routine_data_read                        build/gd32f4xx_adc.o
adc_watchdog_disable                              build/gd32f4xx_adc.o
adc_watchdog_sequence_channel_enable              build/gd32f4xx_adc.o
adc_watchdog_single_channel_disable               build/gd32f4xx_adc.o
adc_watchdog_single_channel_enable                build/gd32f4xx_adc.o
adc_watchdog_threshold_config                     build/gd32f4xx_adc.o
asc2_1206                                         build/lcd.o
asc2_1608                                         build/lcd.o
asc2_2412                                         build/lcd.o
atexit                                            /opt/arm-none-eabi/bin/../lib/gcc/arm-none-eabi/12.2.1/../../../../arm-none-eabi/lib/thumb/v7e-m/nofp/libc_nano.a(libc_a-atexit.o)
                                                  /opt/arm-none-eabi/bin/../lib/gcc/arm-none-eabi/12.2.1/../../../../arm-none-eabi/lib/thumb/v7e-m/nofp/crt0.o
crc_block_data_calculate                          build/gd32f4xx_crc.o
crc_data_register_read                            build/gd32f4xx_crc.o
crc_data_register_reset                           build/gd32f4xx_crc.o
crc_deinit                                        build/gd32f4xx_crc.o
crc_free_data_register_read                       build/gd32f4xx_crc.o
crc_free_data_register_write                      build/gd32f4xx_crc.o
crc_single_data_calculate                         build/gd32f4xx_crc.o
dac_concurrent_data_set                           build/gd32f4xx_dac.o
dac_concurrent_disable                            build/gd32f4xx_dac.o
dac_concurrent_enable                             build/gd32f4xx_dac.o
dac_concurrent_interrupt_disable                  build/gd32f4xx_dac.o
dac_concurrent_interrupt_enable                   build/gd32f4xx_dac.o
dac_concurrent_output_buffer_disable              build/gd32f4xx_dac.o
dac_concurrent_output_buffer_enable               build/gd32f4xx_dac.o
dac_concurrent_software_trigger_disable           build/gd32f4xx_dac.o
dac_concurrent_software_trigger_enable            build/gd32f4xx_dac.o
dac_data_set                                      build/gd32f4xx_dac.o
dac_deinit                                        build/gd32f4xx_dac.o
dac_disable                                       build/gd32f4xx_dac.o
dac_dma_disable                                   build/gd32f4xx_dac.o
dac_dma_enable                                    build/gd32f4xx_dac.o
dac_enable                                        build/gd32f4xx_dac.o
dac_flag_clear                                    build/gd32f4xx_dac.o
dac_flag_get                                      build/gd32f4xx_dac.o
dac_interrupt_disable                             build/gd32f4xx_dac.o
dac_interrupt_enable                              build/gd32f4xx_dac.o
dac_interrupt_flag_clear                          build/gd32f4xx_dac.o
dac_interrupt_flag_get                            build/gd32f4xx_dac.o
dac_lfsr_noise_config                             build/gd32f4xx_dac.o
dac_output_buffer_disable                         build/gd32f4xx_dac.o
dac_output_buffer_enable                          build/gd32f4xx_dac.o
dac_output_value_get                              build/gd32f4xx_dac.o
dac_software_trigger_disable                      build/gd32f4xx_dac.o
dac_software_trigger_enable                       build/gd32f4xx_dac.o
dac_triangle_noise_config                         build/gd32f4xx_dac.o
dac_trigger_disable                               build/gd32f4xx_dac.o
dac_trigger_enable                                build/gd32f4xx_dac.o
dac_trigger_source_config                         build/gd32f4xx_dac.o
dac_wave_bit_width_config                         build/gd32f4xx_dac.o
dac_wave_mode_config                              build/gd32f4xx_dac.o
delay_1ms                                         build/systick.o
                                                  build/main.o
                                                  build/lcd.o
                                                  build/key.o
delay_decrement                                   build/systick.o
                                                  build/gd32f4xx_it.o
delay_us                                          build/lcd.o
end                                               /opt/arm-none-eabi/bin/../lib/gcc/arm-none-eabi/12.2.1/../../../../arm-none-eabi/lib/thumb/v7e-m/nofp/libnosys.a(sbrk.o)
errno                                             /opt/arm-none-eabi/bin/../lib/gcc/arm-none-eabi/12.2.1/../../../../arm-none-eabi/lib/thumb/v7e-m/nofp/libc_nano.a(libc_a-reent.o)
                                                  /opt/arm-none-eabi/bin/../lib/gcc/arm-none-eabi/12.2.1/../../../../arm-none-eabi/lib/thumb/v7e-m/nofp/libnosys.a(write.o)
                                                  /opt/arm-none-eabi/bin/../lib/gcc/arm-none-eabi/12.2.1/../../../../arm-none-eabi/lib/thumb/v7e-m/nofp/libnosys.a(read.o)
                                                  /opt/arm-none-eabi/bin/../lib/gcc/arm-none-eabi/12.2.1/../../../../arm-none-eabi/lib/thumb/v7e-m/nofp/libnosys.a(lseek.o)
                                                  /opt/arm-none-eabi/bin/../lib/gcc/arm-none-eabi/12.2.1/../../../../arm-none-eabi/lib/thumb/v7e-m/nofp/libnosys.a(kill.o)
                                                  /opt/arm-none-eabi/bin/../lib/gcc/arm-none-eabi/12.2.1/../../../../arm-none-eabi/lib/thumb/v7e-m/nofp/libnosys.a(isatty.o)
                                                  /opt/arm-none-eabi/bin/../lib/gcc/arm-none-eabi/12.2.1/../../../../arm-none-eabi/lib/thumb/v7e-m/nofp/libnosys.a(getpid.o)
                                                  /opt/arm-none-eabi/bin/../lib/gcc/arm-none-eabi/12.2.1/../../../../arm-none-eabi/lib/thumb/v7e-m/nofp/libnosys.a(fstat.o)
                                                  /opt/arm-none-eabi/bin/../lib/gcc/arm-none-eabi/12.2.1/../../../../arm-none-eabi/lib/thumb/v7e-m/nofp/libnosys.a(close.o)
                                                  /opt/arm-none-eabi/bin/../lib/gcc/arm-none-eabi/12.2.1/../../../../arm-none-eabi/lib/thumb/v7e-m/nofp/libc_nano.a(libc_a-signalr.o)
                                                  /opt/arm-none-eabi/bin/../lib/gcc/arm-none-eabi/12.2.1/../../../../arm-none-eabi/lib/thumb/v7e-m/nofp/libc_nano.a(libc_a-sbrkr.o)
                                                  /opt/arm-none-eabi/bin/../lib/gcc/arm-none-eabi/12.2.1/../../../../arm-none-eabi/lib/thumb/v7e-m/nofp/libc_nano.a(libc_a-isattyr.o)
                                                  /opt/arm-none-eabi/bin/../lib/gcc/arm-none-eabi/12.2.1/../../../../arm-none-eabi/lib/thumb/v7e-m/nofp/libc_nano.a(libc_a-fstatr.o)
                                                  /opt/arm-none-eabi/bin/../lib/gcc/arm-none-eabi/12.2.1/../../../../arm-none-eabi/lib/thumb/v7e-m/nofp/libc_nano.a(libc_a-writer.o)
                                                  /opt/arm-none-eabi/bin/../lib/gcc/arm-none-eabi/12.2.1/../../../../arm-none-eabi/lib/thumb/v7e-m/nofp/libc_nano.a(libc_a-readr.o)
                                                  /opt/arm-none-eabi/bin/../lib/gcc/arm-none-eabi/12.2.1/../../../../arm-none-eabi/lib/thumb/v7e-m/nofp/libc_nano.a(libc_a-lseekr.o)
                                                  /opt/arm-none-eabi/bin/../lib/gcc/arm-none-eabi/12.2.1/../../../../arm-none-eabi/lib/thumb/v7e-m/nofp/libc_nano.a(libc_a-closer.o)
exit                                              /opt/arm-none-eabi/bin/../lib/gcc/arm-none-eabi/12.2.1/../../../../arm-none-eabi/lib/thumb/v7e-m/nofp/libc_nano.a(libc_a-exit.o)
                                                  /opt/arm-none-eabi/bin/../lib/gcc/arm-none-eabi/12.2.1/../../../../arm-none-eabi/lib/thumb/v7e-m/nofp/crt0.o
exmc_ecc_get                                      build/gd32f4xx_exmc.o
exmc_flag_clear                                   build/gd32f4xx_exmc.o
exmc_flag_get                                     build/gd32f4xx_exmc.o
exmc_interrupt_disable                            build/gd32f4xx_exmc.o
exmc_interrupt_enable                             build/gd32f4xx_exmc.o
exmc_interrupt_flag_clear                         build/gd32f4xx_exmc.o
exmc_interrupt_flag_get                           build/gd32f4xx_exmc.o
exmc_nand_deinit                                  build/gd32f4xx_exmc.o
exmc_nand_disable                                 build/gd32f4xx_exmc.o
exmc_nand_ecc_config                              build/gd32f4xx_exmc.o
exmc_nand_enable                                  build/gd32f4xx_exmc.o
exmc_nand_init                                    build/gd32f4xx_exmc.o
exmc_nand_struct_para_init                        build/gd32f4xx_exmc.o
exmc_norsram_consecutive_clock_config             build/gd32f4xx_exmc.o
exmc_norsram_deinit                               build/gd32f4xx_exmc.o
exmc_norsram_disable                              build/gd32f4xx_exmc.o
exmc_norsram_enable                               build/gd32f4xx_exmc.o
                                                  build/lcd.o
exmc_norsram_init                                 build/gd32f4xx_exmc.o
                                                  build/lcd.o
exmc_norsram_page_size_config                     build/gd32f4xx_exmc.o
exmc_norsram_struct_para_init                     build/gd32f4xx_exmc.o
exmc_pccard_deinit                                build/gd32f4xx_exmc.o
exmc_pccard_disable                               build/gd32f4xx_exmc.o
exmc_pccard_enable                                build/gd32f4xx_exmc.o
exmc_pccard_init                                  build/gd32f4xx_exmc.o
exmc_pccard_struct_para_init                      build/gd32f4xx_exmc.o
exmc_sdram_autorefresh_number_set                 build/gd32f4xx_exmc.o
exmc_sdram_bankstatus_get                         build/gd32f4xx_exmc.o
exmc_sdram_command_config                         build/gd32f4xx_exmc.o
exmc_sdram_deinit                                 build/gd32f4xx_exmc.o
exmc_sdram_init                                   build/gd32f4xx_exmc.o
exmc_sdram_readsample_config                      build/gd32f4xx_exmc.o
exmc_sdram_readsample_enable                      build/gd32f4xx_exmc.o
exmc_sdram_refresh_count_set                      build/gd32f4xx_exmc.o
exmc_sdram_struct_command_para_init               build/gd32f4xx_exmc.o
exmc_sdram_struct_para_init                       build/gd32f4xx_exmc.o
exmc_sdram_write_protection_config                build/gd32f4xx_exmc.o
exmc_sqpipsram_deinit                             build/gd32f4xx_exmc.o
exmc_sqpipsram_high_id_get                        build/gd32f4xx_exmc.o
exmc_sqpipsram_init                               build/gd32f4xx_exmc.o
exmc_sqpipsram_low_id_get                         build/gd32f4xx_exmc.o
exmc_sqpipsram_read_command_set                   build/gd32f4xx_exmc.o
exmc_sqpipsram_read_id_command_send               build/gd32f4xx_exmc.o
exmc_sqpipsram_send_command_state_get             build/gd32f4xx_exmc.o
exmc_sqpipsram_struct_para_init                   build/gd32f4xx_exmc.o
exmc_sqpipsram_write_cmd_send                     build/gd32f4xx_exmc.o
exmc_sqpipsram_write_command_set                  build/gd32f4xx_exmc.o
exti_deinit                                       build/gd32f4xx_exti.o
exti_event_disable                                build/gd32f4xx_exti.o
exti_event_enable                                 build/gd32f4xx_exti.o
exti_flag_clear                                   build/gd32f4xx_exti.o
exti_flag_get                                     build/gd32f4xx_exti.o
exti_init                                         build/gd32f4xx_exti.o
exti_interrupt_disable                            build/gd32f4xx_exti.o
exti_interrupt_enable                             build/gd32f4xx_exti.o
exti_interrupt_flag_clear                         build/gd32f4xx_exti.o
exti_interrupt_flag_get                           build/gd32f4xx_exti.o
exti_software_interrupt_disable                   build/gd32f4xx_exti.o
exti_software_interrupt_enable                    build/gd32f4xx_exti.o
fflush                                            /opt/arm-none-eabi/bin/../lib/gcc/arm-none-eabi/12.2.1/../../../../arm-none-eabi/lib/thumb/v7e-m/nofp/libc_nano.a(libc_a-fflush.o)
fiprintf                                          /opt/arm-none-eabi/bin/../lib/gcc/arm-none-eabi/12.2.1/../../../../arm-none-eabi/lib/thumb/v7e-m/nofp/libc_nano.a(libc_a-fprintf.o)
                                                  /opt/arm-none-eabi/bin/../lib/gcc/arm-none-eabi/12.2.1/../../../../arm-none-eabi/lib/thumb/v7e-m/nofp/libc_nano.a(libc_a-assert.o)
fprintf                                           /opt/arm-none-eabi/bin/../lib/gcc/arm-none-eabi/12.2.1/../../../../arm-none-eabi/lib/thumb/v7e-m/nofp/libc_nano.a(libc_a-fprintf.o)
fputc                                             build/usart0.o
free                                              /opt/arm-none-eabi/bin/../lib/gcc/arm-none-eabi/12.2.1/../../../../arm-none-eabi/lib/thumb/v7e-m/nofp/libc_nano.a(libc_a-malloc.o)
g_pfnVectors                                      build/startup_gd32f450_470.o
gpio_af_set                                       build/gd32f4xx_gpio.o
                                                  build/usart0.o
                                                  build/lcd.o
gpio_bit_reset                                    build/gd32f4xx_gpio.o
                                                  build/lcd.o
gpio_bit_set                                      build/gd32f4xx_gpio.o
                                                  build/lcd.o
gpio_bit_toggle                                   build/gd32f4xx_gpio.o
gpio_bit_write                                    build/gd32f4xx_gpio.o
gpio_deinit                                       build/gd32f4xx_gpio.o
gpio_input_bit_get                                build/gd32f4xx_gpio.o
                                                  build/key.o
gpio_input_port_get                               build/gd32f4xx_gpio.o
gpio_mode_set                                     build/gd32f4xx_gpio.o
                                                  build/usart0.o
                                                  build/lcd.o
                                                  build/led.o
                                                  build/key.o
gpio_output_bit_get                               build/gd32f4xx_gpio.o
gpio_output_options_set                           build/gd32f4xx_gpio.o
                                                  build/usart0.o
                                                  build/lcd.o
                                                  build/led.o
                                                  build/key.o
gpio_output_port_get                              build/gd32f4xx_gpio.o
gpio_pin_lock                                     build/gd32f4xx_gpio.o
gpio_port_toggle                                  build/gd32f4xx_gpio.o
gpio_port_write                                   build/gd32f4xx_gpio.o
hardware_init_hook                                /opt/arm-none-eabi/bin/../lib/gcc/arm-none-eabi/12.2.1/../../../../arm-none-eabi/lib/thumb/v7e-m/nofp/crt0.o
i2s_disable                                       build/gd32f4xx_spi.o
i2s_enable                                        build/gd32f4xx_spi.o
i2s_full_duplex_mode_config                       build/gd32f4xx_spi.o
i2s_init                                          build/gd32f4xx_spi.o
i2s_psc_config                                    build/gd32f4xx_spi.o
iprintf                                           /opt/arm-none-eabi/bin/../lib/gcc/arm-none-eabi/12.2.1/../../../../arm-none-eabi/lib/thumb/v7e-m/nofp/libc_nano.a(libc_a-printf.o)
key_get_value                                     build/key.o
key_init                                          build/key.o
                                                  build/main.o
lcd_id                                            build/lcd.o
                                                  build/main.o
lcddev                                            build/lcd.o
led_init                                          build/led.o
                                                  build/main.o
localeconv                                        /opt/arm-none-eabi/bin/../lib/gcc/arm-none-eabi/12.2.1/../../../../arm-none-eabi/lib/thumb/v7e-m/nofp/libc_nano.a(libc_a-localeconv.o)
main                                              build/main.o
                                                  build/startup_gd32f450_470.o
                                                  /opt/arm-none-eabi/bin/../lib/gcc/arm-none-eabi/12.2.1/../../../../arm-none-eabi/lib/thumb/v7e-m/nofp/crt0.o
malloc                                            /opt/arm-none-eabi/bin/../lib/gcc/arm-none-eabi/12.2.1/../../../../arm-none-eabi/lib/thumb/v7e-m/nofp/libc_nano.a(libc_a-malloc.o)
                                                  /opt/arm-none-eabi/bin/../lib/gcc/arm-none-eabi/12.2.1/../../../../arm-none-eabi/lib/thumb/v7e-m/nofp/libc_nano.a(libc_a-mprec.o)
                                                  /opt/arm-none-eabi/bin/../lib/gcc/arm-none-eabi/12.2.1/../../../../arm-none-eabi/lib/thumb/v7e-m/nofp/libc_nano.a(libc_a-dtoa.o)
                                                  /opt/arm-none-eabi/bin/../lib/gcc/arm-none-eabi/12.2.1/../../../../arm-none-eabi/lib/thumb/v7e-m/nofp/libc_nano.a(libc_a-__atexit.o)
memchr                                            /opt/arm-none-eabi/bin/../lib/gcc/arm-none-eabi/12.2.1/../../../../arm-none-eabi/lib/thumb/v7e-m/nofp/libc_nano.a(libc_a-memchr.o)
                                                  /opt/arm-none-eabi/bin/../lib/gcc/arm-none-eabi/12.2.1/../../../../arm-none-eabi/lib/thumb/v7e-m/nofp/libc_nano.a(libc_a-fvwrite.o)
                                                  /opt/arm-none-eabi/bin/../lib/gcc/arm-none-eabi/12.2.1/../../../../arm-none-eabi/lib/thumb/v7e-m/nofp/libc_nano.a(libc_a-nano-vfprintf.o)
                                                  /opt/arm-none-eabi/bin/../lib/gcc/arm-none-eabi/12.2.1/../../../../arm-none-eabi/lib/thumb/v7e-m/nofp/libc_nano.a(libc_a-nano-svfprintf.o)
                                                  /opt/arm-none-eabi/bin/../lib/gcc/arm-none-eabi/12.2.1/../../../../arm-none-eabi/lib/thumb/v7e-m/nofp/libc_nano.a(libc_a-nano-vfprintf_i.o)
memcpy                                            /opt/arm-none-eabi/bin/../lib/gcc/arm-none-eabi/12.2.1/../../../../arm-none-eabi/lib/thumb/v7e-m/nofp/libc_nano.a(libc_a-memcpy-stub.o)
                                                  /opt/arm-none-eabi/bin/../lib/gcc/arm-none-eabi/12.2.1/../../../../arm-none-eabi/lib/thumb/v7e-m/nofp/libc_nano.a(libc_a-reallocr.o)
                                                  /opt/arm-none-eabi/bin/../lib/gcc/arm-none-eabi/12.2.1/../../../../arm-none-eabi/lib/thumb/v7e-m/nofp/libc_nano.a(libc_a-fvwrite.o)
                                                  /opt/arm-none-eabi/bin/../lib/gcc/arm-none-eabi/12.2.1/../../../../arm-none-eabi/lib/thumb/v7e-m/nofp/libc_nano.a(libc_a-nano-svfprintf.o)
                                                  /opt/arm-none-eabi/bin/../lib/gcc/arm-none-eabi/12.2.1/../../../../arm-none-eabi/lib/thumb/v7e-m/nofp/libc_nano.a(libc_a-mprec.o)
                                                  /opt/arm-none-eabi/bin/../lib/gcc/arm-none-eabi/12.2.1/../../../../arm-none-eabi/lib/thumb/v7e-m/nofp/libc_nano.a(libc_a-dtoa.o)
memmove                                           /opt/arm-none-eabi/bin/../lib/gcc/arm-none-eabi/12.2.1/../../../../arm-none-eabi/lib/thumb/v7e-m/nofp/libc_nano.a(libc_a-memmove.o)
                                                  /opt/arm-none-eabi/bin/../lib/gcc/arm-none-eabi/12.2.1/../../../../arm-none-eabi/lib/thumb/v7e-m/nofp/libc_nano.a(libc_a-fvwrite.o)
                                                  /opt/arm-none-eabi/bin/../lib/gcc/arm-none-eabi/12.2.1/../../../../arm-none-eabi/lib/thumb/v7e-m/nofp/libc_nano.a(libc_a-nano-svfprintf.o)
memset                                            /opt/arm-none-eabi/bin/../lib/gcc/arm-none-eabi/12.2.1/../../../../arm-none-eabi/lib/thumb/v7e-m/nofp/libc_nano.a(libc_a-memset.o)
                                                  /opt/arm-none-eabi/bin/../lib/gcc/arm-none-eabi/12.2.1/../../../../arm-none-eabi/lib/thumb/v7e-m/nofp/libc_nano.a(libc_a-callocr.o)
                                                  /opt/arm-none-eabi/bin/../lib/gcc/arm-none-eabi/12.2.1/../../../../arm-none-eabi/lib/thumb/v7e-m/nofp/libc_nano.a(libc_a-findfp.o)
                                                  /opt/arm-none-eabi/bin/../lib/gcc/arm-none-eabi/12.2.1/../../../../arm-none-eabi/lib/thumb/v7e-m/nofp/crt0.o
nvic_irq_disable                                  build/gd32f4xx_misc.o
nvic_irq_enable                                   build/gd32f4xx_misc.o
nvic_priority_group_set                           build/gd32f4xx_misc.o
nvic_vector_table_set                             build/gd32f4xx_misc.o
opt_delay                                         build/lcd.o
pic_480800                                        build/pic_480800.o
printf                                            /opt/arm-none-eabi/bin/../lib/gcc/arm-none-eabi/12.2.1/../../../../arm-none-eabi/lib/thumb/v7e-m/nofp/libc_nano.a(libc_a-printf.o)
                                                  build/lcd.o
                                                  build/key.o
puts                                              /opt/arm-none-eabi/bin/../lib/gcc/arm-none-eabi/12.2.1/../../../../arm-none-eabi/lib/thumb/v7e-m/nofp/libc_nano.a(libc_a-puts.o)
                                                  build/main.o
raise                                             /opt/arm-none-eabi/bin/../lib/gcc/arm-none-eabi/12.2.1/../../../../arm-none-eabi/lib/thumb/v7e-m/nofp/libc_nano.a(libc_a-signal.o)
                                                  /opt/arm-none-eabi/bin/../lib/gcc/arm-none-eabi/12.2.1/../../../../arm-none-eabi/lib/thumb/v7e-m/nofp/libc_nano.a(libc_a-abort.o)
rcu_ahb_clock_config                              build/gd32f4xx_rcu.o
rcu_all_reset_flag_clear                          build/gd32f4xx_rcu.o
rcu_apb1_clock_config                             build/gd32f4xx_rcu.o
rcu_apb2_clock_config                             build/gd32f4xx_rcu.o
rcu_bkp_reset_disable                             build/gd32f4xx_rcu.o
rcu_bkp_reset_enable                              build/gd32f4xx_rcu.o
rcu_ck48m_clock_config                            build/gd32f4xx_rcu.o
rcu_ckout0_config                                 build/gd32f4xx_rcu.o
rcu_ckout1_config                                 build/gd32f4xx_rcu.o
rcu_clock_freq_get                                build/gd32f4xx_rcu.o
                                                  build/gd32f4xx_usart.o
rcu_deepsleep_voltage_set                         build/gd32f4xx_rcu.o
rcu_deinit                                        build/gd32f4xx_rcu.o
rcu_flag_get                                      build/gd32f4xx_rcu.o
rcu_hxtal_clock_monitor_disable                   build/gd32f4xx_rcu.o
rcu_hxtal_clock_monitor_enable                    build/gd32f4xx_rcu.o
rcu_i2s_clock_config                              build/gd32f4xx_rcu.o
                                                  build/gd32f4xx_spi.o
rcu_interrupt_disable                             build/gd32f4xx_rcu.o
rcu_interrupt_enable                              build/gd32f4xx_rcu.o
rcu_interrupt_flag_clear                          build/gd32f4xx_rcu.o
rcu_interrupt_flag_get                            build/gd32f4xx_rcu.o
rcu_irc16m_adjust_value_set                       build/gd32f4xx_rcu.o
rcu_lxtal_drive_capability_config                 build/gd32f4xx_rcu.o
rcu_osci_bypass_mode_disable                      build/gd32f4xx_rcu.o
rcu_osci_bypass_mode_enable                       build/gd32f4xx_rcu.o
rcu_osci_off                                      build/gd32f4xx_rcu.o
rcu_osci_on                                       build/gd32f4xx_rcu.o
                                                  build/gd32f4xx_spi.o
rcu_osci_stab_wait                                build/gd32f4xx_rcu.o
                                                  build/gd32f4xx_spi.o
rcu_periph_clock_disable                          build/gd32f4xx_rcu.o
rcu_periph_clock_enable                           build/gd32f4xx_rcu.o
                                                  build/usart0.o
                                                  build/lcd.o
                                                  build/led.o
                                                  build/key.o
rcu_periph_clock_sleep_disable                    build/gd32f4xx_rcu.o
rcu_periph_clock_sleep_enable                     build/gd32f4xx_rcu.o
rcu_periph_reset_disable                          build/gd32f4xx_rcu.o
                                                  build/gd32f4xx_tli.o
                                                  build/gd32f4xx_dac.o
                                                  build/gd32f4xx_adc.o
                                                  build/gd32f4xx_spi.o
                                                  build/gd32f4xx_usart.o
                                                  build/gd32f4xx_timer.o
                                                  build/gd32f4xx_gpio.o
rcu_periph_reset_enable                           build/gd32f4xx_rcu.o
                                                  build/gd32f4xx_tli.o
                                                  build/gd32f4xx_dac.o
                                                  build/gd32f4xx_adc.o
                                                  build/gd32f4xx_spi.o
                                                  build/gd32f4xx_usart.o
                                                  build/gd32f4xx_timer.o
                                                  build/gd32f4xx_gpio.o
rcu_pll48m_clock_config                           build/gd32f4xx_rcu.o
rcu_pll_config                                    build/gd32f4xx_rcu.o
rcu_plli2s_config                                 build/gd32f4xx_rcu.o
rcu_pllsai_config                                 build/gd32f4xx_rcu.o
rcu_rtc_clock_config                              build/gd32f4xx_rcu.o
rcu_rtc_div_config                                build/gd32f4xx_rcu.o
rcu_spread_spectrum_config                        build/gd32f4xx_rcu.o
rcu_spread_spectrum_disable                       build/gd32f4xx_rcu.o
rcu_spread_spectrum_enable                        build/gd32f4xx_rcu.o
rcu_system_clock_source_config                    build/gd32f4xx_rcu.o
rcu_system_clock_source_get                       build/gd32f4xx_rcu.o
rcu_timer_clock_prescaler_config                  build/gd32f4xx_rcu.o
rcu_tli_clock_div_config                          build/gd32f4xx_rcu.o
rcu_voltage_key_unlock                            build/gd32f4xx_rcu.o
setlocale                                         /opt/arm-none-eabi/bin/../lib/gcc/arm-none-eabi/12.2.1/../../../../arm-none-eabi/lib/thumb/v7e-m/nofp/libc_nano.a(libc_a-locale.o)
signal                                            /opt/arm-none-eabi/bin/../lib/gcc/arm-none-eabi/12.2.1/../../../../arm-none-eabi/lib/thumb/v7e-m/nofp/libc_nano.a(libc_a-signal.o)
siprintf                                          /opt/arm-none-eabi/bin/../lib/gcc/arm-none-eabi/12.2.1/../../../../arm-none-eabi/lib/thumb/v7e-m/nofp/libc_nano.a(libc_a-sprintf.o)
software_init_hook                                /opt/arm-none-eabi/bin/../lib/gcc/arm-none-eabi/12.2.1/../../../../arm-none-eabi/lib/thumb/v7e-m/nofp/crt0.o
spi_bidirectional_transfer_config                 build/gd32f4xx_spi.o
spi_crc_error_clear                               build/gd32f4xx_spi.o
spi_crc_get                                       build/gd32f4xx_spi.o
spi_crc_next                                      build/gd32f4xx_spi.o
spi_crc_off                                       build/gd32f4xx_spi.o
spi_crc_on                                        build/gd32f4xx_spi.o
spi_crc_polynomial_get                            build/gd32f4xx_spi.o
spi_crc_polynomial_set                            build/gd32f4xx_spi.o
spi_disable                                       build/gd32f4xx_spi.o
spi_dma_disable                                   build/gd32f4xx_spi.o
spi_dma_enable                                    build/gd32f4xx_spi.o
spi_enable                                        build/gd32f4xx_spi.o
spi_i2s_data_frame_format_config                  build/gd32f4xx_spi.o
spi_i2s_data_receive                              build/gd32f4xx_spi.o
spi_i2s_data_transmit                             build/gd32f4xx_spi.o
spi_i2s_deinit                                    build/gd32f4xx_spi.o
spi_i2s_flag_get                                  build/gd32f4xx_spi.o
spi_i2s_format_error_clear                        build/gd32f4xx_spi.o
spi_i2s_interrupt_disable                         build/gd32f4xx_spi.o
spi_i2s_interrupt_enable                          build/gd32f4xx_spi.o
spi_i2s_interrupt_flag_get                        build/gd32f4xx_spi.o
spi_init                                          build/gd32f4xx_spi.o
spi_nss_internal_high                             build/gd32f4xx_spi.o
spi_nss_internal_low                              build/gd32f4xx_spi.o
spi_nss_output_disable                            build/gd32f4xx_spi.o
spi_nss_output_enable                             build/gd32f4xx_spi.o
spi_quad_disable                                  build/gd32f4xx_spi.o
spi_quad_enable                                   build/gd32f4xx_spi.o
spi_quad_io23_output_disable                      build/gd32f4xx_spi.o
spi_quad_io23_output_enable                       build/gd32f4xx_spi.o
spi_quad_read_enable                              build/gd32f4xx_spi.o
spi_quad_write_enable                             build/gd32f4xx_spi.o
spi_struct_para_init                              build/gd32f4xx_spi.o
spi_ti_mode_disable                               build/gd32f4xx_spi.o
spi_ti_mode_enable                                build/gd32f4xx_spi.o
sprintf                                           /opt/arm-none-eabi/bin/../lib/gcc/arm-none-eabi/12.2.1/../../../../arm-none-eabi/lib/thumb/v7e-m/nofp/libc_nano.a(libc_a-sprintf.o)
                                                  build/lcd.o
strcmp                                            /opt/arm-none-eabi/bin/../lib/gcc/arm-none-eabi/12.2.1/../../../../arm-none-eabi/lib/thumb/v7e-m/nofp/libc_nano.a(libc_a-strcmp.o)
                                                  /opt/arm-none-eabi/bin/../lib/gcc/arm-none-eabi/12.2.1/../../../../arm-none-eabi/lib/thumb/v7e-m/nofp/libc_nano.a(libc_a-locale.o)
strlen                                            /opt/arm-none-eabi/bin/../lib/gcc/arm-none-eabi/12.2.1/../../../../arm-none-eabi/lib/thumb/v7e-m/nofp/libc_nano.a(libc_a-strlen.o)
                                                  /opt/arm-none-eabi/bin/../lib/gcc/arm-none-eabi/12.2.1/../../../../arm-none-eabi/lib/thumb/v7e-m/nofp/libc_nano.a(libc_a-nano-vfprintf_float.o)
system_lowpower_reset                             build/gd32f4xx_misc.o
system_lowpower_set                               build/gd32f4xx_misc.o
systick_clksource_set                             build/gd32f4xx_misc.o
systick_config                                    build/systick.o
                                                  build/main.o
timer_auto_reload_shadow_disable                  build/gd32f4xx_timer.o
timer_auto_reload_shadow_enable                   build/gd32f4xx_timer.o
timer_automatic_output_disable                    build/gd32f4xx_timer.o
timer_automatic_output_enable                     build/gd32f4xx_timer.o
timer_autoreload_value_config                     build/gd32f4xx_timer.o
timer_break_config                                build/gd32f4xx_timer.o
timer_break_disable                               build/gd32f4xx_timer.o
timer_break_enable                                build/gd32f4xx_timer.o
timer_break_struct_para_init                      build/gd32f4xx_timer.o
timer_channel_capture_value_register_read         build/gd32f4xx_timer.o
timer_channel_complementary_output_polarity_config build/gd32f4xx_timer.o
timer_channel_complementary_output_state_config   build/gd32f4xx_timer.o
timer_channel_control_shadow_config               build/gd32f4xx_timer.o
timer_channel_control_shadow_update_config        build/gd32f4xx_timer.o
timer_channel_dma_request_source_select           build/gd32f4xx_timer.o
timer_channel_input_capture_prescaler_config      build/gd32f4xx_timer.o
timer_channel_input_struct_para_init              build/gd32f4xx_timer.o
timer_channel_output_clear_config                 build/gd32f4xx_timer.o
timer_channel_output_config                       build/gd32f4xx_timer.o
timer_channel_output_fast_config                  build/gd32f4xx_timer.o
timer_channel_output_mode_config                  build/gd32f4xx_timer.o
timer_channel_output_polarity_config              build/gd32f4xx_timer.o
timer_channel_output_pulse_value_config           build/gd32f4xx_timer.o
timer_channel_output_shadow_config                build/gd32f4xx_timer.o
timer_channel_output_state_config                 build/gd32f4xx_timer.o
timer_channel_output_struct_para_init             build/gd32f4xx_timer.o
timer_channel_remap_config                        build/gd32f4xx_timer.o
timer_counter_alignment                           build/gd32f4xx_timer.o
timer_counter_down_direction                      build/gd32f4xx_timer.o
timer_counter_read                                build/gd32f4xx_timer.o
timer_counter_up_direction                        build/gd32f4xx_timer.o
timer_counter_value_config                        build/gd32f4xx_timer.o
timer_deinit                                      build/gd32f4xx_timer.o
timer_disable                                     build/gd32f4xx_timer.o
timer_dma_disable                                 build/gd32f4xx_timer.o
timer_dma_enable                                  build/gd32f4xx_timer.o
timer_dma_transfer_config                         build/gd32f4xx_timer.o
timer_enable                                      build/gd32f4xx_timer.o
timer_event_software_generate                     build/gd32f4xx_timer.o
timer_external_clock_mode0_config                 build/gd32f4xx_timer.o
timer_external_clock_mode1_config                 build/gd32f4xx_timer.o
timer_external_clock_mode1_disable                build/gd32f4xx_timer.o
timer_external_trigger_as_external_clock_config   build/gd32f4xx_timer.o
timer_external_trigger_config                     build/gd32f4xx_timer.o
timer_flag_clear                                  build/gd32f4xx_timer.o
timer_flag_get                                    build/gd32f4xx_timer.o
timer_hall_mode_config                            build/gd32f4xx_timer.o
timer_init                                        build/gd32f4xx_timer.o
timer_input_capture_config                        build/gd32f4xx_timer.o
timer_input_pwm_capture_config                    build/gd32f4xx_timer.o
timer_input_trigger_source_select                 build/gd32f4xx_timer.o
timer_internal_clock_config                       build/gd32f4xx_timer.o
timer_internal_trigger_as_external_clock_config   build/gd32f4xx_timer.o
timer_interrupt_disable                           build/gd32f4xx_timer.o
timer_interrupt_enable                            build/gd32f4xx_timer.o
timer_interrupt_flag_clear                        build/gd32f4xx_timer.o
timer_interrupt_flag_get                          build/gd32f4xx_timer.o
timer_master_output_trigger_source_select         build/gd32f4xx_timer.o
timer_master_slave_mode_config                    build/gd32f4xx_timer.o
timer_output_value_selection_config               build/gd32f4xx_timer.o
timer_prescaler_config                            build/gd32f4xx_timer.o
timer_prescaler_read                              build/gd32f4xx_timer.o
timer_primary_output_config                       build/gd32f4xx_timer.o
timer_quadrature_decoder_mode_config              build/gd32f4xx_timer.o
timer_repetition_value_config                     build/gd32f4xx_timer.o
timer_single_pulse_mode_config                    build/gd32f4xx_timer.o
timer_slave_mode_select                           build/gd32f4xx_timer.o
timer_struct_para_init                            build/gd32f4xx_timer.o
timer_update_event_disable                        build/gd32f4xx_timer.o
timer_update_event_enable                         build/gd32f4xx_timer.o
timer_update_source_config                        build/gd32f4xx_timer.o
timer_write_chxval_register_config                build/gd32f4xx_timer.o
tli_color_key_disable                             build/gd32f4xx_tli.o
tli_color_key_enable                              build/gd32f4xx_tli.o
tli_color_key_init                                build/gd32f4xx_tli.o
tli_current_pos_get                               build/gd32f4xx_tli.o
tli_deinit                                        build/gd32f4xx_tli.o
tli_disable                                       build/gd32f4xx_tli.o
tli_dither_config                                 build/gd32f4xx_tli.o
tli_enable                                        build/gd32f4xx_tli.o
tli_flag_get                                      build/gd32f4xx_tli.o
tli_init                                          build/gd32f4xx_tli.o
tli_interrupt_disable                             build/gd32f4xx_tli.o
tli_interrupt_enable                              build/gd32f4xx_tli.o
tli_interrupt_flag_clear                          build/gd32f4xx_tli.o
tli_interrupt_flag_get                            build/gd32f4xx_tli.o
tli_layer_disable                                 build/gd32f4xx_tli.o
tli_layer_enable                                  build/gd32f4xx_tli.o
tli_layer_init                                    build/gd32f4xx_tli.o
tli_layer_struct_para_init                        build/gd32f4xx_tli.o
tli_layer_window_offset_modify                    build/gd32f4xx_tli.o
tli_line_mark_set                                 build/gd32f4xx_tli.o
tli_lut_disable                                   build/gd32f4xx_tli.o
tli_lut_enable                                    build/gd32f4xx_tli.o
tli_lut_init                                      build/gd32f4xx_tli.o
tli_lut_struct_para_init                          build/gd32f4xx_tli.o
tli_reload_config                                 build/gd32f4xx_tli.o
tli_struct_para_init                              build/gd32f4xx_tli.o
usart0_init                                       build/usart0.o
                                                  build/main.o
usart_address_config                              build/gd32f4xx_usart.o
usart_baudrate_set                                build/gd32f4xx_usart.o
                                                  build/usart0.o
usart_block_length_config                         build/gd32f4xx_usart.o
usart_break_frame_coherence_config                build/gd32f4xx_usart.o
usart_data_first_config                           build/gd32f4xx_usart.o
usart_data_receive                                build/gd32f4xx_usart.o
usart_data_transmit                               build/gd32f4xx_usart.o
                                                  build/usart0.o
usart_deinit                                      build/gd32f4xx_usart.o
                                                  build/usart0.o
usart_disable                                     build/gd32f4xx_usart.o
usart_dma_receive_config                          build/gd32f4xx_usart.o
usart_dma_transmit_config                         build/gd32f4xx_usart.o
usart_enable                                      build/gd32f4xx_usart.o
                                                  build/usart0.o
usart_flag_clear                                  build/gd32f4xx_usart.o
usart_flag_get                                    build/gd32f4xx_usart.o
                                                  build/usart0.o
usart_guard_time_config                           build/gd32f4xx_usart.o
usart_halfduplex_disable                          build/gd32f4xx_usart.o
usart_halfduplex_enable                           build/gd32f4xx_usart.o
usart_hardware_flow_coherence_config              build/gd32f4xx_usart.o
usart_hardware_flow_cts_config                    build/gd32f4xx_usart.o
usart_hardware_flow_rts_config                    build/gd32f4xx_usart.o
usart_interrupt_disable                           build/gd32f4xx_usart.o
usart_interrupt_enable                            build/gd32f4xx_usart.o
usart_interrupt_flag_clear                        build/gd32f4xx_usart.o
usart_interrupt_flag_get                          build/gd32f4xx_usart.o
usart_invert_config                               build/gd32f4xx_usart.o
usart_irda_lowpower_config                        build/gd32f4xx_usart.o
usart_irda_mode_disable                           build/gd32f4xx_usart.o
usart_irda_mode_enable                            build/gd32f4xx_usart.o
usart_lin_break_detection_length_config           build/gd32f4xx_usart.o
usart_lin_mode_disable                            build/gd32f4xx_usart.o
usart_lin_mode_enable                             build/gd32f4xx_usart.o
usart_mute_mode_disable                           build/gd32f4xx_usart.o
usart_mute_mode_enable                            build/gd32f4xx_usart.o
usart_mute_mode_wakeup_config                     build/gd32f4xx_usart.o
usart_oversample_config                           build/gd32f4xx_usart.o
usart_parity_check_coherence_config               build/gd32f4xx_usart.o
usart_parity_config                               build/gd32f4xx_usart.o
usart_prescaler_config                            build/gd32f4xx_usart.o
usart_receive_config                              build/gd32f4xx_usart.o
                                                  build/usart0.o
usart_receiver_timeout_disable                    build/gd32f4xx_usart.o
usart_receiver_timeout_enable                     build/gd32f4xx_usart.o
usart_receiver_timeout_threshold_config           build/gd32f4xx_usart.o
usart_sample_bit_config                           build/gd32f4xx_usart.o
usart_send_break                                  build/gd32f4xx_usart.o
usart_smartcard_autoretry_config                  build/gd32f4xx_usart.o
usart_smartcard_mode_disable                      build/gd32f4xx_usart.o
usart_smartcard_mode_enable                       build/gd32f4xx_usart.o
usart_smartcard_mode_nack_disable                 build/gd32f4xx_usart.o
usart_smartcard_mode_nack_enable                  build/gd32f4xx_usart.o
usart_stop_bit_set                                build/gd32f4xx_usart.o
usart_synchronous_clock_config                    build/gd32f4xx_usart.o
usart_synchronous_clock_disable                   build/gd32f4xx_usart.o
usart_synchronous_clock_enable                    build/gd32f4xx_usart.o
usart_transmit_config                             build/gd32f4xx_usart.o
                                                  build/usart0.o
usart_word_length_set                             build/gd32f4xx_usart.o
vfiprintf                                         /opt/arm-none-eabi/bin/../lib/gcc/arm-none-eabi/12.2.1/../../../../arm-none-eabi/lib/thumb/v7e-m/nofp/libc_nano.a(libc_a-nano-vfprintf.o)
vfprintf                                          /opt/arm-none-eabi/bin/../lib/gcc/arm-none-eabi/12.2.1/../../../../arm-none-eabi/lib/thumb/v7e-m/nofp/libc_nano.a(libc_a-nano-vfprintf.o)
