ARM GAS  /tmp/cceJv2Y0.s 			page 1


   1              		.cpu cortex-m4
   2              		.arch armv7e-m
   3              		.fpu softvfp
   4              		.eabi_attribute 20, 1
   5              		.eabi_attribute 21, 1
   6              		.eabi_attribute 23, 3
   7              		.eabi_attribute 24, 1
   8              		.eabi_attribute 25, 1
   9              		.eabi_attribute 26, 1
  10              		.eabi_attribute 30, 1
  11              		.eabi_attribute 34, 1
  12              		.eabi_attribute 18, 4
  13              		.file	"gd32f4xx_timer.c"
  14              		.text
  15              		.section	.text.timer_deinit,"ax",%progbits
  16              		.align	1
  17              		.global	timer_deinit
  18              		.syntax unified
  19              		.thumb
  20              		.thumb_func
  22              	timer_deinit:
  23              		@ args = 0, pretend = 0, frame = 0
  24              		@ frame_needed = 0, uses_anonymous_args = 0
  25 0000 08B5     		push	{r3, lr}
  26 0002 5B4B     		ldr	r3, .L26
  27 0004 9842     		cmp	r0, r3
  28 0006 00F0A980 		beq	.L2
  29 000a 3FD8     		bhi	.L3
  30 000c A3F58053 		sub	r3, r3, #4096
  31 0010 9842     		cmp	r0, r3
  32 0012 7FD0     		beq	.L4
  33 0014 10D9     		bls	.L21
  34 0016 574B     		ldr	r3, .L26+4
  35 0018 9842     		cmp	r0, r3
  36 001a 00F08480 		beq	.L10
  37 001e 03F58063 		add	r3, r3, #1024
  38 0022 9842     		cmp	r0, r3
  39 0024 25D1     		bne	.L22
  40 0026 40F60600 		movw	r0, #2054
  41 002a FFF7FEFF 		bl	rcu_periph_reset_enable
  42 002e 40F60600 		movw	r0, #2054
  43 0032 FFF7FEFF 		bl	rcu_periph_reset_disable
  44 0036 63E0     		b	.L1
  45              	.L21:
  46 0038 A3F50063 		sub	r3, r3, #2048
  47 003c 9842     		cmp	r0, r3
  48 003e 60D0     		beq	.L6
  49 0040 03F58063 		add	r3, r3, #1024
  50 0044 9842     		cmp	r0, r3
  51 0046 08D1     		bne	.L23
  52 0048 40F60200 		movw	r0, #2050
  53 004c FFF7FEFF 		bl	rcu_periph_reset_enable
  54 0050 40F60200 		movw	r0, #2050
  55 0054 FFF7FEFF 		bl	rcu_periph_reset_disable
  56 0058 52E0     		b	.L1
  57              	.L23:
  58 005a B0F1804F 		cmp	r0, #1073741824
ARM GAS  /tmp/cceJv2Y0.s 			page 2


  59 005e 4FD1     		bne	.L1
  60 0060 4FF40060 		mov	r0, #2048
  61 0064 FFF7FEFF 		bl	rcu_periph_reset_enable
  62 0068 4FF40060 		mov	r0, #2048
  63 006c FFF7FEFF 		bl	rcu_periph_reset_disable
  64 0070 46E0     		b	.L1
  65              	.L22:
  66 0072 A3F50063 		sub	r3, r3, #2048
  67 0076 9842     		cmp	r0, r3
  68 0078 42D1     		bne	.L1
  69 007a 40F60400 		movw	r0, #2052
  70 007e FFF7FEFF 		bl	rcu_periph_reset_enable
  71 0082 40F60400 		movw	r0, #2052
  72 0086 FFF7FEFF 		bl	rcu_periph_reset_disable
  73 008a 39E0     		b	.L1
  74              	.L3:
  75 008c 3A4B     		ldr	r3, .L26+8
  76 008e 9842     		cmp	r0, r3
  77 0090 52D0     		beq	.L13
  78 0092 0FD9     		bls	.L24
  79 0094 394B     		ldr	r3, .L26+12
  80 0096 9842     		cmp	r0, r3
  81 0098 57D0     		beq	.L18
  82 009a 03F58063 		add	r3, r3, #1024
  83 009e 9842     		cmp	r0, r3
  84 00a0 2ED1     		bne	.L1
  85 00a2 40F61210 		movw	r0, #2322
  86 00a6 FFF7FEFF 		bl	rcu_periph_reset_enable
  87 00aa 40F61210 		movw	r0, #2322
  88 00ae FFF7FEFF 		bl	rcu_periph_reset_disable
  89 00b2 25E0     		b	.L1
  90              	.L24:
  91 00b4 A3F58043 		sub	r3, r3, #16384
  92 00b8 9842     		cmp	r0, r3
  93 00ba 19D0     		beq	.L15
  94 00bc 03F58063 		add	r3, r3, #1024
  95 00c0 9842     		cmp	r0, r3
  96 00c2 08D1     		bne	.L25
  97 00c4 40F60110 		movw	r0, #2305
  98 00c8 FFF7FEFF 		bl	rcu_periph_reset_enable
  99 00cc 40F60110 		movw	r0, #2305
 100 00d0 FFF7FEFF 		bl	rcu_periph_reset_disable
 101 00d4 14E0     		b	.L1
 102              	.L25:
 103 00d6 A3F56443 		sub	r3, r3, #58368
 104 00da 9842     		cmp	r0, r3
 105 00dc 10D1     		bne	.L1
 106 00de 40F60800 		movw	r0, #2056
 107 00e2 FFF7FEFF 		bl	rcu_periph_reset_enable
 108 00e6 40F60800 		movw	r0, #2056
 109 00ea FFF7FEFF 		bl	rcu_periph_reset_disable
 110 00ee 07E0     		b	.L1
 111              	.L15:
 112 00f0 4FF41060 		mov	r0, #2304
 113 00f4 FFF7FEFF 		bl	rcu_periph_reset_enable
 114 00f8 4FF41060 		mov	r0, #2304
 115 00fc FFF7FEFF 		bl	rcu_periph_reset_disable
ARM GAS  /tmp/cceJv2Y0.s 			page 3


 116              	.L1:
 117 0100 08BD     		pop	{r3, pc}
 118              	.L6:
 119 0102 40F60100 		movw	r0, #2049
 120 0106 FFF7FEFF 		bl	rcu_periph_reset_enable
 121 010a 40F60100 		movw	r0, #2049
 122 010e FFF7FEFF 		bl	rcu_periph_reset_disable
 123 0112 F5E7     		b	.L1
 124              	.L4:
 125 0114 40F60300 		movw	r0, #2051
 126 0118 FFF7FEFF 		bl	rcu_periph_reset_enable
 127 011c 40F60300 		movw	r0, #2051
 128 0120 FFF7FEFF 		bl	rcu_periph_reset_disable
 129 0124 ECE7     		b	.L1
 130              	.L10:
 131 0126 40F60500 		movw	r0, #2053
 132 012a FFF7FEFF 		bl	rcu_periph_reset_enable
 133 012e 40F60500 		movw	r0, #2053
 134 0132 FFF7FEFF 		bl	rcu_periph_reset_disable
 135 0136 E3E7     		b	.L1
 136              	.L13:
 137 0138 4FF41160 		mov	r0, #2320
 138 013c FFF7FEFF 		bl	rcu_periph_reset_enable
 139 0140 4FF41160 		mov	r0, #2320
 140 0144 FFF7FEFF 		bl	rcu_periph_reset_disable
 141 0148 DAE7     		b	.L1
 142              	.L18:
 143 014a 40F61110 		movw	r0, #2321
 144 014e FFF7FEFF 		bl	rcu_periph_reset_enable
 145 0152 40F61110 		movw	r0, #2321
 146 0156 FFF7FEFF 		bl	rcu_periph_reset_disable
 147 015a D1E7     		b	.L1
 148              	.L2:
 149 015c 40F60700 		movw	r0, #2055
 150 0160 FFF7FEFF 		bl	rcu_periph_reset_enable
 151 0164 40F60700 		movw	r0, #2055
 152 0168 FFF7FEFF 		bl	rcu_periph_reset_disable
 153 016c C8E7     		b	.L1
 154              	.L27:
 155 016e 00BF     		.align	2
 156              	.L26:
 157 0170 001C0040 		.word	1073748992
 158 0174 00140040 		.word	1073746944
 159 0178 00400140 		.word	1073823744
 160 017c 00440140 		.word	1073824768
 162              		.section	.text.timer_struct_para_init,"ax",%progbits
 163              		.align	1
 164              		.global	timer_struct_para_init
 165              		.syntax unified
 166              		.thumb
 167              		.thumb_func
 169              	timer_struct_para_init:
 170              		@ args = 0, pretend = 0, frame = 0
 171              		@ frame_needed = 0, uses_anonymous_args = 0
 172              		@ link register save eliminated.
 173 0000 0023     		movs	r3, #0
 174 0002 0380     		strh	r3, [r0]	@ movhi
ARM GAS  /tmp/cceJv2Y0.s 			page 4


 175 0004 4380     		strh	r3, [r0, #2]	@ movhi
 176 0006 8380     		strh	r3, [r0, #4]	@ movhi
 177 0008 4FF6FF72 		movw	r2, #65535
 178 000c 8260     		str	r2, [r0, #8]
 179 000e C380     		strh	r3, [r0, #6]	@ movhi
 180 0010 0373     		strb	r3, [r0, #12]
 181 0012 7047     		bx	lr
 183              		.section	.text.timer_init,"ax",%progbits
 184              		.align	1
 185              		.global	timer_init
 186              		.syntax unified
 187              		.thumb
 188              		.thumb_func
 190              	timer_init:
 191              		@ args = 0, pretend = 0, frame = 0
 192              		@ frame_needed = 0, uses_anonymous_args = 0
 193              		@ link register save eliminated.
 194 0000 0B88     		ldrh	r3, [r1]
 195 0002 8362     		str	r3, [r0, #40]
 196 0004 204B     		ldr	r3, .L35
 197 0006 9842     		cmp	r0, r3
 198 0008 12D0     		beq	.L30
 199 000a B0F1804F 		cmp	r0, #1073741824
 200 000e 0FD0     		beq	.L30
 201 0010 A3F57C43 		sub	r3, r3, #64512
 202 0014 9842     		cmp	r0, r3
 203 0016 0BD0     		beq	.L30
 204 0018 03F58063 		add	r3, r3, #1024
 205 001c 9842     		cmp	r0, r3
 206 001e 07D0     		beq	.L30
 207 0020 03F58063 		add	r3, r3, #1024
 208 0024 9842     		cmp	r0, r3
 209 0026 03D0     		beq	.L30
 210 0028 03F57843 		add	r3, r3, #63488
 211 002c 9842     		cmp	r0, r3
 212 002e 0BD1     		bne	.L31
 213              	.L30:
 214 0030 0368     		ldr	r3, [r0]
 215 0032 23F07003 		bic	r3, r3, #112
 216 0036 0360     		str	r3, [r0]
 217 0038 0368     		ldr	r3, [r0]
 218 003a 4A88     		ldrh	r2, [r1, #2]
 219 003c 1343     		orrs	r3, r3, r2
 220 003e 0360     		str	r3, [r0]
 221 0040 0368     		ldr	r3, [r0]
 222 0042 8A88     		ldrh	r2, [r1, #4]
 223 0044 1343     		orrs	r3, r3, r2
 224 0046 0360     		str	r3, [r0]
 225              	.L31:
 226 0048 8B68     		ldr	r3, [r1, #8]
 227 004a C362     		str	r3, [r0, #44]
 228 004c 0F4B     		ldr	r3, .L35+4
 229 004e 9842     		cmp	r0, r3
 230 0050 0ED0     		beq	.L32
 231 0052 03F58063 		add	r3, r3, #1024
 232 0056 9842     		cmp	r0, r3
 233 0058 0AD0     		beq	.L32
ARM GAS  /tmp/cceJv2Y0.s 			page 5


 234 005a 0368     		ldr	r3, [r0]
 235 005c 23F44073 		bic	r3, r3, #768
 236 0060 0360     		str	r3, [r0]
 237 0062 0368     		ldr	r3, [r0]
 238 0064 CA88     		ldrh	r2, [r1, #6]
 239 0066 1343     		orrs	r3, r3, r2
 240 0068 0360     		str	r3, [r0]
 241 006a 074B     		ldr	r3, .L35
 242 006c 9842     		cmp	r0, r3
 243 006e 07D0     		beq	.L33
 244              	.L32:
 245 0070 074B     		ldr	r3, .L35+8
 246 0072 9842     		cmp	r0, r3
 247 0074 04D0     		beq	.L33
 248              	.L34:
 249 0076 4369     		ldr	r3, [r0, #20]
 250 0078 43F00103 		orr	r3, r3, #1
 251 007c 4361     		str	r3, [r0, #20]
 252 007e 7047     		bx	lr
 253              	.L33:
 254 0080 0B7B     		ldrb	r3, [r1, #12]	@ zero_extendqisi2
 255 0082 0363     		str	r3, [r0, #48]
 256 0084 F7E7     		b	.L34
 257              	.L36:
 258 0086 00BF     		.align	2
 259              	.L35:
 260 0088 00000140 		.word	1073807360
 261 008c 00100040 		.word	1073745920
 262 0090 00040140 		.word	1073808384
 264              		.section	.text.timer_enable,"ax",%progbits
 265              		.align	1
 266              		.global	timer_enable
 267              		.syntax unified
 268              		.thumb
 269              		.thumb_func
 271              	timer_enable:
 272              		@ args = 0, pretend = 0, frame = 0
 273              		@ frame_needed = 0, uses_anonymous_args = 0
 274              		@ link register save eliminated.
 275 0000 0368     		ldr	r3, [r0]
 276 0002 43F00103 		orr	r3, r3, #1
 277 0006 0360     		str	r3, [r0]
 278 0008 7047     		bx	lr
 280              		.section	.text.timer_disable,"ax",%progbits
 281              		.align	1
 282              		.global	timer_disable
 283              		.syntax unified
 284              		.thumb
 285              		.thumb_func
 287              	timer_disable:
 288              		@ args = 0, pretend = 0, frame = 0
 289              		@ frame_needed = 0, uses_anonymous_args = 0
 290              		@ link register save eliminated.
 291 0000 0368     		ldr	r3, [r0]
 292 0002 23F00103 		bic	r3, r3, #1
 293 0006 0360     		str	r3, [r0]
 294 0008 7047     		bx	lr
ARM GAS  /tmp/cceJv2Y0.s 			page 6


 296              		.section	.text.timer_auto_reload_shadow_enable,"ax",%progbits
 297              		.align	1
 298              		.global	timer_auto_reload_shadow_enable
 299              		.syntax unified
 300              		.thumb
 301              		.thumb_func
 303              	timer_auto_reload_shadow_enable:
 304              		@ args = 0, pretend = 0, frame = 0
 305              		@ frame_needed = 0, uses_anonymous_args = 0
 306              		@ link register save eliminated.
 307 0000 0368     		ldr	r3, [r0]
 308 0002 43F08003 		orr	r3, r3, #128
 309 0006 0360     		str	r3, [r0]
 310 0008 7047     		bx	lr
 312              		.section	.text.timer_auto_reload_shadow_disable,"ax",%progbits
 313              		.align	1
 314              		.global	timer_auto_reload_shadow_disable
 315              		.syntax unified
 316              		.thumb
 317              		.thumb_func
 319              	timer_auto_reload_shadow_disable:
 320              		@ args = 0, pretend = 0, frame = 0
 321              		@ frame_needed = 0, uses_anonymous_args = 0
 322              		@ link register save eliminated.
 323 0000 0368     		ldr	r3, [r0]
 324 0002 23F08003 		bic	r3, r3, #128
 325 0006 0360     		str	r3, [r0]
 326 0008 7047     		bx	lr
 328              		.section	.text.timer_update_event_enable,"ax",%progbits
 329              		.align	1
 330              		.global	timer_update_event_enable
 331              		.syntax unified
 332              		.thumb
 333              		.thumb_func
 335              	timer_update_event_enable:
 336              		@ args = 0, pretend = 0, frame = 0
 337              		@ frame_needed = 0, uses_anonymous_args = 0
 338              		@ link register save eliminated.
 339 0000 0368     		ldr	r3, [r0]
 340 0002 23F00203 		bic	r3, r3, #2
 341 0006 0360     		str	r3, [r0]
 342 0008 7047     		bx	lr
 344              		.section	.text.timer_update_event_disable,"ax",%progbits
 345              		.align	1
 346              		.global	timer_update_event_disable
 347              		.syntax unified
 348              		.thumb
 349              		.thumb_func
 351              	timer_update_event_disable:
 352              		@ args = 0, pretend = 0, frame = 0
 353              		@ frame_needed = 0, uses_anonymous_args = 0
 354              		@ link register save eliminated.
 355 0000 0368     		ldr	r3, [r0]
 356 0002 43F00203 		orr	r3, r3, #2
 357 0006 0360     		str	r3, [r0]
 358 0008 7047     		bx	lr
 360              		.section	.text.timer_counter_alignment,"ax",%progbits
ARM GAS  /tmp/cceJv2Y0.s 			page 7


 361              		.align	1
 362              		.global	timer_counter_alignment
 363              		.syntax unified
 364              		.thumb
 365              		.thumb_func
 367              	timer_counter_alignment:
 368              		@ args = 0, pretend = 0, frame = 0
 369              		@ frame_needed = 0, uses_anonymous_args = 0
 370              		@ link register save eliminated.
 371 0000 0368     		ldr	r3, [r0]
 372 0002 23F06003 		bic	r3, r3, #96
 373 0006 0360     		str	r3, [r0]
 374 0008 0368     		ldr	r3, [r0]
 375 000a 0B43     		orrs	r3, r3, r1
 376 000c 0360     		str	r3, [r0]
 377 000e 7047     		bx	lr
 379              		.section	.text.timer_counter_up_direction,"ax",%progbits
 380              		.align	1
 381              		.global	timer_counter_up_direction
 382              		.syntax unified
 383              		.thumb
 384              		.thumb_func
 386              	timer_counter_up_direction:
 387              		@ args = 0, pretend = 0, frame = 0
 388              		@ frame_needed = 0, uses_anonymous_args = 0
 389              		@ link register save eliminated.
 390 0000 0368     		ldr	r3, [r0]
 391 0002 23F01003 		bic	r3, r3, #16
 392 0006 0360     		str	r3, [r0]
 393 0008 7047     		bx	lr
 395              		.section	.text.timer_counter_down_direction,"ax",%progbits
 396              		.align	1
 397              		.global	timer_counter_down_direction
 398              		.syntax unified
 399              		.thumb
 400              		.thumb_func
 402              	timer_counter_down_direction:
 403              		@ args = 0, pretend = 0, frame = 0
 404              		@ frame_needed = 0, uses_anonymous_args = 0
 405              		@ link register save eliminated.
 406 0000 0368     		ldr	r3, [r0]
 407 0002 43F01003 		orr	r3, r3, #16
 408 0006 0360     		str	r3, [r0]
 409 0008 7047     		bx	lr
 411              		.section	.text.timer_prescaler_config,"ax",%progbits
 412              		.align	1
 413              		.global	timer_prescaler_config
 414              		.syntax unified
 415              		.thumb
 416              		.thumb_func
 418              	timer_prescaler_config:
 419              		@ args = 0, pretend = 0, frame = 0
 420              		@ frame_needed = 0, uses_anonymous_args = 0
 421              		@ link register save eliminated.
 422 0000 8162     		str	r1, [r0, #40]
 423 0002 1AB9     		cbnz	r2, .L46
 424 0004 4369     		ldr	r3, [r0, #20]
ARM GAS  /tmp/cceJv2Y0.s 			page 8


 425 0006 43F00103 		orr	r3, r3, #1
 426 000a 4361     		str	r3, [r0, #20]
 427              	.L46:
 428 000c 7047     		bx	lr
 430              		.section	.text.timer_repetition_value_config,"ax",%progbits
 431              		.align	1
 432              		.global	timer_repetition_value_config
 433              		.syntax unified
 434              		.thumb
 435              		.thumb_func
 437              	timer_repetition_value_config:
 438              		@ args = 0, pretend = 0, frame = 0
 439              		@ frame_needed = 0, uses_anonymous_args = 0
 440              		@ link register save eliminated.
 441 0000 0163     		str	r1, [r0, #48]
 442 0002 7047     		bx	lr
 444              		.section	.text.timer_autoreload_value_config,"ax",%progbits
 445              		.align	1
 446              		.global	timer_autoreload_value_config
 447              		.syntax unified
 448              		.thumb
 449              		.thumb_func
 451              	timer_autoreload_value_config:
 452              		@ args = 0, pretend = 0, frame = 0
 453              		@ frame_needed = 0, uses_anonymous_args = 0
 454              		@ link register save eliminated.
 455 0000 C162     		str	r1, [r0, #44]
 456 0002 7047     		bx	lr
 458              		.section	.text.timer_counter_value_config,"ax",%progbits
 459              		.align	1
 460              		.global	timer_counter_value_config
 461              		.syntax unified
 462              		.thumb
 463              		.thumb_func
 465              	timer_counter_value_config:
 466              		@ args = 0, pretend = 0, frame = 0
 467              		@ frame_needed = 0, uses_anonymous_args = 0
 468              		@ link register save eliminated.
 469 0000 4162     		str	r1, [r0, #36]
 470 0002 7047     		bx	lr
 472              		.section	.text.timer_counter_read,"ax",%progbits
 473              		.align	1
 474              		.global	timer_counter_read
 475              		.syntax unified
 476              		.thumb
 477              		.thumb_func
 479              	timer_counter_read:
 480              		@ args = 0, pretend = 0, frame = 0
 481              		@ frame_needed = 0, uses_anonymous_args = 0
 482              		@ link register save eliminated.
 483 0000 406A     		ldr	r0, [r0, #36]
 484 0002 7047     		bx	lr
 486              		.section	.text.timer_prescaler_read,"ax",%progbits
 487              		.align	1
 488              		.global	timer_prescaler_read
 489              		.syntax unified
 490              		.thumb
ARM GAS  /tmp/cceJv2Y0.s 			page 9


 491              		.thumb_func
 493              	timer_prescaler_read:
 494              		@ args = 0, pretend = 0, frame = 0
 495              		@ frame_needed = 0, uses_anonymous_args = 0
 496              		@ link register save eliminated.
 497 0000 806A     		ldr	r0, [r0, #40]
 498 0002 80B2     		uxth	r0, r0
 499 0004 7047     		bx	lr
 501              		.section	.text.timer_single_pulse_mode_config,"ax",%progbits
 502              		.align	1
 503              		.global	timer_single_pulse_mode_config
 504              		.syntax unified
 505              		.thumb
 506              		.thumb_func
 508              	timer_single_pulse_mode_config:
 509              		@ args = 0, pretend = 0, frame = 0
 510              		@ frame_needed = 0, uses_anonymous_args = 0
 511              		@ link register save eliminated.
 512 0000 21B9     		cbnz	r1, .L54
 513 0002 0368     		ldr	r3, [r0]
 514 0004 43F00803 		orr	r3, r3, #8
 515 0008 0360     		str	r3, [r0]
 516 000a 7047     		bx	lr
 517              	.L54:
 518 000c 0129     		cmp	r1, #1
 519 000e 00D0     		beq	.L56
 520              	.L53:
 521 0010 7047     		bx	lr
 522              	.L56:
 523 0012 0368     		ldr	r3, [r0]
 524 0014 23F00803 		bic	r3, r3, #8
 525 0018 0360     		str	r3, [r0]
 526 001a F9E7     		b	.L53
 528              		.section	.text.timer_update_source_config,"ax",%progbits
 529              		.align	1
 530              		.global	timer_update_source_config
 531              		.syntax unified
 532              		.thumb
 533              		.thumb_func
 535              	timer_update_source_config:
 536              		@ args = 0, pretend = 0, frame = 0
 537              		@ frame_needed = 0, uses_anonymous_args = 0
 538              		@ link register save eliminated.
 539 0000 21B9     		cbnz	r1, .L58
 540 0002 0368     		ldr	r3, [r0]
 541 0004 43F00403 		orr	r3, r3, #4
 542 0008 0360     		str	r3, [r0]
 543 000a 7047     		bx	lr
 544              	.L58:
 545 000c 0129     		cmp	r1, #1
 546 000e 00D0     		beq	.L60
 547              	.L57:
 548 0010 7047     		bx	lr
 549              	.L60:
 550 0012 0368     		ldr	r3, [r0]
 551 0014 23F00403 		bic	r3, r3, #4
 552 0018 0360     		str	r3, [r0]
ARM GAS  /tmp/cceJv2Y0.s 			page 10


 553 001a F9E7     		b	.L57
 555              		.section	.text.timer_dma_enable,"ax",%progbits
 556              		.align	1
 557              		.global	timer_dma_enable
 558              		.syntax unified
 559              		.thumb
 560              		.thumb_func
 562              	timer_dma_enable:
 563              		@ args = 0, pretend = 0, frame = 0
 564              		@ frame_needed = 0, uses_anonymous_args = 0
 565              		@ link register save eliminated.
 566 0000 C368     		ldr	r3, [r0, #12]
 567 0002 0B43     		orrs	r3, r3, r1
 568 0004 C360     		str	r3, [r0, #12]
 569 0006 7047     		bx	lr
 571              		.section	.text.timer_dma_disable,"ax",%progbits
 572              		.align	1
 573              		.global	timer_dma_disable
 574              		.syntax unified
 575              		.thumb
 576              		.thumb_func
 578              	timer_dma_disable:
 579              		@ args = 0, pretend = 0, frame = 0
 580              		@ frame_needed = 0, uses_anonymous_args = 0
 581              		@ link register save eliminated.
 582 0000 C368     		ldr	r3, [r0, #12]
 583 0002 23EA0103 		bic	r3, r3, r1
 584 0006 C360     		str	r3, [r0, #12]
 585 0008 7047     		bx	lr
 587              		.section	.text.timer_channel_dma_request_source_select,"ax",%progbits
 588              		.align	1
 589              		.global	timer_channel_dma_request_source_select
 590              		.syntax unified
 591              		.thumb
 592              		.thumb_func
 594              	timer_channel_dma_request_source_select:
 595              		@ args = 0, pretend = 0, frame = 0
 596              		@ frame_needed = 0, uses_anonymous_args = 0
 597              		@ link register save eliminated.
 598 0000 21B9     		cbnz	r1, .L64
 599 0002 4368     		ldr	r3, [r0, #4]
 600 0004 43F00803 		orr	r3, r3, #8
 601 0008 4360     		str	r3, [r0, #4]
 602 000a 7047     		bx	lr
 603              	.L64:
 604 000c 0129     		cmp	r1, #1
 605 000e 00D0     		beq	.L66
 606              	.L63:
 607 0010 7047     		bx	lr
 608              	.L66:
 609 0012 4368     		ldr	r3, [r0, #4]
 610 0014 23F00803 		bic	r3, r3, #8
 611 0018 4360     		str	r3, [r0, #4]
 612 001a F9E7     		b	.L63
 614              		.section	.text.timer_dma_transfer_config,"ax",%progbits
 615              		.align	1
 616              		.global	timer_dma_transfer_config
ARM GAS  /tmp/cceJv2Y0.s 			page 11


 617              		.syntax unified
 618              		.thumb
 619              		.thumb_func
 621              	timer_dma_transfer_config:
 622              		@ args = 0, pretend = 0, frame = 0
 623              		@ frame_needed = 0, uses_anonymous_args = 0
 624              		@ link register save eliminated.
 625 0000 836C     		ldr	r3, [r0, #72]
 626 0002 23F4F853 		bic	r3, r3, #7936
 627 0006 23F01F03 		bic	r3, r3, #31
 628 000a 8364     		str	r3, [r0, #72]
 629 000c 836C     		ldr	r3, [r0, #72]
 630 000e 1143     		orrs	r1, r1, r2
 631 0010 0B43     		orrs	r3, r3, r1
 632 0012 8364     		str	r3, [r0, #72]
 633 0014 7047     		bx	lr
 635              		.section	.text.timer_event_software_generate,"ax",%progbits
 636              		.align	1
 637              		.global	timer_event_software_generate
 638              		.syntax unified
 639              		.thumb
 640              		.thumb_func
 642              	timer_event_software_generate:
 643              		@ args = 0, pretend = 0, frame = 0
 644              		@ frame_needed = 0, uses_anonymous_args = 0
 645              		@ link register save eliminated.
 646 0000 4369     		ldr	r3, [r0, #20]
 647 0002 0B43     		orrs	r3, r3, r1
 648 0004 4361     		str	r3, [r0, #20]
 649 0006 7047     		bx	lr
 651              		.section	.text.timer_break_struct_para_init,"ax",%progbits
 652              		.align	1
 653              		.global	timer_break_struct_para_init
 654              		.syntax unified
 655              		.thumb
 656              		.thumb_func
 658              	timer_break_struct_para_init:
 659              		@ args = 0, pretend = 0, frame = 0
 660              		@ frame_needed = 0, uses_anonymous_args = 0
 661              		@ link register save eliminated.
 662 0000 0023     		movs	r3, #0
 663 0002 0380     		strh	r3, [r0]	@ movhi
 664 0004 4380     		strh	r3, [r0, #2]	@ movhi
 665 0006 8380     		strh	r3, [r0, #4]	@ movhi
 666 0008 C380     		strh	r3, [r0, #6]	@ movhi
 667 000a 0381     		strh	r3, [r0, #8]	@ movhi
 668 000c 4381     		strh	r3, [r0, #10]	@ movhi
 669 000e 8381     		strh	r3, [r0, #12]	@ movhi
 670 0010 7047     		bx	lr
 672              		.section	.text.timer_break_config,"ax",%progbits
 673              		.align	1
 674              		.global	timer_break_config
 675              		.syntax unified
 676              		.thumb
 677              		.thumb_func
 679              	timer_break_config:
 680              		@ args = 0, pretend = 0, frame = 0
ARM GAS  /tmp/cceJv2Y0.s 			page 12


 681              		@ frame_needed = 0, uses_anonymous_args = 0
 682 0000 70B5     		push	{r4, r5, r6, lr}
 683 0002 0D88     		ldrh	r5, [r1]
 684 0004 4E88     		ldrh	r6, [r1, #2]
 685 0006 8C88     		ldrh	r4, [r1, #4]
 686 0008 B1F806E0 		ldrh	lr, [r1, #6]
 687 000c B1F808C0 		ldrh	ip, [r1, #8]
 688 0010 4A89     		ldrh	r2, [r1, #10]
 689 0012 8B89     		ldrh	r3, [r1, #12]
 690 0014 45EA0601 		orr	r1, r5, r6
 691 0018 2143     		orrs	r1, r1, r4
 692 001a 4EEA0101 		orr	r1, lr, r1
 693 001e 4CEA0101 		orr	r1, ip, r1
 694 0022 0A43     		orrs	r2, r2, r1
 695 0024 1343     		orrs	r3, r3, r2
 696 0026 4364     		str	r3, [r0, #68]
 697 0028 70BD     		pop	{r4, r5, r6, pc}
 699              		.section	.text.timer_break_enable,"ax",%progbits
 700              		.align	1
 701              		.global	timer_break_enable
 702              		.syntax unified
 703              		.thumb
 704              		.thumb_func
 706              	timer_break_enable:
 707              		@ args = 0, pretend = 0, frame = 0
 708              		@ frame_needed = 0, uses_anonymous_args = 0
 709              		@ link register save eliminated.
 710 0000 436C     		ldr	r3, [r0, #68]
 711 0002 43F48053 		orr	r3, r3, #4096
 712 0006 4364     		str	r3, [r0, #68]
 713 0008 7047     		bx	lr
 715              		.section	.text.timer_break_disable,"ax",%progbits
 716              		.align	1
 717              		.global	timer_break_disable
 718              		.syntax unified
 719              		.thumb
 720              		.thumb_func
 722              	timer_break_disable:
 723              		@ args = 0, pretend = 0, frame = 0
 724              		@ frame_needed = 0, uses_anonymous_args = 0
 725              		@ link register save eliminated.
 726 0000 436C     		ldr	r3, [r0, #68]
 727 0002 23F48053 		bic	r3, r3, #4096
 728 0006 4364     		str	r3, [r0, #68]
 729 0008 7047     		bx	lr
 731              		.section	.text.timer_automatic_output_enable,"ax",%progbits
 732              		.align	1
 733              		.global	timer_automatic_output_enable
 734              		.syntax unified
 735              		.thumb
 736              		.thumb_func
 738              	timer_automatic_output_enable:
 739              		@ args = 0, pretend = 0, frame = 0
 740              		@ frame_needed = 0, uses_anonymous_args = 0
 741              		@ link register save eliminated.
 742 0000 436C     		ldr	r3, [r0, #68]
 743 0002 43F48043 		orr	r3, r3, #16384
ARM GAS  /tmp/cceJv2Y0.s 			page 13


 744 0006 4364     		str	r3, [r0, #68]
 745 0008 7047     		bx	lr
 747              		.section	.text.timer_automatic_output_disable,"ax",%progbits
 748              		.align	1
 749              		.global	timer_automatic_output_disable
 750              		.syntax unified
 751              		.thumb
 752              		.thumb_func
 754              	timer_automatic_output_disable:
 755              		@ args = 0, pretend = 0, frame = 0
 756              		@ frame_needed = 0, uses_anonymous_args = 0
 757              		@ link register save eliminated.
 758 0000 436C     		ldr	r3, [r0, #68]
 759 0002 23F48043 		bic	r3, r3, #16384
 760 0006 4364     		str	r3, [r0, #68]
 761 0008 7047     		bx	lr
 763              		.section	.text.timer_primary_output_config,"ax",%progbits
 764              		.align	1
 765              		.global	timer_primary_output_config
 766              		.syntax unified
 767              		.thumb
 768              		.thumb_func
 770              	timer_primary_output_config:
 771              		@ args = 0, pretend = 0, frame = 0
 772              		@ frame_needed = 0, uses_anonymous_args = 0
 773              		@ link register save eliminated.
 774 0000 0129     		cmp	r1, #1
 775 0002 04D0     		beq	.L79
 776 0004 436C     		ldr	r3, [r0, #68]
 777 0006 23F40043 		bic	r3, r3, #32768
 778 000a 4364     		str	r3, [r0, #68]
 779 000c 7047     		bx	lr
 780              	.L79:
 781 000e 436C     		ldr	r3, [r0, #68]
 782 0010 43F40043 		orr	r3, r3, #32768
 783 0014 4364     		str	r3, [r0, #68]
 784 0016 7047     		bx	lr
 786              		.section	.text.timer_channel_control_shadow_config,"ax",%progbits
 787              		.align	1
 788              		.global	timer_channel_control_shadow_config
 789              		.syntax unified
 790              		.thumb
 791              		.thumb_func
 793              	timer_channel_control_shadow_config:
 794              		@ args = 0, pretend = 0, frame = 0
 795              		@ frame_needed = 0, uses_anonymous_args = 0
 796              		@ link register save eliminated.
 797 0000 0129     		cmp	r1, #1
 798 0002 04D0     		beq	.L83
 799 0004 4368     		ldr	r3, [r0, #4]
 800 0006 23F00103 		bic	r3, r3, #1
 801 000a 4360     		str	r3, [r0, #4]
 802 000c 7047     		bx	lr
 803              	.L83:
 804 000e 4368     		ldr	r3, [r0, #4]
 805 0010 43F00103 		orr	r3, r3, #1
 806 0014 4360     		str	r3, [r0, #4]
ARM GAS  /tmp/cceJv2Y0.s 			page 14


 807 0016 7047     		bx	lr
 809              		.section	.text.timer_channel_control_shadow_update_config,"ax",%progbits
 810              		.align	1
 811              		.global	timer_channel_control_shadow_update_config
 812              		.syntax unified
 813              		.thumb
 814              		.thumb_func
 816              	timer_channel_control_shadow_update_config:
 817              		@ args = 0, pretend = 0, frame = 0
 818              		@ frame_needed = 0, uses_anonymous_args = 0
 819              		@ link register save eliminated.
 820 0000 21B9     		cbnz	r1, .L85
 821 0002 4368     		ldr	r3, [r0, #4]
 822 0004 23F00403 		bic	r3, r3, #4
 823 0008 4360     		str	r3, [r0, #4]
 824 000a 7047     		bx	lr
 825              	.L85:
 826 000c 0129     		cmp	r1, #1
 827 000e 00D0     		beq	.L87
 828              	.L84:
 829 0010 7047     		bx	lr
 830              	.L87:
 831 0012 4368     		ldr	r3, [r0, #4]
 832 0014 43F00403 		orr	r3, r3, #4
 833 0018 4360     		str	r3, [r0, #4]
 834 001a F9E7     		b	.L84
 836              		.section	.text.timer_channel_output_struct_para_init,"ax",%progbits
 837              		.align	1
 838              		.global	timer_channel_output_struct_para_init
 839              		.syntax unified
 840              		.thumb
 841              		.thumb_func
 843              	timer_channel_output_struct_para_init:
 844              		@ args = 0, pretend = 0, frame = 0
 845              		@ frame_needed = 0, uses_anonymous_args = 0
 846              		@ link register save eliminated.
 847 0000 0023     		movs	r3, #0
 848 0002 0380     		strh	r3, [r0]	@ movhi
 849 0004 4380     		strh	r3, [r0, #2]	@ movhi
 850 0006 8380     		strh	r3, [r0, #4]	@ movhi
 851 0008 C380     		strh	r3, [r0, #6]	@ movhi
 852 000a 0381     		strh	r3, [r0, #8]	@ movhi
 853 000c 4381     		strh	r3, [r0, #10]	@ movhi
 854 000e 7047     		bx	lr
 856              		.section	.text.timer_channel_output_config,"ax",%progbits
 857              		.align	1
 858              		.global	timer_channel_output_config
 859              		.syntax unified
 860              		.thumb
 861              		.thumb_func
 863              	timer_channel_output_config:
 864              		@ args = 0, pretend = 0, frame = 0
 865              		@ frame_needed = 0, uses_anonymous_args = 0
 866              		@ link register save eliminated.
 867 0000 0329     		cmp	r1, #3
 868 0002 00F2EE80 		bhi	.L89
 869 0006 DFE811F0 		tbh	[pc, r1, lsl #1]
ARM GAS  /tmp/cceJv2Y0.s 			page 15


 870              	.L92:
 871 000a 0400     		.2byte	(.L95-.L92)/2
 872 000c 4100     		.2byte	(.L94-.L92)/2
 873 000e 8400     		.2byte	(.L93-.L92)/2
 874 0010 C600     		.2byte	(.L91-.L92)/2
 875              		.p2align 1
 876              	.L95:
 877 0012 036A     		ldr	r3, [r0, #32]
 878 0014 23F00103 		bic	r3, r3, #1
 879 0018 0362     		str	r3, [r0, #32]
 880 001a 8369     		ldr	r3, [r0, #24]
 881 001c 23F00303 		bic	r3, r3, #3
 882 0020 8361     		str	r3, [r0, #24]
 883 0022 036A     		ldr	r3, [r0, #32]
 884 0024 1188     		ldrh	r1, [r2]
 885 0026 0B43     		orrs	r3, r3, r1
 886 0028 0362     		str	r3, [r0, #32]
 887 002a 036A     		ldr	r3, [r0, #32]
 888 002c 23F00203 		bic	r3, r3, #2
 889 0030 0362     		str	r3, [r0, #32]
 890 0032 036A     		ldr	r3, [r0, #32]
 891 0034 9188     		ldrh	r1, [r2, #4]
 892 0036 0B43     		orrs	r3, r3, r1
 893 0038 0362     		str	r3, [r0, #32]
 894 003a 6A4B     		ldr	r3, .L101
 895 003c 9842     		cmp	r0, r3
 896 003e 04D0     		beq	.L96
 897 0040 03F58063 		add	r3, r3, #1024
 898 0044 9842     		cmp	r0, r3
 899 0046 40F0CC80 		bne	.L89
 900              	.L96:
 901 004a 036A     		ldr	r3, [r0, #32]
 902 004c 23F00403 		bic	r3, r3, #4
 903 0050 0362     		str	r3, [r0, #32]
 904 0052 036A     		ldr	r3, [r0, #32]
 905 0054 5188     		ldrh	r1, [r2, #2]
 906 0056 0B43     		orrs	r3, r3, r1
 907 0058 0362     		str	r3, [r0, #32]
 908 005a 036A     		ldr	r3, [r0, #32]
 909 005c 23F00803 		bic	r3, r3, #8
 910 0060 0362     		str	r3, [r0, #32]
 911 0062 036A     		ldr	r3, [r0, #32]
 912 0064 D188     		ldrh	r1, [r2, #6]
 913 0066 0B43     		orrs	r3, r3, r1
 914 0068 0362     		str	r3, [r0, #32]
 915 006a 4368     		ldr	r3, [r0, #4]
 916 006c 23F48073 		bic	r3, r3, #256
 917 0070 4360     		str	r3, [r0, #4]
 918 0072 4368     		ldr	r3, [r0, #4]
 919 0074 1189     		ldrh	r1, [r2, #8]
 920 0076 0B43     		orrs	r3, r3, r1
 921 0078 4360     		str	r3, [r0, #4]
 922 007a 4368     		ldr	r3, [r0, #4]
 923 007c 23F40073 		bic	r3, r3, #512
 924 0080 4360     		str	r3, [r0, #4]
 925 0082 4368     		ldr	r3, [r0, #4]
 926 0084 5289     		ldrh	r2, [r2, #10]
ARM GAS  /tmp/cceJv2Y0.s 			page 16


 927 0086 1343     		orrs	r3, r3, r2
 928 0088 4360     		str	r3, [r0, #4]
 929 008a 7047     		bx	lr
 930              	.L94:
 931 008c 036A     		ldr	r3, [r0, #32]
 932 008e 23F01003 		bic	r3, r3, #16
 933 0092 0362     		str	r3, [r0, #32]
 934 0094 8369     		ldr	r3, [r0, #24]
 935 0096 23F44073 		bic	r3, r3, #768
 936 009a 8361     		str	r3, [r0, #24]
 937 009c 036A     		ldr	r3, [r0, #32]
 938 009e 1188     		ldrh	r1, [r2]
 939 00a0 43EA0113 		orr	r3, r3, r1, lsl #4
 940 00a4 0362     		str	r3, [r0, #32]
 941 00a6 036A     		ldr	r3, [r0, #32]
 942 00a8 23F02003 		bic	r3, r3, #32
 943 00ac 0362     		str	r3, [r0, #32]
 944 00ae 036A     		ldr	r3, [r0, #32]
 945 00b0 9188     		ldrh	r1, [r2, #4]
 946 00b2 43EA0113 		orr	r3, r3, r1, lsl #4
 947 00b6 0362     		str	r3, [r0, #32]
 948 00b8 4A4B     		ldr	r3, .L101
 949 00ba 9842     		cmp	r0, r3
 950 00bc 04D0     		beq	.L97
 951 00be 03F58063 		add	r3, r3, #1024
 952 00c2 9842     		cmp	r0, r3
 953 00c4 40F08D80 		bne	.L89
 954              	.L97:
 955 00c8 036A     		ldr	r3, [r0, #32]
 956 00ca 23F04003 		bic	r3, r3, #64
 957 00ce 0362     		str	r3, [r0, #32]
 958 00d0 036A     		ldr	r3, [r0, #32]
 959 00d2 5188     		ldrh	r1, [r2, #2]
 960 00d4 43EA0113 		orr	r3, r3, r1, lsl #4
 961 00d8 0362     		str	r3, [r0, #32]
 962 00da 036A     		ldr	r3, [r0, #32]
 963 00dc 23F08003 		bic	r3, r3, #128
 964 00e0 0362     		str	r3, [r0, #32]
 965 00e2 036A     		ldr	r3, [r0, #32]
 966 00e4 D188     		ldrh	r1, [r2, #6]
 967 00e6 43EA0113 		orr	r3, r3, r1, lsl #4
 968 00ea 0362     		str	r3, [r0, #32]
 969 00ec 4368     		ldr	r3, [r0, #4]
 970 00ee 23F48063 		bic	r3, r3, #1024
 971 00f2 4360     		str	r3, [r0, #4]
 972 00f4 4368     		ldr	r3, [r0, #4]
 973 00f6 1189     		ldrh	r1, [r2, #8]
 974 00f8 43EA8103 		orr	r3, r3, r1, lsl #2
 975 00fc 4360     		str	r3, [r0, #4]
 976 00fe 4368     		ldr	r3, [r0, #4]
 977 0100 23F40063 		bic	r3, r3, #2048
 978 0104 4360     		str	r3, [r0, #4]
 979 0106 4368     		ldr	r3, [r0, #4]
 980 0108 5289     		ldrh	r2, [r2, #10]
 981 010a 43EA8203 		orr	r3, r3, r2, lsl #2
 982 010e 4360     		str	r3, [r0, #4]
 983 0110 7047     		bx	lr
ARM GAS  /tmp/cceJv2Y0.s 			page 17


 984              	.L93:
 985 0112 036A     		ldr	r3, [r0, #32]
 986 0114 23F48073 		bic	r3, r3, #256
 987 0118 0362     		str	r3, [r0, #32]
 988 011a C369     		ldr	r3, [r0, #28]
 989 011c 23F00303 		bic	r3, r3, #3
 990 0120 C361     		str	r3, [r0, #28]
 991 0122 036A     		ldr	r3, [r0, #32]
 992 0124 1188     		ldrh	r1, [r2]
 993 0126 43EA0123 		orr	r3, r3, r1, lsl #8
 994 012a 0362     		str	r3, [r0, #32]
 995 012c 036A     		ldr	r3, [r0, #32]
 996 012e 23F40073 		bic	r3, r3, #512
 997 0132 0362     		str	r3, [r0, #32]
 998 0134 036A     		ldr	r3, [r0, #32]
 999 0136 9188     		ldrh	r1, [r2, #4]
 1000 0138 43EA0123 		orr	r3, r3, r1, lsl #8
 1001 013c 0362     		str	r3, [r0, #32]
 1002 013e 294B     		ldr	r3, .L101
 1003 0140 9842     		cmp	r0, r3
 1004 0142 03D0     		beq	.L98
 1005 0144 03F58063 		add	r3, r3, #1024
 1006 0148 9842     		cmp	r0, r3
 1007 014a 4AD1     		bne	.L89
 1008              	.L98:
 1009 014c 036A     		ldr	r3, [r0, #32]
 1010 014e 23F48063 		bic	r3, r3, #1024
 1011 0152 0362     		str	r3, [r0, #32]
 1012 0154 036A     		ldr	r3, [r0, #32]
 1013 0156 5188     		ldrh	r1, [r2, #2]
 1014 0158 43EA0123 		orr	r3, r3, r1, lsl #8
 1015 015c 0362     		str	r3, [r0, #32]
 1016 015e 036A     		ldr	r3, [r0, #32]
 1017 0160 23F40063 		bic	r3, r3, #2048
 1018 0164 0362     		str	r3, [r0, #32]
 1019 0166 036A     		ldr	r3, [r0, #32]
 1020 0168 D188     		ldrh	r1, [r2, #6]
 1021 016a 43EA0123 		orr	r3, r3, r1, lsl #8
 1022 016e 0362     		str	r3, [r0, #32]
 1023 0170 4368     		ldr	r3, [r0, #4]
 1024 0172 23F48053 		bic	r3, r3, #4096
 1025 0176 4360     		str	r3, [r0, #4]
 1026 0178 4368     		ldr	r3, [r0, #4]
 1027 017a 1189     		ldrh	r1, [r2, #8]
 1028 017c 43EA0113 		orr	r3, r3, r1, lsl #4
 1029 0180 4360     		str	r3, [r0, #4]
 1030 0182 4368     		ldr	r3, [r0, #4]
 1031 0184 23F40053 		bic	r3, r3, #8192
 1032 0188 4360     		str	r3, [r0, #4]
 1033 018a 4368     		ldr	r3, [r0, #4]
 1034 018c 5289     		ldrh	r2, [r2, #10]
 1035 018e 43EA0213 		orr	r3, r3, r2, lsl #4
 1036 0192 4360     		str	r3, [r0, #4]
 1037 0194 7047     		bx	lr
 1038              	.L91:
 1039 0196 036A     		ldr	r3, [r0, #32]
 1040 0198 23F48053 		bic	r3, r3, #4096
ARM GAS  /tmp/cceJv2Y0.s 			page 18


 1041 019c 0362     		str	r3, [r0, #32]
 1042 019e C369     		ldr	r3, [r0, #28]
 1043 01a0 23F44073 		bic	r3, r3, #768
 1044 01a4 C361     		str	r3, [r0, #28]
 1045 01a6 036A     		ldr	r3, [r0, #32]
 1046 01a8 1188     		ldrh	r1, [r2]
 1047 01aa 43EA0133 		orr	r3, r3, r1, lsl #12
 1048 01ae 0362     		str	r3, [r0, #32]
 1049 01b0 036A     		ldr	r3, [r0, #32]
 1050 01b2 23F40053 		bic	r3, r3, #8192
 1051 01b6 0362     		str	r3, [r0, #32]
 1052 01b8 036A     		ldr	r3, [r0, #32]
 1053 01ba 9188     		ldrh	r1, [r2, #4]
 1054 01bc 43EA0133 		orr	r3, r3, r1, lsl #12
 1055 01c0 0362     		str	r3, [r0, #32]
 1056 01c2 084B     		ldr	r3, .L101
 1057 01c4 9842     		cmp	r0, r3
 1058 01c6 03D0     		beq	.L99
 1059 01c8 03F58063 		add	r3, r3, #1024
 1060 01cc 9842     		cmp	r0, r3
 1061 01ce 08D1     		bne	.L89
 1062              	.L99:
 1063 01d0 4368     		ldr	r3, [r0, #4]
 1064 01d2 23F48043 		bic	r3, r3, #16384
 1065 01d6 4360     		str	r3, [r0, #4]
 1066 01d8 4368     		ldr	r3, [r0, #4]
 1067 01da 1289     		ldrh	r2, [r2, #8]
 1068 01dc 43EA8213 		orr	r3, r3, r2, lsl #6
 1069 01e0 4360     		str	r3, [r0, #4]
 1070              	.L89:
 1071 01e2 7047     		bx	lr
 1072              	.L102:
 1073              		.align	2
 1074              	.L101:
 1075 01e4 00000140 		.word	1073807360
 1077              		.section	.text.timer_channel_output_mode_config,"ax",%progbits
 1078              		.align	1
 1079              		.global	timer_channel_output_mode_config
 1080              		.syntax unified
 1081              		.thumb
 1082              		.thumb_func
 1084              	timer_channel_output_mode_config:
 1085              		@ args = 0, pretend = 0, frame = 0
 1086              		@ frame_needed = 0, uses_anonymous_args = 0
 1087              		@ link register save eliminated.
 1088 0000 0329     		cmp	r1, #3
 1089 0002 24D8     		bhi	.L103
 1090 0004 DFE801F0 		tbb	[pc, r1]
 1091              	.L106:
 1092 0008 02       		.byte	(.L109-.L106)/2
 1093 0009 0A       		.byte	(.L108-.L106)/2
 1094 000a 13       		.byte	(.L107-.L106)/2
 1095 000b 1B       		.byte	(.L105-.L106)/2
 1096              		.p2align 1
 1097              	.L109:
 1098 000c 8369     		ldr	r3, [r0, #24]
 1099 000e 23F07003 		bic	r3, r3, #112
ARM GAS  /tmp/cceJv2Y0.s 			page 19


 1100 0012 8361     		str	r3, [r0, #24]
 1101 0014 8369     		ldr	r3, [r0, #24]
 1102 0016 1343     		orrs	r3, r3, r2
 1103 0018 8361     		str	r3, [r0, #24]
 1104 001a 7047     		bx	lr
 1105              	.L108:
 1106 001c 8369     		ldr	r3, [r0, #24]
 1107 001e 23F4E043 		bic	r3, r3, #28672
 1108 0022 8361     		str	r3, [r0, #24]
 1109 0024 8369     		ldr	r3, [r0, #24]
 1110 0026 43EA0223 		orr	r3, r3, r2, lsl #8
 1111 002a 8361     		str	r3, [r0, #24]
 1112 002c 7047     		bx	lr
 1113              	.L107:
 1114 002e C369     		ldr	r3, [r0, #28]
 1115 0030 23F07003 		bic	r3, r3, #112
 1116 0034 C361     		str	r3, [r0, #28]
 1117 0036 C369     		ldr	r3, [r0, #28]
 1118 0038 1343     		orrs	r3, r3, r2
 1119 003a C361     		str	r3, [r0, #28]
 1120 003c 7047     		bx	lr
 1121              	.L105:
 1122 003e C369     		ldr	r3, [r0, #28]
 1123 0040 23F4E043 		bic	r3, r3, #28672
 1124 0044 C361     		str	r3, [r0, #28]
 1125 0046 C369     		ldr	r3, [r0, #28]
 1126 0048 43EA0223 		orr	r3, r3, r2, lsl #8
 1127 004c C361     		str	r3, [r0, #28]
 1128              	.L103:
 1129 004e 7047     		bx	lr
 1131              		.section	.text.timer_channel_output_pulse_value_config,"ax",%progbits
 1132              		.align	1
 1133              		.global	timer_channel_output_pulse_value_config
 1134              		.syntax unified
 1135              		.thumb
 1136              		.thumb_func
 1138              	timer_channel_output_pulse_value_config:
 1139              		@ args = 0, pretend = 0, frame = 0
 1140              		@ frame_needed = 0, uses_anonymous_args = 0
 1141              		@ link register save eliminated.
 1142 0000 0329     		cmp	r1, #3
 1143 0002 0AD8     		bhi	.L111
 1144 0004 DFE801F0 		tbb	[pc, r1]
 1145              	.L114:
 1146 0008 02       		.byte	(.L117-.L114)/2
 1147 0009 04       		.byte	(.L116-.L114)/2
 1148 000a 06       		.byte	(.L115-.L114)/2
 1149 000b 08       		.byte	(.L113-.L114)/2
 1150              		.p2align 1
 1151              	.L117:
 1152 000c 4263     		str	r2, [r0, #52]
 1153 000e 7047     		bx	lr
 1154              	.L116:
 1155 0010 8263     		str	r2, [r0, #56]
 1156 0012 7047     		bx	lr
 1157              	.L115:
 1158 0014 C263     		str	r2, [r0, #60]
ARM GAS  /tmp/cceJv2Y0.s 			page 20


 1159 0016 7047     		bx	lr
 1160              	.L113:
 1161 0018 0264     		str	r2, [r0, #64]
 1162              	.L111:
 1163 001a 7047     		bx	lr
 1165              		.section	.text.timer_channel_output_shadow_config,"ax",%progbits
 1166              		.align	1
 1167              		.global	timer_channel_output_shadow_config
 1168              		.syntax unified
 1169              		.thumb
 1170              		.thumb_func
 1172              	timer_channel_output_shadow_config:
 1173              		@ args = 0, pretend = 0, frame = 0
 1174              		@ frame_needed = 0, uses_anonymous_args = 0
 1175              		@ link register save eliminated.
 1176 0000 0329     		cmp	r1, #3
 1177 0002 24D8     		bhi	.L119
 1178 0004 DFE801F0 		tbb	[pc, r1]
 1179              	.L122:
 1180 0008 02       		.byte	(.L125-.L122)/2
 1181 0009 0A       		.byte	(.L124-.L122)/2
 1182 000a 13       		.byte	(.L123-.L122)/2
 1183 000b 1B       		.byte	(.L121-.L122)/2
 1184              		.p2align 1
 1185              	.L125:
 1186 000c 8369     		ldr	r3, [r0, #24]
 1187 000e 23F00803 		bic	r3, r3, #8
 1188 0012 8361     		str	r3, [r0, #24]
 1189 0014 8369     		ldr	r3, [r0, #24]
 1190 0016 1343     		orrs	r3, r3, r2
 1191 0018 8361     		str	r3, [r0, #24]
 1192 001a 7047     		bx	lr
 1193              	.L124:
 1194 001c 8369     		ldr	r3, [r0, #24]
 1195 001e 23F40063 		bic	r3, r3, #2048
 1196 0022 8361     		str	r3, [r0, #24]
 1197 0024 8369     		ldr	r3, [r0, #24]
 1198 0026 43EA0223 		orr	r3, r3, r2, lsl #8
 1199 002a 8361     		str	r3, [r0, #24]
 1200 002c 7047     		bx	lr
 1201              	.L123:
 1202 002e C369     		ldr	r3, [r0, #28]
 1203 0030 23F00803 		bic	r3, r3, #8
 1204 0034 C361     		str	r3, [r0, #28]
 1205 0036 C369     		ldr	r3, [r0, #28]
 1206 0038 1343     		orrs	r3, r3, r2
 1207 003a C361     		str	r3, [r0, #28]
 1208 003c 7047     		bx	lr
 1209              	.L121:
 1210 003e C369     		ldr	r3, [r0, #28]
 1211 0040 23F40063 		bic	r3, r3, #2048
 1212 0044 C361     		str	r3, [r0, #28]
 1213 0046 C369     		ldr	r3, [r0, #28]
 1214 0048 43EA0223 		orr	r3, r3, r2, lsl #8
 1215 004c C361     		str	r3, [r0, #28]
 1216              	.L119:
 1217 004e 7047     		bx	lr
ARM GAS  /tmp/cceJv2Y0.s 			page 21


 1219              		.section	.text.timer_channel_output_fast_config,"ax",%progbits
 1220              		.align	1
 1221              		.global	timer_channel_output_fast_config
 1222              		.syntax unified
 1223              		.thumb
 1224              		.thumb_func
 1226              	timer_channel_output_fast_config:
 1227              		@ args = 0, pretend = 0, frame = 0
 1228              		@ frame_needed = 0, uses_anonymous_args = 0
 1229              		@ link register save eliminated.
 1230 0000 0329     		cmp	r1, #3
 1231 0002 24D8     		bhi	.L127
 1232 0004 DFE801F0 		tbb	[pc, r1]
 1233              	.L130:
 1234 0008 02       		.byte	(.L133-.L130)/2
 1235 0009 0A       		.byte	(.L132-.L130)/2
 1236 000a 13       		.byte	(.L131-.L130)/2
 1237 000b 1B       		.byte	(.L129-.L130)/2
 1238              		.p2align 1
 1239              	.L133:
 1240 000c 8369     		ldr	r3, [r0, #24]
 1241 000e 23F00403 		bic	r3, r3, #4
 1242 0012 8361     		str	r3, [r0, #24]
 1243 0014 8369     		ldr	r3, [r0, #24]
 1244 0016 1343     		orrs	r3, r3, r2
 1245 0018 8361     		str	r3, [r0, #24]
 1246 001a 7047     		bx	lr
 1247              	.L132:
 1248 001c 8369     		ldr	r3, [r0, #24]
 1249 001e 23F48063 		bic	r3, r3, #1024
 1250 0022 8361     		str	r3, [r0, #24]
 1251 0024 8369     		ldr	r3, [r0, #24]
 1252 0026 43EA0223 		orr	r3, r3, r2, lsl #8
 1253 002a 8361     		str	r3, [r0, #24]
 1254 002c 7047     		bx	lr
 1255              	.L131:
 1256 002e C369     		ldr	r3, [r0, #28]
 1257 0030 23F00403 		bic	r3, r3, #4
 1258 0034 C361     		str	r3, [r0, #28]
 1259 0036 C369     		ldr	r3, [r0, #28]
 1260 0038 1343     		orrs	r3, r3, r2
 1261 003a C361     		str	r3, [r0, #28]
 1262 003c 7047     		bx	lr
 1263              	.L129:
 1264 003e C369     		ldr	r3, [r0, #28]
 1265 0040 23F48063 		bic	r3, r3, #1024
 1266 0044 C361     		str	r3, [r0, #28]
 1267 0046 C369     		ldr	r3, [r0, #28]
 1268 0048 43EA0223 		orr	r3, r3, r2, lsl #8
 1269 004c C361     		str	r3, [r0, #28]
 1270              	.L127:
 1271 004e 7047     		bx	lr
 1273              		.section	.text.timer_channel_output_clear_config,"ax",%progbits
 1274              		.align	1
 1275              		.global	timer_channel_output_clear_config
 1276              		.syntax unified
 1277              		.thumb
ARM GAS  /tmp/cceJv2Y0.s 			page 22


 1278              		.thumb_func
 1280              	timer_channel_output_clear_config:
 1281              		@ args = 0, pretend = 0, frame = 0
 1282              		@ frame_needed = 0, uses_anonymous_args = 0
 1283              		@ link register save eliminated.
 1284 0000 0329     		cmp	r1, #3
 1285 0002 24D8     		bhi	.L135
 1286 0004 DFE801F0 		tbb	[pc, r1]
 1287              	.L138:
 1288 0008 02       		.byte	(.L141-.L138)/2
 1289 0009 0A       		.byte	(.L140-.L138)/2
 1290 000a 13       		.byte	(.L139-.L138)/2
 1291 000b 1B       		.byte	(.L137-.L138)/2
 1292              		.p2align 1
 1293              	.L141:
 1294 000c 8369     		ldr	r3, [r0, #24]
 1295 000e 23F08003 		bic	r3, r3, #128
 1296 0012 8361     		str	r3, [r0, #24]
 1297 0014 8369     		ldr	r3, [r0, #24]
 1298 0016 1343     		orrs	r3, r3, r2
 1299 0018 8361     		str	r3, [r0, #24]
 1300 001a 7047     		bx	lr
 1301              	.L140:
 1302 001c 8369     		ldr	r3, [r0, #24]
 1303 001e 23F40043 		bic	r3, r3, #32768
 1304 0022 8361     		str	r3, [r0, #24]
 1305 0024 8369     		ldr	r3, [r0, #24]
 1306 0026 43EA0223 		orr	r3, r3, r2, lsl #8
 1307 002a 8361     		str	r3, [r0, #24]
 1308 002c 7047     		bx	lr
 1309              	.L139:
 1310 002e C369     		ldr	r3, [r0, #28]
 1311 0030 23F08003 		bic	r3, r3, #128
 1312 0034 C361     		str	r3, [r0, #28]
 1313 0036 C369     		ldr	r3, [r0, #28]
 1314 0038 1343     		orrs	r3, r3, r2
 1315 003a C361     		str	r3, [r0, #28]
 1316 003c 7047     		bx	lr
 1317              	.L137:
 1318 003e C369     		ldr	r3, [r0, #28]
 1319 0040 23F40043 		bic	r3, r3, #32768
 1320 0044 C361     		str	r3, [r0, #28]
 1321 0046 C369     		ldr	r3, [r0, #28]
 1322 0048 43EA0223 		orr	r3, r3, r2, lsl #8
 1323 004c C361     		str	r3, [r0, #28]
 1324              	.L135:
 1325 004e 7047     		bx	lr
 1327              		.section	.text.timer_channel_output_polarity_config,"ax",%progbits
 1328              		.align	1
 1329              		.global	timer_channel_output_polarity_config
 1330              		.syntax unified
 1331              		.thumb
 1332              		.thumb_func
 1334              	timer_channel_output_polarity_config:
 1335              		@ args = 0, pretend = 0, frame = 0
 1336              		@ frame_needed = 0, uses_anonymous_args = 0
 1337              		@ link register save eliminated.
ARM GAS  /tmp/cceJv2Y0.s 			page 23


 1338 0000 0329     		cmp	r1, #3
 1339 0002 25D8     		bhi	.L143
 1340 0004 DFE801F0 		tbb	[pc, r1]
 1341              	.L146:
 1342 0008 02       		.byte	(.L149-.L146)/2
 1343 0009 0A       		.byte	(.L148-.L146)/2
 1344 000a 13       		.byte	(.L147-.L146)/2
 1345 000b 1C       		.byte	(.L145-.L146)/2
 1346              		.p2align 1
 1347              	.L149:
 1348 000c 036A     		ldr	r3, [r0, #32]
 1349 000e 23F00203 		bic	r3, r3, #2
 1350 0012 0362     		str	r3, [r0, #32]
 1351 0014 036A     		ldr	r3, [r0, #32]
 1352 0016 1343     		orrs	r3, r3, r2
 1353 0018 0362     		str	r3, [r0, #32]
 1354 001a 7047     		bx	lr
 1355              	.L148:
 1356 001c 036A     		ldr	r3, [r0, #32]
 1357 001e 23F02003 		bic	r3, r3, #32
 1358 0022 0362     		str	r3, [r0, #32]
 1359 0024 036A     		ldr	r3, [r0, #32]
 1360 0026 43EA0213 		orr	r3, r3, r2, lsl #4
 1361 002a 0362     		str	r3, [r0, #32]
 1362 002c 7047     		bx	lr
 1363              	.L147:
 1364 002e 036A     		ldr	r3, [r0, #32]
 1365 0030 23F40073 		bic	r3, r3, #512
 1366 0034 0362     		str	r3, [r0, #32]
 1367 0036 036A     		ldr	r3, [r0, #32]
 1368 0038 43EA0223 		orr	r3, r3, r2, lsl #8
 1369 003c 0362     		str	r3, [r0, #32]
 1370 003e 7047     		bx	lr
 1371              	.L145:
 1372 0040 036A     		ldr	r3, [r0, #32]
 1373 0042 23F40053 		bic	r3, r3, #8192
 1374 0046 0362     		str	r3, [r0, #32]
 1375 0048 036A     		ldr	r3, [r0, #32]
 1376 004a 43EA0233 		orr	r3, r3, r2, lsl #12
 1377 004e 0362     		str	r3, [r0, #32]
 1378              	.L143:
 1379 0050 7047     		bx	lr
 1381              		.section	.text.timer_channel_complementary_output_polarity_config,"ax",%progbits
 1382              		.align	1
 1383              		.global	timer_channel_complementary_output_polarity_config
 1384              		.syntax unified
 1385              		.thumb
 1386              		.thumb_func
 1388              	timer_channel_complementary_output_polarity_config:
 1389              		@ args = 0, pretend = 0, frame = 0
 1390              		@ frame_needed = 0, uses_anonymous_args = 0
 1391              		@ link register save eliminated.
 1392 0000 0129     		cmp	r1, #1
 1393 0002 0BD0     		beq	.L152
 1394 0004 0229     		cmp	r1, #2
 1395 0006 12D0     		beq	.L153
 1396 0008 01B1     		cbz	r1, .L155
ARM GAS  /tmp/cceJv2Y0.s 			page 24


 1397              	.L151:
 1398 000a 7047     		bx	lr
 1399              	.L155:
 1400 000c 036A     		ldr	r3, [r0, #32]
 1401 000e 23F00803 		bic	r3, r3, #8
 1402 0012 0362     		str	r3, [r0, #32]
 1403 0014 036A     		ldr	r3, [r0, #32]
 1404 0016 1343     		orrs	r3, r3, r2
 1405 0018 0362     		str	r3, [r0, #32]
 1406 001a 7047     		bx	lr
 1407              	.L152:
 1408 001c 036A     		ldr	r3, [r0, #32]
 1409 001e 23F08003 		bic	r3, r3, #128
 1410 0022 0362     		str	r3, [r0, #32]
 1411 0024 036A     		ldr	r3, [r0, #32]
 1412 0026 43EA0213 		orr	r3, r3, r2, lsl #4
 1413 002a 0362     		str	r3, [r0, #32]
 1414 002c 7047     		bx	lr
 1415              	.L153:
 1416 002e 036A     		ldr	r3, [r0, #32]
 1417 0030 23F40063 		bic	r3, r3, #2048
 1418 0034 0362     		str	r3, [r0, #32]
 1419 0036 036A     		ldr	r3, [r0, #32]
 1420 0038 43EA0223 		orr	r3, r3, r2, lsl #8
 1421 003c 0362     		str	r3, [r0, #32]
 1422 003e E4E7     		b	.L151
 1424              		.section	.text.timer_channel_output_state_config,"ax",%progbits
 1425              		.align	1
 1426              		.global	timer_channel_output_state_config
 1427              		.syntax unified
 1428              		.thumb
 1429              		.thumb_func
 1431              	timer_channel_output_state_config:
 1432              		@ args = 0, pretend = 0, frame = 0
 1433              		@ frame_needed = 0, uses_anonymous_args = 0
 1434              		@ link register save eliminated.
 1435 0000 0329     		cmp	r1, #3
 1436 0002 25D8     		bhi	.L156
 1437 0004 DFE801F0 		tbb	[pc, r1]
 1438              	.L159:
 1439 0008 02       		.byte	(.L162-.L159)/2
 1440 0009 0A       		.byte	(.L161-.L159)/2
 1441 000a 13       		.byte	(.L160-.L159)/2
 1442 000b 1C       		.byte	(.L158-.L159)/2
 1443              		.p2align 1
 1444              	.L162:
 1445 000c 036A     		ldr	r3, [r0, #32]
 1446 000e 23F00103 		bic	r3, r3, #1
 1447 0012 0362     		str	r3, [r0, #32]
 1448 0014 036A     		ldr	r3, [r0, #32]
 1449 0016 1343     		orrs	r3, r3, r2
 1450 0018 0362     		str	r3, [r0, #32]
 1451 001a 7047     		bx	lr
 1452              	.L161:
 1453 001c 036A     		ldr	r3, [r0, #32]
 1454 001e 23F01003 		bic	r3, r3, #16
 1455 0022 0362     		str	r3, [r0, #32]
ARM GAS  /tmp/cceJv2Y0.s 			page 25


 1456 0024 036A     		ldr	r3, [r0, #32]
 1457 0026 43EA0213 		orr	r3, r3, r2, lsl #4
 1458 002a 0362     		str	r3, [r0, #32]
 1459 002c 7047     		bx	lr
 1460              	.L160:
 1461 002e 036A     		ldr	r3, [r0, #32]
 1462 0030 23F48073 		bic	r3, r3, #256
 1463 0034 0362     		str	r3, [r0, #32]
 1464 0036 036A     		ldr	r3, [r0, #32]
 1465 0038 43EA0223 		orr	r3, r3, r2, lsl #8
 1466 003c 0362     		str	r3, [r0, #32]
 1467 003e 7047     		bx	lr
 1468              	.L158:
 1469 0040 036A     		ldr	r3, [r0, #32]
 1470 0042 23F48053 		bic	r3, r3, #4096
 1471 0046 0362     		str	r3, [r0, #32]
 1472 0048 036A     		ldr	r3, [r0, #32]
 1473 004a 43EA0233 		orr	r3, r3, r2, lsl #12
 1474 004e 0362     		str	r3, [r0, #32]
 1475              	.L156:
 1476 0050 7047     		bx	lr
 1478              		.section	.text.timer_channel_complementary_output_state_config,"ax",%progbits
 1479              		.align	1
 1480              		.global	timer_channel_complementary_output_state_config
 1481              		.syntax unified
 1482              		.thumb
 1483              		.thumb_func
 1485              	timer_channel_complementary_output_state_config:
 1486              		@ args = 0, pretend = 0, frame = 0
 1487              		@ frame_needed = 0, uses_anonymous_args = 0
 1488              		@ link register save eliminated.
 1489 0000 0129     		cmp	r1, #1
 1490 0002 0BD0     		beq	.L165
 1491 0004 0229     		cmp	r1, #2
 1492 0006 12D0     		beq	.L166
 1493 0008 01B1     		cbz	r1, .L168
 1494              	.L164:
 1495 000a 7047     		bx	lr
 1496              	.L168:
 1497 000c 036A     		ldr	r3, [r0, #32]
 1498 000e 23F00403 		bic	r3, r3, #4
 1499 0012 0362     		str	r3, [r0, #32]
 1500 0014 036A     		ldr	r3, [r0, #32]
 1501 0016 1343     		orrs	r3, r3, r2
 1502 0018 0362     		str	r3, [r0, #32]
 1503 001a 7047     		bx	lr
 1504              	.L165:
 1505 001c 036A     		ldr	r3, [r0, #32]
 1506 001e 23F04003 		bic	r3, r3, #64
 1507 0022 0362     		str	r3, [r0, #32]
 1508 0024 036A     		ldr	r3, [r0, #32]
 1509 0026 43EA0213 		orr	r3, r3, r2, lsl #4
 1510 002a 0362     		str	r3, [r0, #32]
 1511 002c 7047     		bx	lr
 1512              	.L166:
 1513 002e 036A     		ldr	r3, [r0, #32]
 1514 0030 23F48063 		bic	r3, r3, #1024
ARM GAS  /tmp/cceJv2Y0.s 			page 26


 1515 0034 0362     		str	r3, [r0, #32]
 1516 0036 036A     		ldr	r3, [r0, #32]
 1517 0038 43EA0223 		orr	r3, r3, r2, lsl #8
 1518 003c 0362     		str	r3, [r0, #32]
 1519 003e E4E7     		b	.L164
 1521              		.section	.text.timer_channel_input_struct_para_init,"ax",%progbits
 1522              		.align	1
 1523              		.global	timer_channel_input_struct_para_init
 1524              		.syntax unified
 1525              		.thumb
 1526              		.thumb_func
 1528              	timer_channel_input_struct_para_init:
 1529              		@ args = 0, pretend = 0, frame = 0
 1530              		@ frame_needed = 0, uses_anonymous_args = 0
 1531              		@ link register save eliminated.
 1532 0000 0023     		movs	r3, #0
 1533 0002 0380     		strh	r3, [r0]	@ movhi
 1534 0004 0122     		movs	r2, #1
 1535 0006 4280     		strh	r2, [r0, #2]	@ movhi
 1536 0008 8380     		strh	r3, [r0, #4]	@ movhi
 1537 000a C380     		strh	r3, [r0, #6]	@ movhi
 1538 000c 7047     		bx	lr
 1540              		.section	.text.timer_channel_input_capture_prescaler_config,"ax",%progbits
 1541              		.align	1
 1542              		.global	timer_channel_input_capture_prescaler_config
 1543              		.syntax unified
 1544              		.thumb
 1545              		.thumb_func
 1547              	timer_channel_input_capture_prescaler_config:
 1548              		@ args = 0, pretend = 0, frame = 0
 1549              		@ frame_needed = 0, uses_anonymous_args = 0
 1550              		@ link register save eliminated.
 1551 0000 0329     		cmp	r1, #3
 1552 0002 24D8     		bhi	.L170
 1553 0004 DFE801F0 		tbb	[pc, r1]
 1554              	.L173:
 1555 0008 02       		.byte	(.L176-.L173)/2
 1556 0009 0A       		.byte	(.L175-.L173)/2
 1557 000a 13       		.byte	(.L174-.L173)/2
 1558 000b 1B       		.byte	(.L172-.L173)/2
 1559              		.p2align 1
 1560              	.L176:
 1561 000c 8369     		ldr	r3, [r0, #24]
 1562 000e 23F00C03 		bic	r3, r3, #12
 1563 0012 8361     		str	r3, [r0, #24]
 1564 0014 8369     		ldr	r3, [r0, #24]
 1565 0016 1343     		orrs	r3, r3, r2
 1566 0018 8361     		str	r3, [r0, #24]
 1567 001a 7047     		bx	lr
 1568              	.L175:
 1569 001c 8369     		ldr	r3, [r0, #24]
 1570 001e 23F44063 		bic	r3, r3, #3072
 1571 0022 8361     		str	r3, [r0, #24]
 1572 0024 8369     		ldr	r3, [r0, #24]
 1573 0026 43EA0223 		orr	r3, r3, r2, lsl #8
 1574 002a 8361     		str	r3, [r0, #24]
 1575 002c 7047     		bx	lr
ARM GAS  /tmp/cceJv2Y0.s 			page 27


 1576              	.L174:
 1577 002e C369     		ldr	r3, [r0, #28]
 1578 0030 23F00C03 		bic	r3, r3, #12
 1579 0034 C361     		str	r3, [r0, #28]
 1580 0036 C369     		ldr	r3, [r0, #28]
 1581 0038 1343     		orrs	r3, r3, r2
 1582 003a C361     		str	r3, [r0, #28]
 1583 003c 7047     		bx	lr
 1584              	.L172:
 1585 003e C369     		ldr	r3, [r0, #28]
 1586 0040 23F44063 		bic	r3, r3, #3072
 1587 0044 C361     		str	r3, [r0, #28]
 1588 0046 C369     		ldr	r3, [r0, #28]
 1589 0048 43EA0223 		orr	r3, r3, r2, lsl #8
 1590 004c C361     		str	r3, [r0, #28]
 1591              	.L170:
 1592 004e 7047     		bx	lr
 1594              		.section	.text.timer_input_capture_config,"ax",%progbits
 1595              		.align	1
 1596              		.global	timer_input_capture_config
 1597              		.syntax unified
 1598              		.thumb
 1599              		.thumb_func
 1601              	timer_input_capture_config:
 1602              		@ args = 0, pretend = 0, frame = 0
 1603              		@ frame_needed = 0, uses_anonymous_args = 0
 1604 0000 08B5     		push	{r3, lr}
 1605 0002 0329     		cmp	r1, #3
 1606 0004 29D8     		bhi	.L179
 1607 0006 DFE801F0 		tbb	[pc, r1]
 1608              	.L181:
 1609 000a 02       		.byte	(.L184-.L181)/2
 1610 000b 2C       		.byte	(.L183-.L181)/2
 1611 000c 53       		.byte	(.L182-.L181)/2
 1612 000d 7A       		.byte	(.L180-.L181)/2
 1613              		.p2align 1
 1614              	.L184:
 1615 000e 036A     		ldr	r3, [r0, #32]
 1616 0010 23F00103 		bic	r3, r3, #1
 1617 0014 0362     		str	r3, [r0, #32]
 1618 0016 036A     		ldr	r3, [r0, #32]
 1619 0018 23F00A03 		bic	r3, r3, #10
 1620 001c 0362     		str	r3, [r0, #32]
 1621 001e 036A     		ldr	r3, [r0, #32]
 1622 0020 B2F800C0 		ldrh	ip, [r2]
 1623 0024 43EA0C03 		orr	r3, r3, ip
 1624 0028 0362     		str	r3, [r0, #32]
 1625 002a 8369     		ldr	r3, [r0, #24]
 1626 002c 23F00303 		bic	r3, r3, #3
 1627 0030 8361     		str	r3, [r0, #24]
 1628 0032 8369     		ldr	r3, [r0, #24]
 1629 0034 B2F802C0 		ldrh	ip, [r2, #2]
 1630 0038 43EA0C03 		orr	r3, r3, ip
 1631 003c 8361     		str	r3, [r0, #24]
 1632 003e 8369     		ldr	r3, [r0, #24]
 1633 0040 23F0F003 		bic	r3, r3, #240
 1634 0044 8361     		str	r3, [r0, #24]
ARM GAS  /tmp/cceJv2Y0.s 			page 28


 1635 0046 8369     		ldr	r3, [r0, #24]
 1636 0048 B2F806C0 		ldrh	ip, [r2, #6]
 1637 004c 43EA0C13 		orr	r3, r3, ip, lsl #4
 1638 0050 8361     		str	r3, [r0, #24]
 1639 0052 036A     		ldr	r3, [r0, #32]
 1640 0054 43F00103 		orr	r3, r3, #1
 1641 0058 0362     		str	r3, [r0, #32]
 1642              	.L179:
 1643 005a 9288     		ldrh	r2, [r2, #4]
 1644 005c FFF7FEFF 		bl	timer_channel_input_capture_prescaler_config
 1645 0060 08BD     		pop	{r3, pc}
 1646              	.L183:
 1647 0062 036A     		ldr	r3, [r0, #32]
 1648 0064 23F01003 		bic	r3, r3, #16
 1649 0068 0362     		str	r3, [r0, #32]
 1650 006a 036A     		ldr	r3, [r0, #32]
 1651 006c 23F0A003 		bic	r3, r3, #160
 1652 0070 0362     		str	r3, [r0, #32]
 1653 0072 036A     		ldr	r3, [r0, #32]
 1654 0074 B2F800C0 		ldrh	ip, [r2]
 1655 0078 43EA0C13 		orr	r3, r3, ip, lsl #4
 1656 007c 0362     		str	r3, [r0, #32]
 1657 007e 8369     		ldr	r3, [r0, #24]
 1658 0080 23F44073 		bic	r3, r3, #768
 1659 0084 8361     		str	r3, [r0, #24]
 1660 0086 8369     		ldr	r3, [r0, #24]
 1661 0088 B2F802C0 		ldrh	ip, [r2, #2]
 1662 008c 43EA0C23 		orr	r3, r3, ip, lsl #8
 1663 0090 8361     		str	r3, [r0, #24]
 1664 0092 8369     		ldr	r3, [r0, #24]
 1665 0094 23F47043 		bic	r3, r3, #61440
 1666 0098 8361     		str	r3, [r0, #24]
 1667 009a 8369     		ldr	r3, [r0, #24]
 1668 009c B2F806C0 		ldrh	ip, [r2, #6]
 1669 00a0 43EA0C33 		orr	r3, r3, ip, lsl #12
 1670 00a4 8361     		str	r3, [r0, #24]
 1671 00a6 036A     		ldr	r3, [r0, #32]
 1672 00a8 43F01003 		orr	r3, r3, #16
 1673 00ac 0362     		str	r3, [r0, #32]
 1674 00ae D4E7     		b	.L179
 1675              	.L182:
 1676 00b0 036A     		ldr	r3, [r0, #32]
 1677 00b2 23F48073 		bic	r3, r3, #256
 1678 00b6 0362     		str	r3, [r0, #32]
 1679 00b8 036A     		ldr	r3, [r0, #32]
 1680 00ba 23F42063 		bic	r3, r3, #2560
 1681 00be 0362     		str	r3, [r0, #32]
 1682 00c0 036A     		ldr	r3, [r0, #32]
 1683 00c2 B2F800C0 		ldrh	ip, [r2]
 1684 00c6 43EA0C23 		orr	r3, r3, ip, lsl #8
 1685 00ca 0362     		str	r3, [r0, #32]
 1686 00cc C369     		ldr	r3, [r0, #28]
 1687 00ce 23F00303 		bic	r3, r3, #3
 1688 00d2 C361     		str	r3, [r0, #28]
 1689 00d4 C369     		ldr	r3, [r0, #28]
 1690 00d6 B2F802C0 		ldrh	ip, [r2, #2]
 1691 00da 43EA0C03 		orr	r3, r3, ip
ARM GAS  /tmp/cceJv2Y0.s 			page 29


 1692 00de C361     		str	r3, [r0, #28]
 1693 00e0 C369     		ldr	r3, [r0, #28]
 1694 00e2 23F0F003 		bic	r3, r3, #240
 1695 00e6 C361     		str	r3, [r0, #28]
 1696 00e8 C369     		ldr	r3, [r0, #28]
 1697 00ea B2F806C0 		ldrh	ip, [r2, #6]
 1698 00ee 43EA0C13 		orr	r3, r3, ip, lsl #4
 1699 00f2 C361     		str	r3, [r0, #28]
 1700 00f4 036A     		ldr	r3, [r0, #32]
 1701 00f6 43F48073 		orr	r3, r3, #256
 1702 00fa 0362     		str	r3, [r0, #32]
 1703 00fc ADE7     		b	.L179
 1704              	.L180:
 1705 00fe 036A     		ldr	r3, [r0, #32]
 1706 0100 23F48053 		bic	r3, r3, #4096
 1707 0104 0362     		str	r3, [r0, #32]
 1708 0106 036A     		ldr	r3, [r0, #32]
 1709 0108 23F40053 		bic	r3, r3, #8192
 1710 010c 0362     		str	r3, [r0, #32]
 1711 010e 036A     		ldr	r3, [r0, #32]
 1712 0110 B2F800C0 		ldrh	ip, [r2]
 1713 0114 43EA0C33 		orr	r3, r3, ip, lsl #12
 1714 0118 0362     		str	r3, [r0, #32]
 1715 011a C369     		ldr	r3, [r0, #28]
 1716 011c 23F44073 		bic	r3, r3, #768
 1717 0120 C361     		str	r3, [r0, #28]
 1718 0122 C369     		ldr	r3, [r0, #28]
 1719 0124 B2F802C0 		ldrh	ip, [r2, #2]
 1720 0128 43EA0C23 		orr	r3, r3, ip, lsl #8
 1721 012c C361     		str	r3, [r0, #28]
 1722 012e C369     		ldr	r3, [r0, #28]
 1723 0130 23F47043 		bic	r3, r3, #61440
 1724 0134 C361     		str	r3, [r0, #28]
 1725 0136 C369     		ldr	r3, [r0, #28]
 1726 0138 B2F806C0 		ldrh	ip, [r2, #6]
 1727 013c 43EA0C33 		orr	r3, r3, ip, lsl #12
 1728 0140 C361     		str	r3, [r0, #28]
 1729 0142 036A     		ldr	r3, [r0, #32]
 1730 0144 43F48053 		orr	r3, r3, #4096
 1731 0148 0362     		str	r3, [r0, #32]
 1732 014a 86E7     		b	.L179
 1734              		.section	.text.timer_channel_capture_value_register_read,"ax",%progbits
 1735              		.align	1
 1736              		.global	timer_channel_capture_value_register_read
 1737              		.syntax unified
 1738              		.thumb
 1739              		.thumb_func
 1741              	timer_channel_capture_value_register_read:
 1742              		@ args = 0, pretend = 0, frame = 0
 1743              		@ frame_needed = 0, uses_anonymous_args = 0
 1744              		@ link register save eliminated.
 1745 0000 0329     		cmp	r1, #3
 1746 0002 0BD8     		bhi	.L194
 1747 0004 DFE801F0 		tbb	[pc, r1]
 1748              	.L190:
 1749 0008 02       		.byte	(.L193-.L190)/2
 1750 0009 04       		.byte	(.L192-.L190)/2
ARM GAS  /tmp/cceJv2Y0.s 			page 30


 1751 000a 06       		.byte	(.L191-.L190)/2
 1752 000b 08       		.byte	(.L189-.L190)/2
 1753              		.p2align 1
 1754              	.L193:
 1755 000c 406B     		ldr	r0, [r0, #52]
 1756 000e 7047     		bx	lr
 1757              	.L192:
 1758 0010 806B     		ldr	r0, [r0, #56]
 1759 0012 7047     		bx	lr
 1760              	.L191:
 1761 0014 C06B     		ldr	r0, [r0, #60]
 1762 0016 7047     		bx	lr
 1763              	.L189:
 1764 0018 006C     		ldr	r0, [r0, #64]
 1765 001a 7047     		bx	lr
 1766              	.L194:
 1767 001c 0020     		movs	r0, #0
 1768 001e 7047     		bx	lr
 1770              		.section	.text.timer_input_pwm_capture_config,"ax",%progbits
 1771              		.align	1
 1772              		.global	timer_input_pwm_capture_config
 1773              		.syntax unified
 1774              		.thumb
 1775              		.thumb_func
 1777              	timer_input_pwm_capture_config:
 1778              		@ args = 0, pretend = 0, frame = 0
 1779              		@ frame_needed = 0, uses_anonymous_args = 0
 1780 0000 F8B5     		push	{r3, r4, r5, r6, r7, lr}
 1781 0002 0446     		mov	r4, r0
 1782 0004 1546     		mov	r5, r2
 1783 0006 1388     		ldrh	r3, [r2]
 1784 0008 002B     		cmp	r3, #0
 1785 000a 52D1     		bne	.L200
 1786 000c 0227     		movs	r7, #2
 1787              	.L196:
 1788 000e 6B88     		ldrh	r3, [r5, #2]
 1789 0010 012B     		cmp	r3, #1
 1790 0012 50D0     		beq	.L203
 1791 0014 0126     		movs	r6, #1
 1792              	.L197:
 1793 0016 0029     		cmp	r1, #0
 1794 0018 4FD1     		bne	.L198
 1795 001a 236A     		ldr	r3, [r4, #32]
 1796 001c 23F00103 		bic	r3, r3, #1
 1797 0020 2362     		str	r3, [r4, #32]
 1798 0022 236A     		ldr	r3, [r4, #32]
 1799 0024 23F00A03 		bic	r3, r3, #10
 1800 0028 2362     		str	r3, [r4, #32]
 1801 002a 236A     		ldr	r3, [r4, #32]
 1802 002c 2A88     		ldrh	r2, [r5]
 1803 002e 1343     		orrs	r3, r3, r2
 1804 0030 2362     		str	r3, [r4, #32]
 1805 0032 A369     		ldr	r3, [r4, #24]
 1806 0034 23F00303 		bic	r3, r3, #3
 1807 0038 A361     		str	r3, [r4, #24]
 1808 003a A369     		ldr	r3, [r4, #24]
 1809 003c 6A88     		ldrh	r2, [r5, #2]
ARM GAS  /tmp/cceJv2Y0.s 			page 31


 1810 003e 1343     		orrs	r3, r3, r2
 1811 0040 A361     		str	r3, [r4, #24]
 1812 0042 A369     		ldr	r3, [r4, #24]
 1813 0044 23F0F003 		bic	r3, r3, #240
 1814 0048 A361     		str	r3, [r4, #24]
 1815 004a A369     		ldr	r3, [r4, #24]
 1816 004c EA88     		ldrh	r2, [r5, #6]
 1817 004e 43EA0213 		orr	r3, r3, r2, lsl #4
 1818 0052 A361     		str	r3, [r4, #24]
 1819 0054 236A     		ldr	r3, [r4, #32]
 1820 0056 43F00103 		orr	r3, r3, #1
 1821 005a 2362     		str	r3, [r4, #32]
 1822 005c AA88     		ldrh	r2, [r5, #4]
 1823 005e 2046     		mov	r0, r4
 1824 0060 FFF7FEFF 		bl	timer_channel_input_capture_prescaler_config
 1825 0064 236A     		ldr	r3, [r4, #32]
 1826 0066 23F01003 		bic	r3, r3, #16
 1827 006a 2362     		str	r3, [r4, #32]
 1828 006c 236A     		ldr	r3, [r4, #32]
 1829 006e 23F0A003 		bic	r3, r3, #160
 1830 0072 2362     		str	r3, [r4, #32]
 1831 0074 236A     		ldr	r3, [r4, #32]
 1832 0076 43EA0713 		orr	r3, r3, r7, lsl #4
 1833 007a 2362     		str	r3, [r4, #32]
 1834 007c A369     		ldr	r3, [r4, #24]
 1835 007e 23F44073 		bic	r3, r3, #768
 1836 0082 A361     		str	r3, [r4, #24]
 1837 0084 A369     		ldr	r3, [r4, #24]
 1838 0086 43EA0623 		orr	r3, r3, r6, lsl #8
 1839 008a A361     		str	r3, [r4, #24]
 1840 008c A369     		ldr	r3, [r4, #24]
 1841 008e 23F47043 		bic	r3, r3, #61440
 1842 0092 A361     		str	r3, [r4, #24]
 1843 0094 A369     		ldr	r3, [r4, #24]
 1844 0096 EA88     		ldrh	r2, [r5, #6]
 1845 0098 43EA0233 		orr	r3, r3, r2, lsl #12
 1846 009c A361     		str	r3, [r4, #24]
 1847 009e 236A     		ldr	r3, [r4, #32]
 1848 00a0 43F01003 		orr	r3, r3, #16
 1849 00a4 2362     		str	r3, [r4, #32]
 1850 00a6 AA88     		ldrh	r2, [r5, #4]
 1851 00a8 0121     		movs	r1, #1
 1852 00aa 2046     		mov	r0, r4
 1853 00ac FFF7FEFF 		bl	timer_channel_input_capture_prescaler_config
 1854              	.L195:
 1855 00b0 F8BD     		pop	{r3, r4, r5, r6, r7, pc}
 1856              	.L200:
 1857 00b2 0027     		movs	r7, #0
 1858 00b4 ABE7     		b	.L196
 1859              	.L203:
 1860 00b6 0226     		movs	r6, #2
 1861 00b8 ADE7     		b	.L197
 1862              	.L198:
 1863 00ba 236A     		ldr	r3, [r4, #32]
 1864 00bc 23F01003 		bic	r3, r3, #16
 1865 00c0 2362     		str	r3, [r4, #32]
 1866 00c2 236A     		ldr	r3, [r4, #32]
ARM GAS  /tmp/cceJv2Y0.s 			page 32


 1867 00c4 23F0A003 		bic	r3, r3, #160
 1868 00c8 2362     		str	r3, [r4, #32]
 1869 00ca 236A     		ldr	r3, [r4, #32]
 1870 00cc 2A88     		ldrh	r2, [r5]
 1871 00ce 43EA0213 		orr	r3, r3, r2, lsl #4
 1872 00d2 2362     		str	r3, [r4, #32]
 1873 00d4 A369     		ldr	r3, [r4, #24]
 1874 00d6 23F44073 		bic	r3, r3, #768
 1875 00da A361     		str	r3, [r4, #24]
 1876 00dc A369     		ldr	r3, [r4, #24]
 1877 00de 6A88     		ldrh	r2, [r5, #2]
 1878 00e0 43EA0223 		orr	r3, r3, r2, lsl #8
 1879 00e4 A361     		str	r3, [r4, #24]
 1880 00e6 A369     		ldr	r3, [r4, #24]
 1881 00e8 23F47043 		bic	r3, r3, #61440
 1882 00ec A361     		str	r3, [r4, #24]
 1883 00ee A369     		ldr	r3, [r4, #24]
 1884 00f0 EA88     		ldrh	r2, [r5, #6]
 1885 00f2 43EA0233 		orr	r3, r3, r2, lsl #12
 1886 00f6 A361     		str	r3, [r4, #24]
 1887 00f8 236A     		ldr	r3, [r4, #32]
 1888 00fa 43F01003 		orr	r3, r3, #16
 1889 00fe 2362     		str	r3, [r4, #32]
 1890 0100 AA88     		ldrh	r2, [r5, #4]
 1891 0102 0121     		movs	r1, #1
 1892 0104 2046     		mov	r0, r4
 1893 0106 FFF7FEFF 		bl	timer_channel_input_capture_prescaler_config
 1894 010a 236A     		ldr	r3, [r4, #32]
 1895 010c 23F00103 		bic	r3, r3, #1
 1896 0110 2362     		str	r3, [r4, #32]
 1897 0112 236A     		ldr	r3, [r4, #32]
 1898 0114 23F00A03 		bic	r3, r3, #10
 1899 0118 2362     		str	r3, [r4, #32]
 1900 011a 236A     		ldr	r3, [r4, #32]
 1901 011c 3B43     		orrs	r3, r3, r7
 1902 011e 2362     		str	r3, [r4, #32]
 1903 0120 A369     		ldr	r3, [r4, #24]
 1904 0122 23F00303 		bic	r3, r3, #3
 1905 0126 A361     		str	r3, [r4, #24]
 1906 0128 A369     		ldr	r3, [r4, #24]
 1907 012a 3343     		orrs	r3, r3, r6
 1908 012c A361     		str	r3, [r4, #24]
 1909 012e A369     		ldr	r3, [r4, #24]
 1910 0130 23F0F003 		bic	r3, r3, #240
 1911 0134 A361     		str	r3, [r4, #24]
 1912 0136 A369     		ldr	r3, [r4, #24]
 1913 0138 EA88     		ldrh	r2, [r5, #6]
 1914 013a 43EA0213 		orr	r3, r3, r2, lsl #4
 1915 013e A361     		str	r3, [r4, #24]
 1916 0140 236A     		ldr	r3, [r4, #32]
 1917 0142 43F00103 		orr	r3, r3, #1
 1918 0146 2362     		str	r3, [r4, #32]
 1919 0148 AA88     		ldrh	r2, [r5, #4]
 1920 014a 0021     		movs	r1, #0
 1921 014c 2046     		mov	r0, r4
 1922 014e FFF7FEFF 		bl	timer_channel_input_capture_prescaler_config
 1923 0152 ADE7     		b	.L195
ARM GAS  /tmp/cceJv2Y0.s 			page 33


 1925              		.section	.text.timer_hall_mode_config,"ax",%progbits
 1926              		.align	1
 1927              		.global	timer_hall_mode_config
 1928              		.syntax unified
 1929              		.thumb
 1930              		.thumb_func
 1932              	timer_hall_mode_config:
 1933              		@ args = 0, pretend = 0, frame = 0
 1934              		@ frame_needed = 0, uses_anonymous_args = 0
 1935              		@ link register save eliminated.
 1936 0000 21B9     		cbnz	r1, .L205
 1937 0002 4368     		ldr	r3, [r0, #4]
 1938 0004 43F08003 		orr	r3, r3, #128
 1939 0008 4360     		str	r3, [r0, #4]
 1940 000a 7047     		bx	lr
 1941              	.L205:
 1942 000c 0129     		cmp	r1, #1
 1943 000e 00D0     		beq	.L207
 1944              	.L204:
 1945 0010 7047     		bx	lr
 1946              	.L207:
 1947 0012 4368     		ldr	r3, [r0, #4]
 1948 0014 23F08003 		bic	r3, r3, #128
 1949 0018 4360     		str	r3, [r0, #4]
 1950 001a F9E7     		b	.L204
 1952              		.section	.text.timer_input_trigger_source_select,"ax",%progbits
 1953              		.align	1
 1954              		.global	timer_input_trigger_source_select
 1955              		.syntax unified
 1956              		.thumb
 1957              		.thumb_func
 1959              	timer_input_trigger_source_select:
 1960              		@ args = 0, pretend = 0, frame = 0
 1961              		@ frame_needed = 0, uses_anonymous_args = 0
 1962              		@ link register save eliminated.
 1963 0000 8368     		ldr	r3, [r0, #8]
 1964 0002 23F07003 		bic	r3, r3, #112
 1965 0006 8360     		str	r3, [r0, #8]
 1966 0008 8368     		ldr	r3, [r0, #8]
 1967 000a 0B43     		orrs	r3, r3, r1
 1968 000c 8360     		str	r3, [r0, #8]
 1969 000e 7047     		bx	lr
 1971              		.section	.text.timer_master_output_trigger_source_select,"ax",%progbits
 1972              		.align	1
 1973              		.global	timer_master_output_trigger_source_select
 1974              		.syntax unified
 1975              		.thumb
 1976              		.thumb_func
 1978              	timer_master_output_trigger_source_select:
 1979              		@ args = 0, pretend = 0, frame = 0
 1980              		@ frame_needed = 0, uses_anonymous_args = 0
 1981              		@ link register save eliminated.
 1982 0000 4368     		ldr	r3, [r0, #4]
 1983 0002 23F07003 		bic	r3, r3, #112
 1984 0006 4360     		str	r3, [r0, #4]
 1985 0008 4368     		ldr	r3, [r0, #4]
 1986 000a 0B43     		orrs	r3, r3, r1
ARM GAS  /tmp/cceJv2Y0.s 			page 34


 1987 000c 4360     		str	r3, [r0, #4]
 1988 000e 7047     		bx	lr
 1990              		.section	.text.timer_slave_mode_select,"ax",%progbits
 1991              		.align	1
 1992              		.global	timer_slave_mode_select
 1993              		.syntax unified
 1994              		.thumb
 1995              		.thumb_func
 1997              	timer_slave_mode_select:
 1998              		@ args = 0, pretend = 0, frame = 0
 1999              		@ frame_needed = 0, uses_anonymous_args = 0
 2000              		@ link register save eliminated.
 2001 0000 8368     		ldr	r3, [r0, #8]
 2002 0002 23F00703 		bic	r3, r3, #7
 2003 0006 8360     		str	r3, [r0, #8]
 2004 0008 8368     		ldr	r3, [r0, #8]
 2005 000a 0B43     		orrs	r3, r3, r1
 2006 000c 8360     		str	r3, [r0, #8]
 2007 000e 7047     		bx	lr
 2009              		.section	.text.timer_master_slave_mode_config,"ax",%progbits
 2010              		.align	1
 2011              		.global	timer_master_slave_mode_config
 2012              		.syntax unified
 2013              		.thumb
 2014              		.thumb_func
 2016              	timer_master_slave_mode_config:
 2017              		@ args = 0, pretend = 0, frame = 0
 2018              		@ frame_needed = 0, uses_anonymous_args = 0
 2019              		@ link register save eliminated.
 2020 0000 21B9     		cbnz	r1, .L212
 2021 0002 8368     		ldr	r3, [r0, #8]
 2022 0004 43F08003 		orr	r3, r3, #128
 2023 0008 8360     		str	r3, [r0, #8]
 2024 000a 7047     		bx	lr
 2025              	.L212:
 2026 000c 0129     		cmp	r1, #1
 2027 000e 00D0     		beq	.L214
 2028              	.L211:
 2029 0010 7047     		bx	lr
 2030              	.L214:
 2031 0012 8368     		ldr	r3, [r0, #8]
 2032 0014 23F08003 		bic	r3, r3, #128
 2033 0018 8360     		str	r3, [r0, #8]
 2034 001a F9E7     		b	.L211
 2036              		.section	.text.timer_external_trigger_config,"ax",%progbits
 2037              		.align	1
 2038              		.global	timer_external_trigger_config
 2039              		.syntax unified
 2040              		.thumb
 2041              		.thumb_func
 2043              	timer_external_trigger_config:
 2044              		@ args = 0, pretend = 0, frame = 0
 2045              		@ frame_needed = 0, uses_anonymous_args = 0
 2046              		@ link register save eliminated.
 2047 0000 10B4     		push	{r4}
 2048 0002 8468     		ldr	r4, [r0, #8]
 2049 0004 24F43F44 		bic	r4, r4, #48896
ARM GAS  /tmp/cceJv2Y0.s 			page 35


 2050 0008 8460     		str	r4, [r0, #8]
 2051 000a 8468     		ldr	r4, [r0, #8]
 2052 000c 1143     		orrs	r1, r1, r2
 2053 000e 0C43     		orrs	r4, r4, r1
 2054 0010 8460     		str	r4, [r0, #8]
 2055 0012 8268     		ldr	r2, [r0, #8]
 2056 0014 42EA0322 		orr	r2, r2, r3, lsl #8
 2057 0018 8260     		str	r2, [r0, #8]
 2058 001a 10BC     		pop	{r4}
 2059 001c 7047     		bx	lr
 2061              		.section	.text.timer_quadrature_decoder_mode_config,"ax",%progbits
 2062              		.align	1
 2063              		.global	timer_quadrature_decoder_mode_config
 2064              		.syntax unified
 2065              		.thumb
 2066              		.thumb_func
 2068              	timer_quadrature_decoder_mode_config:
 2069              		@ args = 0, pretend = 0, frame = 0
 2070              		@ frame_needed = 0, uses_anonymous_args = 0
 2071              		@ link register save eliminated.
 2072 0000 10B4     		push	{r4}
 2073 0002 8468     		ldr	r4, [r0, #8]
 2074 0004 24F00704 		bic	r4, r4, #7
 2075 0008 8460     		str	r4, [r0, #8]
 2076 000a 8468     		ldr	r4, [r0, #8]
 2077 000c 0C43     		orrs	r4, r4, r1
 2078 000e 8460     		str	r4, [r0, #8]
 2079 0010 8169     		ldr	r1, [r0, #24]
 2080 0012 21F44071 		bic	r1, r1, #768
 2081 0016 21F00301 		bic	r1, r1, #3
 2082 001a 8161     		str	r1, [r0, #24]
 2083 001c 8169     		ldr	r1, [r0, #24]
 2084 001e 41F48071 		orr	r1, r1, #256
 2085 0022 41F00101 		orr	r1, r1, #1
 2086 0026 8161     		str	r1, [r0, #24]
 2087 0028 016A     		ldr	r1, [r0, #32]
 2088 002a 21F00A01 		bic	r1, r1, #10
 2089 002e 0162     		str	r1, [r0, #32]
 2090 0030 016A     		ldr	r1, [r0, #32]
 2091 0032 21F0A001 		bic	r1, r1, #160
 2092 0036 0162     		str	r1, [r0, #32]
 2093 0038 016A     		ldr	r1, [r0, #32]
 2094 003a 42EA0312 		orr	r2, r2, r3, lsl #4
 2095 003e 1143     		orrs	r1, r1, r2
 2096 0040 0162     		str	r1, [r0, #32]
 2097 0042 10BC     		pop	{r4}
 2098 0044 7047     		bx	lr
 2100              		.section	.text.timer_internal_clock_config,"ax",%progbits
 2101              		.align	1
 2102              		.global	timer_internal_clock_config
 2103              		.syntax unified
 2104              		.thumb
 2105              		.thumb_func
 2107              	timer_internal_clock_config:
 2108              		@ args = 0, pretend = 0, frame = 0
 2109              		@ frame_needed = 0, uses_anonymous_args = 0
 2110              		@ link register save eliminated.
ARM GAS  /tmp/cceJv2Y0.s 			page 36


 2111 0000 8368     		ldr	r3, [r0, #8]
 2112 0002 23F00703 		bic	r3, r3, #7
 2113 0006 8360     		str	r3, [r0, #8]
 2114 0008 7047     		bx	lr
 2116              		.section	.text.timer_internal_trigger_as_external_clock_config,"ax",%progbits
 2117              		.align	1
 2118              		.global	timer_internal_trigger_as_external_clock_config
 2119              		.syntax unified
 2120              		.thumb
 2121              		.thumb_func
 2123              	timer_internal_trigger_as_external_clock_config:
 2124              		@ args = 0, pretend = 0, frame = 0
 2125              		@ frame_needed = 0, uses_anonymous_args = 0
 2126 0000 10B5     		push	{r4, lr}
 2127 0002 0446     		mov	r4, r0
 2128 0004 FFF7FEFF 		bl	timer_input_trigger_source_select
 2129 0008 A368     		ldr	r3, [r4, #8]
 2130 000a 23F00703 		bic	r3, r3, #7
 2131 000e A360     		str	r3, [r4, #8]
 2132 0010 A368     		ldr	r3, [r4, #8]
 2133 0012 43F00703 		orr	r3, r3, #7
 2134 0016 A360     		str	r3, [r4, #8]
 2135 0018 10BD     		pop	{r4, pc}
 2137              		.section	.text.timer_external_trigger_as_external_clock_config,"ax",%progbits
 2138              		.align	1
 2139              		.global	timer_external_trigger_as_external_clock_config
 2140              		.syntax unified
 2141              		.thumb
 2142              		.thumb_func
 2144              	timer_external_trigger_as_external_clock_config:
 2145              		@ args = 0, pretend = 0, frame = 0
 2146              		@ frame_needed = 0, uses_anonymous_args = 0
 2147 0000 10B5     		push	{r4, lr}
 2148 0002 0446     		mov	r4, r0
 2149 0004 6029     		cmp	r1, #96
 2150 0006 2AD0     		beq	.L226
 2151 0008 006A     		ldr	r0, [r0, #32]
 2152 000a 20F00100 		bic	r0, r0, #1
 2153 000e 2062     		str	r0, [r4, #32]
 2154 0010 206A     		ldr	r0, [r4, #32]
 2155 0012 20F00A00 		bic	r0, r0, #10
 2156 0016 2062     		str	r0, [r4, #32]
 2157 0018 206A     		ldr	r0, [r4, #32]
 2158 001a 0243     		orrs	r2, r2, r0
 2159 001c 2262     		str	r2, [r4, #32]
 2160 001e A269     		ldr	r2, [r4, #24]
 2161 0020 22F00302 		bic	r2, r2, #3
 2162 0024 A261     		str	r2, [r4, #24]
 2163 0026 A269     		ldr	r2, [r4, #24]
 2164 0028 42F00102 		orr	r2, r2, #1
 2165 002c A261     		str	r2, [r4, #24]
 2166 002e A269     		ldr	r2, [r4, #24]
 2167 0030 22F0F002 		bic	r2, r2, #240
 2168 0034 A261     		str	r2, [r4, #24]
 2169 0036 A269     		ldr	r2, [r4, #24]
 2170 0038 42EA0313 		orr	r3, r2, r3, lsl #4
 2171 003c A361     		str	r3, [r4, #24]
ARM GAS  /tmp/cceJv2Y0.s 			page 37


 2172 003e 236A     		ldr	r3, [r4, #32]
 2173 0040 43F00103 		orr	r3, r3, #1
 2174 0044 2362     		str	r3, [r4, #32]
 2175              	.L224:
 2176 0046 2046     		mov	r0, r4
 2177 0048 FFF7FEFF 		bl	timer_input_trigger_source_select
 2178 004c A368     		ldr	r3, [r4, #8]
 2179 004e 23F00703 		bic	r3, r3, #7
 2180 0052 A360     		str	r3, [r4, #8]
 2181 0054 A368     		ldr	r3, [r4, #8]
 2182 0056 43F00703 		orr	r3, r3, #7
 2183 005a A360     		str	r3, [r4, #8]
 2184 005c 10BD     		pop	{r4, pc}
 2185              	.L226:
 2186 005e 006A     		ldr	r0, [r0, #32]
 2187 0060 20F01000 		bic	r0, r0, #16
 2188 0064 2062     		str	r0, [r4, #32]
 2189 0066 206A     		ldr	r0, [r4, #32]
 2190 0068 20F0A000 		bic	r0, r0, #160
 2191 006c 2062     		str	r0, [r4, #32]
 2192 006e 206A     		ldr	r0, [r4, #32]
 2193 0070 40EA0212 		orr	r2, r0, r2, lsl #4
 2194 0074 2262     		str	r2, [r4, #32]
 2195 0076 A269     		ldr	r2, [r4, #24]
 2196 0078 22F44072 		bic	r2, r2, #768
 2197 007c A261     		str	r2, [r4, #24]
 2198 007e A269     		ldr	r2, [r4, #24]
 2199 0080 42F48072 		orr	r2, r2, #256
 2200 0084 A261     		str	r2, [r4, #24]
 2201 0086 A269     		ldr	r2, [r4, #24]
 2202 0088 22F47042 		bic	r2, r2, #61440
 2203 008c A261     		str	r2, [r4, #24]
 2204 008e A269     		ldr	r2, [r4, #24]
 2205 0090 42EA0333 		orr	r3, r2, r3, lsl #12
 2206 0094 A361     		str	r3, [r4, #24]
 2207 0096 236A     		ldr	r3, [r4, #32]
 2208 0098 43F01003 		orr	r3, r3, #16
 2209 009c 2362     		str	r3, [r4, #32]
 2210 009e D2E7     		b	.L224
 2212              		.section	.text.timer_external_clock_mode0_config,"ax",%progbits
 2213              		.align	1
 2214              		.global	timer_external_clock_mode0_config
 2215              		.syntax unified
 2216              		.thumb
 2217              		.thumb_func
 2219              	timer_external_clock_mode0_config:
 2220              		@ args = 0, pretend = 0, frame = 0
 2221              		@ frame_needed = 0, uses_anonymous_args = 0
 2222 0000 10B5     		push	{r4, lr}
 2223 0002 0446     		mov	r4, r0
 2224 0004 FFF7FEFF 		bl	timer_external_trigger_config
 2225 0008 A368     		ldr	r3, [r4, #8]
 2226 000a 23F07703 		bic	r3, r3, #119
 2227 000e A360     		str	r3, [r4, #8]
 2228 0010 A368     		ldr	r3, [r4, #8]
 2229 0012 43F07703 		orr	r3, r3, #119
 2230 0016 A360     		str	r3, [r4, #8]
ARM GAS  /tmp/cceJv2Y0.s 			page 38


 2231 0018 10BD     		pop	{r4, pc}
 2233              		.section	.text.timer_external_clock_mode1_config,"ax",%progbits
 2234              		.align	1
 2235              		.global	timer_external_clock_mode1_config
 2236              		.syntax unified
 2237              		.thumb
 2238              		.thumb_func
 2240              	timer_external_clock_mode1_config:
 2241              		@ args = 0, pretend = 0, frame = 0
 2242              		@ frame_needed = 0, uses_anonymous_args = 0
 2243 0000 10B5     		push	{r4, lr}
 2244 0002 0446     		mov	r4, r0
 2245 0004 FFF7FEFF 		bl	timer_external_trigger_config
 2246 0008 A368     		ldr	r3, [r4, #8]
 2247 000a 43F48043 		orr	r3, r3, #16384
 2248 000e A360     		str	r3, [r4, #8]
 2249 0010 10BD     		pop	{r4, pc}
 2251              		.section	.text.timer_external_clock_mode1_disable,"ax",%progbits
 2252              		.align	1
 2253              		.global	timer_external_clock_mode1_disable
 2254              		.syntax unified
 2255              		.thumb
 2256              		.thumb_func
 2258              	timer_external_clock_mode1_disable:
 2259              		@ args = 0, pretend = 0, frame = 0
 2260              		@ frame_needed = 0, uses_anonymous_args = 0
 2261              		@ link register save eliminated.
 2262 0000 8368     		ldr	r3, [r0, #8]
 2263 0002 23F48043 		bic	r3, r3, #16384
 2264 0006 8360     		str	r3, [r0, #8]
 2265 0008 7047     		bx	lr
 2267              		.section	.text.timer_channel_remap_config,"ax",%progbits
 2268              		.align	1
 2269              		.global	timer_channel_remap_config
 2270              		.syntax unified
 2271              		.thumb
 2272              		.thumb_func
 2274              	timer_channel_remap_config:
 2275              		@ args = 0, pretend = 0, frame = 0
 2276              		@ frame_needed = 0, uses_anonymous_args = 0
 2277              		@ link register save eliminated.
 2278 0000 0165     		str	r1, [r0, #80]
 2279 0002 7047     		bx	lr
 2281              		.section	.text.timer_write_chxval_register_config,"ax",%progbits
 2282              		.align	1
 2283              		.global	timer_write_chxval_register_config
 2284              		.syntax unified
 2285              		.thumb
 2286              		.thumb_func
 2288              	timer_write_chxval_register_config:
 2289              		@ args = 0, pretend = 0, frame = 0
 2290              		@ frame_needed = 0, uses_anonymous_args = 0
 2291              		@ link register save eliminated.
 2292 0000 0229     		cmp	r1, #2
 2293 0002 07D0     		beq	.L236
 2294 0004 29B9     		cbnz	r1, .L233
 2295 0006 D0F8FC30 		ldr	r3, [r0, #252]
ARM GAS  /tmp/cceJv2Y0.s 			page 39


 2296 000a 23F00203 		bic	r3, r3, #2
 2297 000e C0F8FC30 		str	r3, [r0, #252]
 2298              	.L233:
 2299 0012 7047     		bx	lr
 2300              	.L236:
 2301 0014 D0F8FC30 		ldr	r3, [r0, #252]
 2302 0018 43F00203 		orr	r3, r3, #2
 2303 001c C0F8FC30 		str	r3, [r0, #252]
 2304 0020 7047     		bx	lr
 2306              		.section	.text.timer_output_value_selection_config,"ax",%progbits
 2307              		.align	1
 2308              		.global	timer_output_value_selection_config
 2309              		.syntax unified
 2310              		.thumb
 2311              		.thumb_func
 2313              	timer_output_value_selection_config:
 2314              		@ args = 0, pretend = 0, frame = 0
 2315              		@ frame_needed = 0, uses_anonymous_args = 0
 2316              		@ link register save eliminated.
 2317 0000 0129     		cmp	r1, #1
 2318 0002 07D0     		beq	.L240
 2319 0004 29B9     		cbnz	r1, .L237
 2320 0006 D0F8FC30 		ldr	r3, [r0, #252]
 2321 000a 23F00103 		bic	r3, r3, #1
 2322 000e C0F8FC30 		str	r3, [r0, #252]
 2323              	.L237:
 2324 0012 7047     		bx	lr
 2325              	.L240:
 2326 0014 D0F8FC30 		ldr	r3, [r0, #252]
 2327 0018 43F00103 		orr	r3, r3, #1
 2328 001c C0F8FC30 		str	r3, [r0, #252]
 2329 0020 7047     		bx	lr
 2331              		.section	.text.timer_flag_get,"ax",%progbits
 2332              		.align	1
 2333              		.global	timer_flag_get
 2334              		.syntax unified
 2335              		.thumb
 2336              		.thumb_func
 2338              	timer_flag_get:
 2339              		@ args = 0, pretend = 0, frame = 0
 2340              		@ frame_needed = 0, uses_anonymous_args = 0
 2341              		@ link register save eliminated.
 2342 0000 0369     		ldr	r3, [r0, #16]
 2343 0002 0B42     		tst	r3, r1
 2344 0004 01D0     		beq	.L243
 2345 0006 0120     		movs	r0, #1
 2346 0008 7047     		bx	lr
 2347              	.L243:
 2348 000a 0020     		movs	r0, #0
 2349 000c 7047     		bx	lr
 2351              		.section	.text.timer_flag_clear,"ax",%progbits
 2352              		.align	1
 2353              		.global	timer_flag_clear
 2354              		.syntax unified
 2355              		.thumb
 2356              		.thumb_func
 2358              	timer_flag_clear:
ARM GAS  /tmp/cceJv2Y0.s 			page 40


 2359              		@ args = 0, pretend = 0, frame = 0
 2360              		@ frame_needed = 0, uses_anonymous_args = 0
 2361              		@ link register save eliminated.
 2362 0000 C943     		mvns	r1, r1
 2363 0002 0161     		str	r1, [r0, #16]
 2364 0004 7047     		bx	lr
 2366              		.section	.text.timer_interrupt_enable,"ax",%progbits
 2367              		.align	1
 2368              		.global	timer_interrupt_enable
 2369              		.syntax unified
 2370              		.thumb
 2371              		.thumb_func
 2373              	timer_interrupt_enable:
 2374              		@ args = 0, pretend = 0, frame = 0
 2375              		@ frame_needed = 0, uses_anonymous_args = 0
 2376              		@ link register save eliminated.
 2377 0000 C368     		ldr	r3, [r0, #12]
 2378 0002 0B43     		orrs	r3, r3, r1
 2379 0004 C360     		str	r3, [r0, #12]
 2380 0006 7047     		bx	lr
 2382              		.section	.text.timer_interrupt_disable,"ax",%progbits
 2383              		.align	1
 2384              		.global	timer_interrupt_disable
 2385              		.syntax unified
 2386              		.thumb
 2387              		.thumb_func
 2389              	timer_interrupt_disable:
 2390              		@ args = 0, pretend = 0, frame = 0
 2391              		@ frame_needed = 0, uses_anonymous_args = 0
 2392              		@ link register save eliminated.
 2393 0000 C368     		ldr	r3, [r0, #12]
 2394 0002 23EA0103 		bic	r3, r3, r1
 2395 0006 C360     		str	r3, [r0, #12]
 2396 0008 7047     		bx	lr
 2398              		.section	.text.timer_interrupt_flag_get,"ax",%progbits
 2399              		.align	1
 2400              		.global	timer_interrupt_flag_get
 2401              		.syntax unified
 2402              		.thumb
 2403              		.thumb_func
 2405              	timer_interrupt_flag_get:
 2406              		@ args = 0, pretend = 0, frame = 0
 2407              		@ frame_needed = 0, uses_anonymous_args = 0
 2408              		@ link register save eliminated.
 2409 0000 C368     		ldr	r3, [r0, #12]
 2410 0002 0B40     		ands	r3, r3, r1
 2411 0004 0269     		ldr	r2, [r0, #16]
 2412 0006 0A42     		tst	r2, r1
 2413 0008 02D0     		beq	.L249
 2414 000a 1BB9     		cbnz	r3, .L250
 2415 000c 0020     		movs	r0, #0
 2416 000e 7047     		bx	lr
 2417              	.L249:
 2418 0010 0020     		movs	r0, #0
 2419 0012 7047     		bx	lr
 2420              	.L250:
 2421 0014 0120     		movs	r0, #1
ARM GAS  /tmp/cceJv2Y0.s 			page 41


 2422 0016 7047     		bx	lr
 2424              		.section	.text.timer_interrupt_flag_clear,"ax",%progbits
 2425              		.align	1
 2426              		.global	timer_interrupt_flag_clear
 2427              		.syntax unified
 2428              		.thumb
 2429              		.thumb_func
 2431              	timer_interrupt_flag_clear:
 2432              		@ args = 0, pretend = 0, frame = 0
 2433              		@ frame_needed = 0, uses_anonymous_args = 0
 2434              		@ link register save eliminated.
 2435 0000 C943     		mvns	r1, r1
 2436 0002 0161     		str	r1, [r0, #16]
 2437 0004 7047     		bx	lr
 2439              		.ident	"GCC: (xPack GNU Arm Embedded GCC x86_64) 12.2.1 20221205"
ARM GAS  /tmp/cceJv2Y0.s 			page 42

