ARM GAS  /tmp/ccd1m0xE.s 			page 1


   1              		.cpu cortex-m4
   2              		.arch armv7e-m
   3              		.fpu softvfp
   4              		.eabi_attribute 20, 1
   5              		.eabi_attribute 21, 1
   6              		.eabi_attribute 23, 3
   7              		.eabi_attribute 24, 1
   8              		.eabi_attribute 25, 1
   9              		.eabi_attribute 26, 1
  10              		.eabi_attribute 30, 1
  11              		.eabi_attribute 34, 1
  12              		.eabi_attribute 18, 4
  13              		.file	"gd32f4xx_spi.c"
  14              		.text
  15              		.section	.text.spi_i2s_deinit,"ax",%progbits
  16              		.align	1
  17              		.global	spi_i2s_deinit
  18              		.syntax unified
  19              		.thumb
  20              		.thumb_func
  22              	spi_i2s_deinit:
  23              		@ args = 0, pretend = 0, frame = 0
  24              		@ frame_needed = 0, uses_anonymous_args = 0
  25 0000 08B5     		push	{r3, lr}
  26 0002 264B     		ldr	r3, .L12
  27 0004 9842     		cmp	r0, r3
  28 0006 37D0     		beq	.L2
  29 0008 1DD8     		bhi	.L3
  30 000a A3F57843 		sub	r3, r3, #63488
  31 000e 9842     		cmp	r0, r3
  32 0010 29D0     		beq	.L4
  33 0012 03F57443 		add	r3, r3, #62464
  34 0016 9842     		cmp	r0, r3
  35 0018 08D1     		bne	.L11
  36 001a 40F60C10 		movw	r0, #2316
  37 001e FFF7FEFF 		bl	rcu_periph_reset_enable
  38 0022 40F60C10 		movw	r0, #2316
  39 0026 FFF7FEFF 		bl	rcu_periph_reset_disable
  40              	.L1:
  41 002a 08BD     		pop	{r3, pc}
  42              	.L11:
  43 002c A3F57843 		sub	r3, r3, #63488
  44 0030 9842     		cmp	r0, r3
  45 0032 FAD1     		bne	.L1
  46 0034 40F60E00 		movw	r0, #2062
  47 0038 FFF7FEFF 		bl	rcu_periph_reset_enable
  48 003c 40F60E00 		movw	r0, #2062
  49 0040 FFF7FEFF 		bl	rcu_periph_reset_disable
  50 0044 F1E7     		b	.L1
  51              	.L3:
  52 0046 164B     		ldr	r3, .L12+4
  53 0048 9842     		cmp	r0, r3
  54 004a 1ED0     		beq	.L8
  55 004c 03F58063 		add	r3, r3, #1024
  56 0050 9842     		cmp	r0, r3
  57 0052 EAD1     		bne	.L1
  58 0054 40F61510 		movw	r0, #2325
ARM GAS  /tmp/ccd1m0xE.s 			page 2


  59 0058 FFF7FEFF 		bl	rcu_periph_reset_enable
  60 005c 40F61510 		movw	r0, #2325
  61 0060 FFF7FEFF 		bl	rcu_periph_reset_disable
  62 0064 E1E7     		b	.L1
  63              	.L4:
  64 0066 40F60F00 		movw	r0, #2063
  65 006a FFF7FEFF 		bl	rcu_periph_reset_enable
  66 006e 40F60F00 		movw	r0, #2063
  67 0072 FFF7FEFF 		bl	rcu_periph_reset_disable
  68 0076 D8E7     		b	.L1
  69              	.L2:
  70 0078 40F60D10 		movw	r0, #2317
  71 007c FFF7FEFF 		bl	rcu_periph_reset_enable
  72 0080 40F60D10 		movw	r0, #2317
  73 0084 FFF7FEFF 		bl	rcu_periph_reset_disable
  74 0088 CFE7     		b	.L1
  75              	.L8:
  76 008a 40F61410 		movw	r0, #2324
  77 008e FFF7FEFF 		bl	rcu_periph_reset_enable
  78 0092 40F61410 		movw	r0, #2324
  79 0096 FFF7FEFF 		bl	rcu_periph_reset_disable
  80 009a C6E7     		b	.L1
  81              	.L13:
  82              		.align	2
  83              	.L12:
  84 009c 00340140 		.word	1073820672
  85 00a0 00500140 		.word	1073827840
  87              		.section	.text.spi_struct_para_init,"ax",%progbits
  88              		.align	1
  89              		.global	spi_struct_para_init
  90              		.syntax unified
  91              		.thumb
  92              		.thumb_func
  94              	spi_struct_para_init:
  95              		@ args = 0, pretend = 0, frame = 0
  96              		@ frame_needed = 0, uses_anonymous_args = 0
  97              		@ link register save eliminated.
  98 0000 0023     		movs	r3, #0
  99 0002 0360     		str	r3, [r0]
 100 0004 4360     		str	r3, [r0, #4]
 101 0006 8360     		str	r3, [r0, #8]
 102 0008 C360     		str	r3, [r0, #12]
 103 000a 4361     		str	r3, [r0, #20]
 104 000c 8361     		str	r3, [r0, #24]
 105 000e 0361     		str	r3, [r0, #16]
 106 0010 7047     		bx	lr
 108              		.section	.text.spi_init,"ax",%progbits
 109              		.align	1
 110              		.global	spi_init
 111              		.syntax unified
 112              		.thumb
 113              		.thumb_func
 115              	spi_init:
 116              		@ args = 0, pretend = 0, frame = 0
 117              		@ frame_needed = 0, uses_anonymous_args = 0
 118              		@ link register save eliminated.
 119 0000 0268     		ldr	r2, [r0]
ARM GAS  /tmp/ccd1m0xE.s 			page 3


 120 0002 02F44152 		and	r2, r2, #12352
 121 0006 0B68     		ldr	r3, [r1]
 122 0008 1A43     		orrs	r2, r2, r3
 123 000a 4B68     		ldr	r3, [r1, #4]
 124 000c 1A43     		orrs	r2, r2, r3
 125 000e 8B68     		ldr	r3, [r1, #8]
 126 0010 1A43     		orrs	r2, r2, r3
 127 0012 CB68     		ldr	r3, [r1, #12]
 128 0014 1A43     		orrs	r2, r2, r3
 129 0016 0B69     		ldr	r3, [r1, #16]
 130 0018 1A43     		orrs	r2, r2, r3
 131 001a 4B69     		ldr	r3, [r1, #20]
 132 001c 1A43     		orrs	r2, r2, r3
 133 001e 8B69     		ldr	r3, [r1, #24]
 134 0020 1343     		orrs	r3, r3, r2
 135 0022 0360     		str	r3, [r0]
 136 0024 C369     		ldr	r3, [r0, #28]
 137 0026 23F40063 		bic	r3, r3, #2048
 138 002a C361     		str	r3, [r0, #28]
 139 002c 7047     		bx	lr
 141              		.section	.text.spi_enable,"ax",%progbits
 142              		.align	1
 143              		.global	spi_enable
 144              		.syntax unified
 145              		.thumb
 146              		.thumb_func
 148              	spi_enable:
 149              		@ args = 0, pretend = 0, frame = 0
 150              		@ frame_needed = 0, uses_anonymous_args = 0
 151              		@ link register save eliminated.
 152 0000 0368     		ldr	r3, [r0]
 153 0002 43F04003 		orr	r3, r3, #64
 154 0006 0360     		str	r3, [r0]
 155 0008 7047     		bx	lr
 157              		.section	.text.spi_disable,"ax",%progbits
 158              		.align	1
 159              		.global	spi_disable
 160              		.syntax unified
 161              		.thumb
 162              		.thumb_func
 164              	spi_disable:
 165              		@ args = 0, pretend = 0, frame = 0
 166              		@ frame_needed = 0, uses_anonymous_args = 0
 167              		@ link register save eliminated.
 168 0000 0368     		ldr	r3, [r0]
 169 0002 23F04003 		bic	r3, r3, #64
 170 0006 0360     		str	r3, [r0]
 171 0008 7047     		bx	lr
 173              		.section	.text.i2s_init,"ax",%progbits
 174              		.align	1
 175              		.global	i2s_init
 176              		.syntax unified
 177              		.thumb
 178              		.thumb_func
 180              	i2s_init:
 181              		@ args = 0, pretend = 0, frame = 0
 182              		@ frame_needed = 0, uses_anonymous_args = 0
ARM GAS  /tmp/ccd1m0xE.s 			page 4


 183              		@ link register save eliminated.
 184 0000 10B4     		push	{r4}
 185 0002 C469     		ldr	r4, [r0, #28]
 186 0004 4FF2470C 		movw	ip, #61511
 187 0008 04EA0C0C 		and	ip, r4, ip
 188 000c 4CF4006C 		orr	ip, ip, #2048
 189 0010 4CEA010C 		orr	ip, ip, r1
 190 0014 4CEA020C 		orr	ip, ip, r2
 191 0018 4CEA0303 		orr	r3, ip, r3
 192 001c C361     		str	r3, [r0, #28]
 193 001e 10BC     		pop	{r4}
 194 0020 7047     		bx	lr
 196              		.section	.text.i2s_psc_config,"ax",%progbits
 197              		.align	1
 198              		.global	i2s_psc_config
 199              		.syntax unified
 200              		.thumb
 201              		.thumb_func
 203              	i2s_psc_config:
 204              		@ args = 0, pretend = 0, frame = 0
 205              		@ frame_needed = 0, uses_anonymous_args = 0
 206 0000 F8B5     		push	{r3, r4, r5, r6, r7, lr}
 207 0002 0546     		mov	r5, r0
 208 0004 0C46     		mov	r4, r1
 209 0006 1646     		mov	r6, r2
 210 0008 1F46     		mov	r7, r3
 211 000a 0223     		movs	r3, #2
 212 000c 0362     		str	r3, [r0, #32]
 213 000e 1020     		movs	r0, #16
 214 0010 FFF7FEFF 		bl	rcu_osci_on
 215 0014 1020     		movs	r0, #16
 216 0016 FFF7FEFF 		bl	rcu_osci_stab_wait
 217 001a 1A20     		movs	r0, #26
 218 001c FFF7FEFF 		bl	rcu_osci_on
 219 0020 1A20     		movs	r0, #26
 220 0022 FFF7FEFF 		bl	rcu_osci_stab_wait
 221 0026 0020     		movs	r0, #0
 222 0028 FFF7FEFF 		bl	rcu_i2s_clock_config
 223 002c 294A     		ldr	r2, .L30
 224 002e D2F80408 		ldr	r0, [r2, #2052]
 225 0032 00F03F00 		and	r0, r0, #63
 226 0036 D2F88418 		ldr	r1, [r2, #2180]
 227 003a C1F38811 		ubfx	r1, r1, #6, #9
 228 003e D2F88438 		ldr	r3, [r2, #2180]
 229 0042 C3F30273 		ubfx	r3, r3, #28, #3
 230 0046 D2F80428 		ldr	r2, [r2, #2052]
 231 004a 12F4800F 		tst	r2, #4194304
 232 004e 11D0     		beq	.L21
 233 0050 214A     		ldr	r2, .L30+4
 234 0052 B2FBF0F2 		udiv	r2, r2, r0
 235 0056 01FB02F2 		mul	r2, r1, r2
 236 005a B2FBF3F3 		udiv	r3, r2, r3
 237              	.L22:
 238 005e B7F5007F 		cmp	r7, #512
 239 0062 0FD0     		beq	.L29
 240 0064 76BB     		cbnz	r6, .L25
 241 0066 5B09     		lsrs	r3, r3, #5
ARM GAS  /tmp/ccd1m0xE.s 			page 5


 242 0068 03EB8303 		add	r3, r3, r3, lsl #2
 243 006c 5B00     		lsls	r3, r3, #1
 244 006e B3FBF4F1 		udiv	r1, r3, r4
 245 0072 0DE0     		b	.L24
 246              	.L21:
 247 0074 194A     		ldr	r2, .L30+8
 248 0076 B2FBF0F2 		udiv	r2, r2, r0
 249 007a 01FB02F2 		mul	r2, r1, r2
 250 007e B2FBF3F3 		udiv	r3, r2, r3
 251 0082 ECE7     		b	.L22
 252              	.L29:
 253 0084 1B0A     		lsrs	r3, r3, #8
 254 0086 03EB8303 		add	r3, r3, r3, lsl #2
 255 008a 5B00     		lsls	r3, r3, #1
 256 008c B3FBF4F1 		udiv	r1, r3, r4
 257              	.L24:
 258 0090 0531     		adds	r1, r1, #5
 259 0092 134B     		ldr	r3, .L30+12
 260 0094 A3FB0131 		umull	r3, r1, r3, r1
 261 0098 C1F3C003 		ubfx	r3, r1, #3, #1
 262 009c C3EBD101 		rsb	r1, r3, r1, lsr #3
 263 00a0 4908     		lsrs	r1, r1, #1
 264 00a2 1B02     		lsls	r3, r3, #8
 265 00a4 8A1E     		subs	r2, r1, #2
 266 00a6 FD2A     		cmp	r2, #253
 267 00a8 01D9     		bls	.L26
 268 00aa 0023     		movs	r3, #0
 269 00ac 0221     		movs	r1, #2
 270              	.L26:
 271 00ae 1943     		orrs	r1, r1, r3
 272 00b0 3943     		orrs	r1, r1, r7
 273 00b2 2962     		str	r1, [r5, #32]
 274 00b4 EB69     		ldr	r3, [r5, #28]
 275 00b6 23F00703 		bic	r3, r3, #7
 276 00ba EB61     		str	r3, [r5, #28]
 277 00bc EB69     		ldr	r3, [r5, #28]
 278 00be 3343     		orrs	r3, r3, r6
 279 00c0 EB61     		str	r3, [r5, #28]
 280 00c2 F8BD     		pop	{r3, r4, r5, r6, r7, pc}
 281              	.L25:
 282 00c4 9B09     		lsrs	r3, r3, #6
 283 00c6 03EB8303 		add	r3, r3, r3, lsl #2
 284 00ca 5B00     		lsls	r3, r3, #1
 285 00cc B3FBF4F1 		udiv	r1, r3, r4
 286 00d0 DEE7     		b	.L24
 287              	.L31:
 288 00d2 00BF     		.align	2
 289              	.L30:
 290 00d4 00300240 		.word	1073885184
 291 00d8 40787D01 		.word	25000000
 292 00dc 0024F400 		.word	16000000
 293 00e0 CDCCCCCC 		.word	-858993459
 295              		.section	.text.i2s_enable,"ax",%progbits
 296              		.align	1
 297              		.global	i2s_enable
 298              		.syntax unified
 299              		.thumb
ARM GAS  /tmp/ccd1m0xE.s 			page 6


 300              		.thumb_func
 302              	i2s_enable:
 303              		@ args = 0, pretend = 0, frame = 0
 304              		@ frame_needed = 0, uses_anonymous_args = 0
 305              		@ link register save eliminated.
 306 0000 C369     		ldr	r3, [r0, #28]
 307 0002 43F48063 		orr	r3, r3, #1024
 308 0006 C361     		str	r3, [r0, #28]
 309 0008 7047     		bx	lr
 311              		.section	.text.i2s_disable,"ax",%progbits
 312              		.align	1
 313              		.global	i2s_disable
 314              		.syntax unified
 315              		.thumb
 316              		.thumb_func
 318              	i2s_disable:
 319              		@ args = 0, pretend = 0, frame = 0
 320              		@ frame_needed = 0, uses_anonymous_args = 0
 321              		@ link register save eliminated.
 322 0000 C369     		ldr	r3, [r0, #28]
 323 0002 23F48063 		bic	r3, r3, #1024
 324 0006 C361     		str	r3, [r0, #28]
 325 0008 7047     		bx	lr
 327              		.section	.text.spi_nss_output_enable,"ax",%progbits
 328              		.align	1
 329              		.global	spi_nss_output_enable
 330              		.syntax unified
 331              		.thumb
 332              		.thumb_func
 334              	spi_nss_output_enable:
 335              		@ args = 0, pretend = 0, frame = 0
 336              		@ frame_needed = 0, uses_anonymous_args = 0
 337              		@ link register save eliminated.
 338 0000 4368     		ldr	r3, [r0, #4]
 339 0002 43F00403 		orr	r3, r3, #4
 340 0006 4360     		str	r3, [r0, #4]
 341 0008 7047     		bx	lr
 343              		.section	.text.spi_nss_output_disable,"ax",%progbits
 344              		.align	1
 345              		.global	spi_nss_output_disable
 346              		.syntax unified
 347              		.thumb
 348              		.thumb_func
 350              	spi_nss_output_disable:
 351              		@ args = 0, pretend = 0, frame = 0
 352              		@ frame_needed = 0, uses_anonymous_args = 0
 353              		@ link register save eliminated.
 354 0000 4368     		ldr	r3, [r0, #4]
 355 0002 23F00403 		bic	r3, r3, #4
 356 0006 4360     		str	r3, [r0, #4]
 357 0008 7047     		bx	lr
 359              		.section	.text.spi_nss_internal_high,"ax",%progbits
 360              		.align	1
 361              		.global	spi_nss_internal_high
 362              		.syntax unified
 363              		.thumb
 364              		.thumb_func
ARM GAS  /tmp/ccd1m0xE.s 			page 7


 366              	spi_nss_internal_high:
 367              		@ args = 0, pretend = 0, frame = 0
 368              		@ frame_needed = 0, uses_anonymous_args = 0
 369              		@ link register save eliminated.
 370 0000 0368     		ldr	r3, [r0]
 371 0002 43F48073 		orr	r3, r3, #256
 372 0006 0360     		str	r3, [r0]
 373 0008 7047     		bx	lr
 375              		.section	.text.spi_nss_internal_low,"ax",%progbits
 376              		.align	1
 377              		.global	spi_nss_internal_low
 378              		.syntax unified
 379              		.thumb
 380              		.thumb_func
 382              	spi_nss_internal_low:
 383              		@ args = 0, pretend = 0, frame = 0
 384              		@ frame_needed = 0, uses_anonymous_args = 0
 385              		@ link register save eliminated.
 386 0000 0368     		ldr	r3, [r0]
 387 0002 23F48073 		bic	r3, r3, #256
 388 0006 0360     		str	r3, [r0]
 389 0008 7047     		bx	lr
 391              		.section	.text.spi_dma_enable,"ax",%progbits
 392              		.align	1
 393              		.global	spi_dma_enable
 394              		.syntax unified
 395              		.thumb
 396              		.thumb_func
 398              	spi_dma_enable:
 399              		@ args = 0, pretend = 0, frame = 0
 400              		@ frame_needed = 0, uses_anonymous_args = 0
 401              		@ link register save eliminated.
 402 0000 21B9     		cbnz	r1, .L39
 403 0002 4368     		ldr	r3, [r0, #4]
 404 0004 43F00203 		orr	r3, r3, #2
 405 0008 4360     		str	r3, [r0, #4]
 406 000a 7047     		bx	lr
 407              	.L39:
 408 000c 4368     		ldr	r3, [r0, #4]
 409 000e 43F00103 		orr	r3, r3, #1
 410 0012 4360     		str	r3, [r0, #4]
 411 0014 7047     		bx	lr
 413              		.section	.text.spi_dma_disable,"ax",%progbits
 414              		.align	1
 415              		.global	spi_dma_disable
 416              		.syntax unified
 417              		.thumb
 418              		.thumb_func
 420              	spi_dma_disable:
 421              		@ args = 0, pretend = 0, frame = 0
 422              		@ frame_needed = 0, uses_anonymous_args = 0
 423              		@ link register save eliminated.
 424 0000 21B9     		cbnz	r1, .L42
 425 0002 4368     		ldr	r3, [r0, #4]
 426 0004 23F00203 		bic	r3, r3, #2
 427 0008 4360     		str	r3, [r0, #4]
 428 000a 7047     		bx	lr
ARM GAS  /tmp/ccd1m0xE.s 			page 8


 429              	.L42:
 430 000c 4368     		ldr	r3, [r0, #4]
 431 000e 23F00103 		bic	r3, r3, #1
 432 0012 4360     		str	r3, [r0, #4]
 433 0014 7047     		bx	lr
 435              		.section	.text.spi_i2s_data_frame_format_config,"ax",%progbits
 436              		.align	1
 437              		.global	spi_i2s_data_frame_format_config
 438              		.syntax unified
 439              		.thumb
 440              		.thumb_func
 442              	spi_i2s_data_frame_format_config:
 443              		@ args = 0, pretend = 0, frame = 0
 444              		@ frame_needed = 0, uses_anonymous_args = 0
 445              		@ link register save eliminated.
 446 0000 0368     		ldr	r3, [r0]
 447 0002 23F40063 		bic	r3, r3, #2048
 448 0006 0360     		str	r3, [r0]
 449 0008 0368     		ldr	r3, [r0]
 450 000a 0B43     		orrs	r3, r3, r1
 451 000c 0360     		str	r3, [r0]
 452 000e 7047     		bx	lr
 454              		.section	.text.spi_i2s_data_transmit,"ax",%progbits
 455              		.align	1
 456              		.global	spi_i2s_data_transmit
 457              		.syntax unified
 458              		.thumb
 459              		.thumb_func
 461              	spi_i2s_data_transmit:
 462              		@ args = 0, pretend = 0, frame = 0
 463              		@ frame_needed = 0, uses_anonymous_args = 0
 464              		@ link register save eliminated.
 465 0000 C160     		str	r1, [r0, #12]
 466 0002 7047     		bx	lr
 468              		.section	.text.spi_i2s_data_receive,"ax",%progbits
 469              		.align	1
 470              		.global	spi_i2s_data_receive
 471              		.syntax unified
 472              		.thumb
 473              		.thumb_func
 475              	spi_i2s_data_receive:
 476              		@ args = 0, pretend = 0, frame = 0
 477              		@ frame_needed = 0, uses_anonymous_args = 0
 478              		@ link register save eliminated.
 479 0000 C068     		ldr	r0, [r0, #12]
 480 0002 80B2     		uxth	r0, r0
 481 0004 7047     		bx	lr
 483              		.section	.text.spi_bidirectional_transfer_config,"ax",%progbits
 484              		.align	1
 485              		.global	spi_bidirectional_transfer_config
 486              		.syntax unified
 487              		.thumb
 488              		.thumb_func
 490              	spi_bidirectional_transfer_config:
 491              		@ args = 0, pretend = 0, frame = 0
 492              		@ frame_needed = 0, uses_anonymous_args = 0
 493              		@ link register save eliminated.
ARM GAS  /tmp/ccd1m0xE.s 			page 9


 494 0000 B1F5804F 		cmp	r1, #16384
 495 0004 04D0     		beq	.L50
 496 0006 0368     		ldr	r3, [r0]
 497 0008 23F48043 		bic	r3, r3, #16384
 498 000c 0360     		str	r3, [r0]
 499 000e 7047     		bx	lr
 500              	.L50:
 501 0010 0368     		ldr	r3, [r0]
 502 0012 43F48043 		orr	r3, r3, #16384
 503 0016 0360     		str	r3, [r0]
 504 0018 7047     		bx	lr
 506              		.section	.text.i2s_full_duplex_mode_config,"ax",%progbits
 507              		.align	1
 508              		.global	i2s_full_duplex_mode_config
 509              		.syntax unified
 510              		.thumb
 511              		.thumb_func
 513              	i2s_full_duplex_mode_config:
 514              		@ args = 4, pretend = 0, frame = 0
 515              		@ frame_needed = 0, uses_anonymous_args = 0
 516              		@ link register save eliminated.
 517 0000 10B4     		push	{r4}
 518 0002 C469     		ldr	r4, [r0, #28]
 519 0004 04F4906C 		and	ip, r4, #1152
 520 0008 B1F5007F 		cmp	r1, #512
 521 000c 03D0     		beq	.L53
 522 000e 79B9     		cbnz	r1, .L54
 523 0010 4FF48071 		mov	r1, #256
 524 0014 01E0     		b	.L52
 525              	.L53:
 526 0016 4FF48071 		mov	r1, #256
 527              	.L52:
 528 001a 4CF4006C 		orr	ip, ip, #2048
 529 001e 41EA0C01 		orr	r1, r1, ip
 530 0022 0A43     		orrs	r2, r2, r1
 531 0024 1343     		orrs	r3, r3, r2
 532 0026 019A     		ldr	r2, [sp, #4]
 533 0028 1343     		orrs	r3, r3, r2
 534 002a C361     		str	r3, [r0, #28]
 535 002c 10BC     		pop	{r4}
 536 002e 7047     		bx	lr
 537              	.L54:
 538 0030 0021     		movs	r1, #0
 539 0032 F2E7     		b	.L52
 541              		.section	.text.spi_i2s_format_error_clear,"ax",%progbits
 542              		.align	1
 543              		.global	spi_i2s_format_error_clear
 544              		.syntax unified
 545              		.thumb
 546              		.thumb_func
 548              	spi_i2s_format_error_clear:
 549              		@ args = 0, pretend = 0, frame = 0
 550              		@ frame_needed = 0, uses_anonymous_args = 0
 551              		@ link register save eliminated.
 552 0000 C943     		mvns	r1, r1
 553 0002 8160     		str	r1, [r0, #8]
 554 0004 7047     		bx	lr
ARM GAS  /tmp/ccd1m0xE.s 			page 10


 556              		.section	.text.spi_crc_polynomial_set,"ax",%progbits
 557              		.align	1
 558              		.global	spi_crc_polynomial_set
 559              		.syntax unified
 560              		.thumb
 561              		.thumb_func
 563              	spi_crc_polynomial_set:
 564              		@ args = 0, pretend = 0, frame = 0
 565              		@ frame_needed = 0, uses_anonymous_args = 0
 566              		@ link register save eliminated.
 567 0000 0161     		str	r1, [r0, #16]
 568 0002 7047     		bx	lr
 570              		.section	.text.spi_crc_polynomial_get,"ax",%progbits
 571              		.align	1
 572              		.global	spi_crc_polynomial_get
 573              		.syntax unified
 574              		.thumb
 575              		.thumb_func
 577              	spi_crc_polynomial_get:
 578              		@ args = 0, pretend = 0, frame = 0
 579              		@ frame_needed = 0, uses_anonymous_args = 0
 580              		@ link register save eliminated.
 581 0000 0069     		ldr	r0, [r0, #16]
 582 0002 80B2     		uxth	r0, r0
 583 0004 7047     		bx	lr
 585              		.section	.text.spi_crc_on,"ax",%progbits
 586              		.align	1
 587              		.global	spi_crc_on
 588              		.syntax unified
 589              		.thumb
 590              		.thumb_func
 592              	spi_crc_on:
 593              		@ args = 0, pretend = 0, frame = 0
 594              		@ frame_needed = 0, uses_anonymous_args = 0
 595              		@ link register save eliminated.
 596 0000 0368     		ldr	r3, [r0]
 597 0002 43F40053 		orr	r3, r3, #8192
 598 0006 0360     		str	r3, [r0]
 599 0008 7047     		bx	lr
 601              		.section	.text.spi_crc_off,"ax",%progbits
 602              		.align	1
 603              		.global	spi_crc_off
 604              		.syntax unified
 605              		.thumb
 606              		.thumb_func
 608              	spi_crc_off:
 609              		@ args = 0, pretend = 0, frame = 0
 610              		@ frame_needed = 0, uses_anonymous_args = 0
 611              		@ link register save eliminated.
 612 0000 0368     		ldr	r3, [r0]
 613 0002 23F40053 		bic	r3, r3, #8192
 614 0006 0360     		str	r3, [r0]
 615 0008 7047     		bx	lr
 617              		.section	.text.spi_crc_next,"ax",%progbits
 618              		.align	1
 619              		.global	spi_crc_next
 620              		.syntax unified
ARM GAS  /tmp/ccd1m0xE.s 			page 11


 621              		.thumb
 622              		.thumb_func
 624              	spi_crc_next:
 625              		@ args = 0, pretend = 0, frame = 0
 626              		@ frame_needed = 0, uses_anonymous_args = 0
 627              		@ link register save eliminated.
 628 0000 0368     		ldr	r3, [r0]
 629 0002 43F48053 		orr	r3, r3, #4096
 630 0006 0360     		str	r3, [r0]
 631 0008 7047     		bx	lr
 633              		.section	.text.spi_crc_get,"ax",%progbits
 634              		.align	1
 635              		.global	spi_crc_get
 636              		.syntax unified
 637              		.thumb
 638              		.thumb_func
 640              	spi_crc_get:
 641              		@ args = 0, pretend = 0, frame = 0
 642              		@ frame_needed = 0, uses_anonymous_args = 0
 643              		@ link register save eliminated.
 644 0000 11B9     		cbnz	r1, .L63
 645 0002 8069     		ldr	r0, [r0, #24]
 646 0004 80B2     		uxth	r0, r0
 647 0006 7047     		bx	lr
 648              	.L63:
 649 0008 4069     		ldr	r0, [r0, #20]
 650 000a 80B2     		uxth	r0, r0
 651 000c 7047     		bx	lr
 653              		.section	.text.spi_crc_error_clear,"ax",%progbits
 654              		.align	1
 655              		.global	spi_crc_error_clear
 656              		.syntax unified
 657              		.thumb
 658              		.thumb_func
 660              	spi_crc_error_clear:
 661              		@ args = 0, pretend = 0, frame = 0
 662              		@ frame_needed = 0, uses_anonymous_args = 0
 663              		@ link register save eliminated.
 664 0000 6FF01003 		mvn	r3, #16
 665 0004 8360     		str	r3, [r0, #8]
 666 0006 7047     		bx	lr
 668              		.section	.text.spi_ti_mode_enable,"ax",%progbits
 669              		.align	1
 670              		.global	spi_ti_mode_enable
 671              		.syntax unified
 672              		.thumb
 673              		.thumb_func
 675              	spi_ti_mode_enable:
 676              		@ args = 0, pretend = 0, frame = 0
 677              		@ frame_needed = 0, uses_anonymous_args = 0
 678              		@ link register save eliminated.
 679 0000 4368     		ldr	r3, [r0, #4]
 680 0002 43F01003 		orr	r3, r3, #16
 681 0006 4360     		str	r3, [r0, #4]
 682 0008 7047     		bx	lr
 684              		.section	.text.spi_ti_mode_disable,"ax",%progbits
 685              		.align	1
ARM GAS  /tmp/ccd1m0xE.s 			page 12


 686              		.global	spi_ti_mode_disable
 687              		.syntax unified
 688              		.thumb
 689              		.thumb_func
 691              	spi_ti_mode_disable:
 692              		@ args = 0, pretend = 0, frame = 0
 693              		@ frame_needed = 0, uses_anonymous_args = 0
 694              		@ link register save eliminated.
 695 0000 4368     		ldr	r3, [r0, #4]
 696 0002 23F01003 		bic	r3, r3, #16
 697 0006 4360     		str	r3, [r0, #4]
 698 0008 7047     		bx	lr
 700              		.section	.text.spi_quad_enable,"ax",%progbits
 701              		.align	1
 702              		.global	spi_quad_enable
 703              		.syntax unified
 704              		.thumb
 705              		.thumb_func
 707              	spi_quad_enable:
 708              		@ args = 0, pretend = 0, frame = 0
 709              		@ frame_needed = 0, uses_anonymous_args = 0
 710              		@ link register save eliminated.
 711 0000 D0F88030 		ldr	r3, [r0, #128]
 712 0004 43F00103 		orr	r3, r3, #1
 713 0008 C0F88030 		str	r3, [r0, #128]
 714 000c 7047     		bx	lr
 716              		.section	.text.spi_quad_disable,"ax",%progbits
 717              		.align	1
 718              		.global	spi_quad_disable
 719              		.syntax unified
 720              		.thumb
 721              		.thumb_func
 723              	spi_quad_disable:
 724              		@ args = 0, pretend = 0, frame = 0
 725              		@ frame_needed = 0, uses_anonymous_args = 0
 726              		@ link register save eliminated.
 727 0000 D0F88030 		ldr	r3, [r0, #128]
 728 0004 23F00103 		bic	r3, r3, #1
 729 0008 C0F88030 		str	r3, [r0, #128]
 730 000c 7047     		bx	lr
 732              		.section	.text.spi_quad_write_enable,"ax",%progbits
 733              		.align	1
 734              		.global	spi_quad_write_enable
 735              		.syntax unified
 736              		.thumb
 737              		.thumb_func
 739              	spi_quad_write_enable:
 740              		@ args = 0, pretend = 0, frame = 0
 741              		@ frame_needed = 0, uses_anonymous_args = 0
 742              		@ link register save eliminated.
 743 0000 D0F88030 		ldr	r3, [r0, #128]
 744 0004 23F00203 		bic	r3, r3, #2
 745 0008 C0F88030 		str	r3, [r0, #128]
 746 000c 7047     		bx	lr
 748              		.section	.text.spi_quad_read_enable,"ax",%progbits
 749              		.align	1
 750              		.global	spi_quad_read_enable
ARM GAS  /tmp/ccd1m0xE.s 			page 13


 751              		.syntax unified
 752              		.thumb
 753              		.thumb_func
 755              	spi_quad_read_enable:
 756              		@ args = 0, pretend = 0, frame = 0
 757              		@ frame_needed = 0, uses_anonymous_args = 0
 758              		@ link register save eliminated.
 759 0000 D0F88030 		ldr	r3, [r0, #128]
 760 0004 43F00203 		orr	r3, r3, #2
 761 0008 C0F88030 		str	r3, [r0, #128]
 762 000c 7047     		bx	lr
 764              		.section	.text.spi_quad_io23_output_enable,"ax",%progbits
 765              		.align	1
 766              		.global	spi_quad_io23_output_enable
 767              		.syntax unified
 768              		.thumb
 769              		.thumb_func
 771              	spi_quad_io23_output_enable:
 772              		@ args = 0, pretend = 0, frame = 0
 773              		@ frame_needed = 0, uses_anonymous_args = 0
 774              		@ link register save eliminated.
 775 0000 D0F88030 		ldr	r3, [r0, #128]
 776 0004 43F00403 		orr	r3, r3, #4
 777 0008 C0F88030 		str	r3, [r0, #128]
 778 000c 7047     		bx	lr
 780              		.section	.text.spi_quad_io23_output_disable,"ax",%progbits
 781              		.align	1
 782              		.global	spi_quad_io23_output_disable
 783              		.syntax unified
 784              		.thumb
 785              		.thumb_func
 787              	spi_quad_io23_output_disable:
 788              		@ args = 0, pretend = 0, frame = 0
 789              		@ frame_needed = 0, uses_anonymous_args = 0
 790              		@ link register save eliminated.
 791 0000 D0F88030 		ldr	r3, [r0, #128]
 792 0004 23F00403 		bic	r3, r3, #4
 793 0008 C0F88030 		str	r3, [r0, #128]
 794 000c 7047     		bx	lr
 796              		.section	.text.spi_i2s_flag_get,"ax",%progbits
 797              		.align	1
 798              		.global	spi_i2s_flag_get
 799              		.syntax unified
 800              		.thumb
 801              		.thumb_func
 803              	spi_i2s_flag_get:
 804              		@ args = 0, pretend = 0, frame = 0
 805              		@ frame_needed = 0, uses_anonymous_args = 0
 806              		@ link register save eliminated.
 807 0000 8368     		ldr	r3, [r0, #8]
 808 0002 0B42     		tst	r3, r1
 809 0004 01D0     		beq	.L76
 810 0006 0120     		movs	r0, #1
 811 0008 7047     		bx	lr
 812              	.L76:
 813 000a 0020     		movs	r0, #0
 814 000c 7047     		bx	lr
ARM GAS  /tmp/ccd1m0xE.s 			page 14


 816              		.section	.text.spi_i2s_interrupt_enable,"ax",%progbits
 817              		.align	1
 818              		.global	spi_i2s_interrupt_enable
 819              		.syntax unified
 820              		.thumb
 821              		.thumb_func
 823              	spi_i2s_interrupt_enable:
 824              		@ args = 0, pretend = 0, frame = 0
 825              		@ frame_needed = 0, uses_anonymous_args = 0
 826              		@ link register save eliminated.
 827 0000 0129     		cmp	r1, #1
 828 0002 08D0     		beq	.L78
 829 0004 0229     		cmp	r1, #2
 830 0006 0BD0     		beq	.L79
 831 0008 01B1     		cbz	r1, .L81
 832              	.L77:
 833 000a 7047     		bx	lr
 834              	.L81:
 835 000c 4368     		ldr	r3, [r0, #4]
 836 000e 43F08003 		orr	r3, r3, #128
 837 0012 4360     		str	r3, [r0, #4]
 838 0014 7047     		bx	lr
 839              	.L78:
 840 0016 4368     		ldr	r3, [r0, #4]
 841 0018 43F04003 		orr	r3, r3, #64
 842 001c 4360     		str	r3, [r0, #4]
 843 001e 7047     		bx	lr
 844              	.L79:
 845 0020 4368     		ldr	r3, [r0, #4]
 846 0022 43F02003 		orr	r3, r3, #32
 847 0026 4360     		str	r3, [r0, #4]
 848 0028 EFE7     		b	.L77
 850              		.section	.text.spi_i2s_interrupt_disable,"ax",%progbits
 851              		.align	1
 852              		.global	spi_i2s_interrupt_disable
 853              		.syntax unified
 854              		.thumb
 855              		.thumb_func
 857              	spi_i2s_interrupt_disable:
 858              		@ args = 0, pretend = 0, frame = 0
 859              		@ frame_needed = 0, uses_anonymous_args = 0
 860              		@ link register save eliminated.
 861 0000 0129     		cmp	r1, #1
 862 0002 08D0     		beq	.L83
 863 0004 0229     		cmp	r1, #2
 864 0006 0BD0     		beq	.L84
 865 0008 01B1     		cbz	r1, .L86
 866              	.L82:
 867 000a 7047     		bx	lr
 868              	.L86:
 869 000c 4368     		ldr	r3, [r0, #4]
 870 000e 23F08003 		bic	r3, r3, #128
 871 0012 4360     		str	r3, [r0, #4]
 872 0014 7047     		bx	lr
 873              	.L83:
 874 0016 4368     		ldr	r3, [r0, #4]
 875 0018 23F04003 		bic	r3, r3, #64
ARM GAS  /tmp/ccd1m0xE.s 			page 15


 876 001c 4360     		str	r3, [r0, #4]
 877 001e 7047     		bx	lr
 878              	.L84:
 879 0020 4368     		ldr	r3, [r0, #4]
 880 0022 23F02003 		bic	r3, r3, #32
 881 0026 4360     		str	r3, [r0, #4]
 882 0028 EFE7     		b	.L82
 884              		.section	.text.spi_i2s_interrupt_flag_get,"ax",%progbits
 885              		.align	1
 886              		.global	spi_i2s_interrupt_flag_get
 887              		.syntax unified
 888              		.thumb
 889              		.thumb_func
 891              	spi_i2s_interrupt_flag_get:
 892              		@ args = 0, pretend = 0, frame = 0
 893              		@ frame_needed = 0, uses_anonymous_args = 0
 894              		@ link register save eliminated.
 895 0000 8368     		ldr	r3, [r0, #8]
 896 0002 4268     		ldr	r2, [r0, #4]
 897 0004 0629     		cmp	r1, #6
 898 0006 09D8     		bhi	.L88
 899 0008 DFE801F0 		tbb	[pc, r1]
 900              	.L90:
 901 000c 04       		.byte	(.L96-.L90)/2
 902 000d 0C       		.byte	(.L95-.L90)/2
 903 000e 11       		.byte	(.L94-.L90)/2
 904 000f 16       		.byte	(.L93-.L90)/2
 905 0010 1B       		.byte	(.L92-.L90)/2
 906 0011 20       		.byte	(.L91-.L90)/2
 907 0012 25       		.byte	(.L89-.L90)/2
 908 0013 00       		.p2align 1
 909              	.L96:
 910 0014 03F00203 		and	r3, r3, #2
 911 0018 02F08002 		and	r2, r2, #128
 912              	.L88:
 913 001c 03B3     		cbz	r3, .L98
 914 001e 0ABB     		cbnz	r2, .L99
 915 0020 0020     		movs	r0, #0
 916 0022 7047     		bx	lr
 917              	.L95:
 918 0024 03F00103 		and	r3, r3, #1
 919 0028 02F04002 		and	r2, r2, #64
 920 002c F6E7     		b	.L88
 921              	.L94:
 922 002e 03F04003 		and	r3, r3, #64
 923 0032 02F02002 		and	r2, r2, #32
 924 0036 F1E7     		b	.L88
 925              	.L93:
 926 0038 03F02003 		and	r3, r3, #32
 927 003c 02F02002 		and	r2, r2, #32
 928 0040 ECE7     		b	.L88
 929              	.L92:
 930 0042 03F01003 		and	r3, r3, #16
 931 0046 02F02002 		and	r2, r2, #32
 932 004a E7E7     		b	.L88
 933              	.L91:
 934 004c 03F00803 		and	r3, r3, #8
ARM GAS  /tmp/ccd1m0xE.s 			page 16


 935 0050 02F02002 		and	r2, r2, #32
 936 0054 E2E7     		b	.L88
 937              	.L89:
 938 0056 03F48073 		and	r3, r3, #256
 939 005a 02F02002 		and	r2, r2, #32
 940 005e DDE7     		b	.L88
 941              	.L98:
 942 0060 0020     		movs	r0, #0
 943 0062 7047     		bx	lr
 944              	.L99:
 945 0064 0120     		movs	r0, #1
 946 0066 7047     		bx	lr
 948              		.ident	"GCC: (xPack GNU Arm Embedded GCC x86_64) 12.2.1 20221205"
ARM GAS  /tmp/ccd1m0xE.s 			page 17

