ARM GAS  /tmp/cc4Fe5ID.s 			page 1


   1              		.cpu cortex-m4
   2              		.arch armv7e-m
   3              		.fpu softvfp
   4              		.eabi_attribute 20, 1
   5              		.eabi_attribute 21, 1
   6              		.eabi_attribute 23, 3
   7              		.eabi_attribute 24, 1
   8              		.eabi_attribute 25, 1
   9              		.eabi_attribute 26, 1
  10              		.eabi_attribute 30, 1
  11              		.eabi_attribute 34, 1
  12              		.eabi_attribute 18, 4
  13              		.file	"gd32f4xx_exti.c"
  14              		.text
  15              		.section	.text.exti_deinit,"ax",%progbits
  16              		.align	1
  17              		.global	exti_deinit
  18              		.syntax unified
  19              		.thumb
  20              		.thumb_func
  22              	exti_deinit:
  23              		@ args = 0, pretend = 0, frame = 0
  24              		@ frame_needed = 0, uses_anonymous_args = 0
  25              		@ link register save eliminated.
  26 0000 064B     		ldr	r3, .L2
  27 0002 0022     		movs	r2, #0
  28 0004 C3F8002C 		str	r2, [r3, #3072]
  29 0008 C3F8042C 		str	r2, [r3, #3076]
  30 000c C3F8082C 		str	r2, [r3, #3080]
  31 0010 C3F80C2C 		str	r2, [r3, #3084]
  32 0014 C3F8102C 		str	r2, [r3, #3088]
  33 0018 7047     		bx	lr
  34              	.L3:
  35 001a 00BF     		.align	2
  36              	.L2:
  37 001c 00300140 		.word	1073819648
  39              		.section	.text.exti_init,"ax",%progbits
  40              		.align	1
  41              		.global	exti_init
  42              		.syntax unified
  43              		.thumb
  44              		.thumb_func
  46              	exti_init:
  47              		@ args = 0, pretend = 0, frame = 0
  48              		@ frame_needed = 0, uses_anonymous_args = 0
  49              		@ link register save eliminated.
  50 0000 10B4     		push	{r4}
  51 0002 2C4B     		ldr	r3, .L13
  52 0004 D3F8004C 		ldr	r4, [r3, #3072]
  53 0008 6FEA000C 		mvn	ip, r0
  54 000c 24EA0004 		bic	r4, r4, r0
  55 0010 C3F8004C 		str	r4, [r3, #3072]
  56 0014 D3F8044C 		ldr	r4, [r3, #3076]
  57 0018 24EA0004 		bic	r4, r4, r0
  58 001c C3F8044C 		str	r4, [r3, #3076]
  59 0020 D3F8084C 		ldr	r4, [r3, #3080]
  60 0024 24EA0004 		bic	r4, r4, r0
ARM GAS  /tmp/cc4Fe5ID.s 			page 2


  61 0028 C3F8084C 		str	r4, [r3, #3080]
  62 002c D3F80C4C 		ldr	r4, [r3, #3084]
  63 0030 24EA0004 		bic	r4, r4, r0
  64 0034 C3F80C4C 		str	r4, [r3, #3084]
  65 0038 41B1     		cbz	r1, .L5
  66 003a 0129     		cmp	r1, #1
  67 003c 0DD0     		beq	.L6
  68              	.L7:
  69 003e 012A     		cmp	r2, #1
  70 0040 1FD0     		beq	.L8
  71 0042 022A     		cmp	r2, #2
  72 0044 2AD0     		beq	.L9
  73 0046 7AB1     		cbz	r2, .L12
  74              	.L4:
  75 0048 10BC     		pop	{r4}
  76 004a 7047     		bx	lr
  77              	.L5:
  78 004c 1949     		ldr	r1, .L13
  79 004e D1F8003C 		ldr	r3, [r1, #3072]
  80 0052 0343     		orrs	r3, r3, r0
  81 0054 C1F8003C 		str	r3, [r1, #3072]
  82 0058 F1E7     		b	.L7
  83              	.L6:
  84 005a 1649     		ldr	r1, .L13
  85 005c D1F8043C 		ldr	r3, [r1, #3076]
  86 0060 0343     		orrs	r3, r3, r0
  87 0062 C1F8043C 		str	r3, [r1, #3076]
  88 0066 EAE7     		b	.L7
  89              	.L12:
  90 0068 124B     		ldr	r3, .L13
  91 006a D3F8082C 		ldr	r2, [r3, #3080]
  92 006e 0243     		orrs	r2, r2, r0
  93 0070 C3F8082C 		str	r2, [r3, #3080]
  94 0074 D3F80C2C 		ldr	r2, [r3, #3084]
  95 0078 0CEA0202 		and	r2, ip, r2
  96 007c C3F80C2C 		str	r2, [r3, #3084]
  97 0080 E2E7     		b	.L4
  98              	.L8:
  99 0082 0C4A     		ldr	r2, .L13
 100 0084 D2F8083C 		ldr	r3, [r2, #3080]
 101 0088 0CEA0303 		and	r3, ip, r3
 102 008c C2F8083C 		str	r3, [r2, #3080]
 103 0090 D2F80C3C 		ldr	r3, [r2, #3084]
 104 0094 0343     		orrs	r3, r3, r0
 105 0096 C2F80C3C 		str	r3, [r2, #3084]
 106 009a D5E7     		b	.L4
 107              	.L9:
 108 009c 054B     		ldr	r3, .L13
 109 009e D3F8082C 		ldr	r2, [r3, #3080]
 110 00a2 0243     		orrs	r2, r2, r0
 111 00a4 C3F8082C 		str	r2, [r3, #3080]
 112 00a8 D3F80C2C 		ldr	r2, [r3, #3084]
 113 00ac 0243     		orrs	r2, r2, r0
 114 00ae C3F80C2C 		str	r2, [r3, #3084]
 115 00b2 C9E7     		b	.L4
 116              	.L14:
 117              		.align	2
ARM GAS  /tmp/cc4Fe5ID.s 			page 3


 118              	.L13:
 119 00b4 00300140 		.word	1073819648
 121              		.section	.text.exti_interrupt_enable,"ax",%progbits
 122              		.align	1
 123              		.global	exti_interrupt_enable
 124              		.syntax unified
 125              		.thumb
 126              		.thumb_func
 128              	exti_interrupt_enable:
 129              		@ args = 0, pretend = 0, frame = 0
 130              		@ frame_needed = 0, uses_anonymous_args = 0
 131              		@ link register save eliminated.
 132 0000 034A     		ldr	r2, .L16
 133 0002 D2F8003C 		ldr	r3, [r2, #3072]
 134 0006 0343     		orrs	r3, r3, r0
 135 0008 C2F8003C 		str	r3, [r2, #3072]
 136 000c 7047     		bx	lr
 137              	.L17:
 138 000e 00BF     		.align	2
 139              	.L16:
 140 0010 00300140 		.word	1073819648
 142              		.section	.text.exti_interrupt_disable,"ax",%progbits
 143              		.align	1
 144              		.global	exti_interrupt_disable
 145              		.syntax unified
 146              		.thumb
 147              		.thumb_func
 149              	exti_interrupt_disable:
 150              		@ args = 0, pretend = 0, frame = 0
 151              		@ frame_needed = 0, uses_anonymous_args = 0
 152              		@ link register save eliminated.
 153 0000 034A     		ldr	r2, .L19
 154 0002 D2F8003C 		ldr	r3, [r2, #3072]
 155 0006 23EA0003 		bic	r3, r3, r0
 156 000a C2F8003C 		str	r3, [r2, #3072]
 157 000e 7047     		bx	lr
 158              	.L20:
 159              		.align	2
 160              	.L19:
 161 0010 00300140 		.word	1073819648
 163              		.section	.text.exti_event_enable,"ax",%progbits
 164              		.align	1
 165              		.global	exti_event_enable
 166              		.syntax unified
 167              		.thumb
 168              		.thumb_func
 170              	exti_event_enable:
 171              		@ args = 0, pretend = 0, frame = 0
 172              		@ frame_needed = 0, uses_anonymous_args = 0
 173              		@ link register save eliminated.
 174 0000 034A     		ldr	r2, .L22
 175 0002 D2F8043C 		ldr	r3, [r2, #3076]
 176 0006 0343     		orrs	r3, r3, r0
 177 0008 C2F8043C 		str	r3, [r2, #3076]
 178 000c 7047     		bx	lr
 179              	.L23:
 180 000e 00BF     		.align	2
ARM GAS  /tmp/cc4Fe5ID.s 			page 4


 181              	.L22:
 182 0010 00300140 		.word	1073819648
 184              		.section	.text.exti_event_disable,"ax",%progbits
 185              		.align	1
 186              		.global	exti_event_disable
 187              		.syntax unified
 188              		.thumb
 189              		.thumb_func
 191              	exti_event_disable:
 192              		@ args = 0, pretend = 0, frame = 0
 193              		@ frame_needed = 0, uses_anonymous_args = 0
 194              		@ link register save eliminated.
 195 0000 034A     		ldr	r2, .L25
 196 0002 D2F8043C 		ldr	r3, [r2, #3076]
 197 0006 23EA0003 		bic	r3, r3, r0
 198 000a C2F8043C 		str	r3, [r2, #3076]
 199 000e 7047     		bx	lr
 200              	.L26:
 201              		.align	2
 202              	.L25:
 203 0010 00300140 		.word	1073819648
 205              		.section	.text.exti_software_interrupt_enable,"ax",%progbits
 206              		.align	1
 207              		.global	exti_software_interrupt_enable
 208              		.syntax unified
 209              		.thumb
 210              		.thumb_func
 212              	exti_software_interrupt_enable:
 213              		@ args = 0, pretend = 0, frame = 0
 214              		@ frame_needed = 0, uses_anonymous_args = 0
 215              		@ link register save eliminated.
 216 0000 034A     		ldr	r2, .L28
 217 0002 D2F8103C 		ldr	r3, [r2, #3088]
 218 0006 0343     		orrs	r3, r3, r0
 219 0008 C2F8103C 		str	r3, [r2, #3088]
 220 000c 7047     		bx	lr
 221              	.L29:
 222 000e 00BF     		.align	2
 223              	.L28:
 224 0010 00300140 		.word	1073819648
 226              		.section	.text.exti_software_interrupt_disable,"ax",%progbits
 227              		.align	1
 228              		.global	exti_software_interrupt_disable
 229              		.syntax unified
 230              		.thumb
 231              		.thumb_func
 233              	exti_software_interrupt_disable:
 234              		@ args = 0, pretend = 0, frame = 0
 235              		@ frame_needed = 0, uses_anonymous_args = 0
 236              		@ link register save eliminated.
 237 0000 034A     		ldr	r2, .L31
 238 0002 D2F8103C 		ldr	r3, [r2, #3088]
 239 0006 23EA0003 		bic	r3, r3, r0
 240 000a C2F8103C 		str	r3, [r2, #3088]
 241 000e 7047     		bx	lr
 242              	.L32:
 243              		.align	2
ARM GAS  /tmp/cc4Fe5ID.s 			page 5


 244              	.L31:
 245 0010 00300140 		.word	1073819648
 247              		.section	.text.exti_flag_get,"ax",%progbits
 248              		.align	1
 249              		.global	exti_flag_get
 250              		.syntax unified
 251              		.thumb
 252              		.thumb_func
 254              	exti_flag_get:
 255              		@ args = 0, pretend = 0, frame = 0
 256              		@ frame_needed = 0, uses_anonymous_args = 0
 257              		@ link register save eliminated.
 258 0000 044B     		ldr	r3, .L36
 259 0002 D3F8143C 		ldr	r3, [r3, #3092]
 260 0006 0342     		tst	r3, r0
 261 0008 01D0     		beq	.L35
 262 000a 0120     		movs	r0, #1
 263 000c 7047     		bx	lr
 264              	.L35:
 265 000e 0020     		movs	r0, #0
 266 0010 7047     		bx	lr
 267              	.L37:
 268 0012 00BF     		.align	2
 269              	.L36:
 270 0014 00300140 		.word	1073819648
 272              		.section	.text.exti_flag_clear,"ax",%progbits
 273              		.align	1
 274              		.global	exti_flag_clear
 275              		.syntax unified
 276              		.thumb
 277              		.thumb_func
 279              	exti_flag_clear:
 280              		@ args = 0, pretend = 0, frame = 0
 281              		@ frame_needed = 0, uses_anonymous_args = 0
 282              		@ link register save eliminated.
 283 0000 014B     		ldr	r3, .L39
 284 0002 C3F8140C 		str	r0, [r3, #3092]
 285 0006 7047     		bx	lr
 286              	.L40:
 287              		.align	2
 288              	.L39:
 289 0008 00300140 		.word	1073819648
 291              		.section	.text.exti_interrupt_flag_get,"ax",%progbits
 292              		.align	1
 293              		.global	exti_interrupt_flag_get
 294              		.syntax unified
 295              		.thumb
 296              		.thumb_func
 298              	exti_interrupt_flag_get:
 299              		@ args = 0, pretend = 0, frame = 0
 300              		@ frame_needed = 0, uses_anonymous_args = 0
 301              		@ link register save eliminated.
 302 0000 044B     		ldr	r3, .L44
 303 0002 D3F8143C 		ldr	r3, [r3, #3092]
 304 0006 0342     		tst	r3, r0
 305 0008 01D0     		beq	.L43
 306 000a 0120     		movs	r0, #1
ARM GAS  /tmp/cc4Fe5ID.s 			page 6


 307 000c 7047     		bx	lr
 308              	.L43:
 309 000e 0020     		movs	r0, #0
 310 0010 7047     		bx	lr
 311              	.L45:
 312 0012 00BF     		.align	2
 313              	.L44:
 314 0014 00300140 		.word	1073819648
 316              		.section	.text.exti_interrupt_flag_clear,"ax",%progbits
 317              		.align	1
 318              		.global	exti_interrupt_flag_clear
 319              		.syntax unified
 320              		.thumb
 321              		.thumb_func
 323              	exti_interrupt_flag_clear:
 324              		@ args = 0, pretend = 0, frame = 0
 325              		@ frame_needed = 0, uses_anonymous_args = 0
 326              		@ link register save eliminated.
 327 0000 014B     		ldr	r3, .L47
 328 0002 C3F8140C 		str	r0, [r3, #3092]
 329 0006 7047     		bx	lr
 330              	.L48:
 331              		.align	2
 332              	.L47:
 333 0008 00300140 		.word	1073819648
 335              		.ident	"GCC: (xPack GNU Arm Embedded GCC x86_64) 12.2.1 20221205"
ARM GAS  /tmp/cc4Fe5ID.s 			page 7

