ARM GAS  /tmp/ccv8R8BJ.s 			page 1


   1              		.cpu cortex-m4
   2              		.arch armv7e-m
   3              		.fpu softvfp
   4              		.eabi_attribute 20, 1
   5              		.eabi_attribute 21, 1
   6              		.eabi_attribute 23, 3
   7              		.eabi_attribute 24, 1
   8              		.eabi_attribute 25, 1
   9              		.eabi_attribute 26, 1
  10              		.eabi_attribute 30, 1
  11              		.eabi_attribute 34, 1
  12              		.eabi_attribute 18, 4
  13              		.file	"gd32f4xx_crc.c"
  14              		.text
  15              		.section	.text.crc_deinit,"ax",%progbits
  16              		.align	1
  17              		.global	crc_deinit
  18              		.syntax unified
  19              		.thumb
  20              		.thumb_func
  22              	crc_deinit:
  23              		@ args = 0, pretend = 0, frame = 0
  24              		@ frame_needed = 0, uses_anonymous_args = 0
  25              		@ link register save eliminated.
  26 0000 044B     		ldr	r3, .L2
  27 0002 4FF0FF32 		mov	r2, #-1
  28 0006 1A60     		str	r2, [r3]
  29 0008 0022     		movs	r2, #0
  30 000a 5A60     		str	r2, [r3, #4]
  31 000c 0122     		movs	r2, #1
  32 000e 9A60     		str	r2, [r3, #8]
  33 0010 7047     		bx	lr
  34              	.L3:
  35 0012 00BF     		.align	2
  36              	.L2:
  37 0014 00300240 		.word	1073885184
  39              		.section	.text.crc_data_register_reset,"ax",%progbits
  40              		.align	1
  41              		.global	crc_data_register_reset
  42              		.syntax unified
  43              		.thumb
  44              		.thumb_func
  46              	crc_data_register_reset:
  47              		@ args = 0, pretend = 0, frame = 0
  48              		@ frame_needed = 0, uses_anonymous_args = 0
  49              		@ link register save eliminated.
  50 0000 024A     		ldr	r2, .L5
  51 0002 9368     		ldr	r3, [r2, #8]
  52 0004 43F00103 		orr	r3, r3, #1
  53 0008 9360     		str	r3, [r2, #8]
  54 000a 7047     		bx	lr
  55              	.L6:
  56              		.align	2
  57              	.L5:
  58 000c 00300240 		.word	1073885184
  60              		.section	.text.crc_data_register_read,"ax",%progbits
  61              		.align	1
ARM GAS  /tmp/ccv8R8BJ.s 			page 2


  62              		.global	crc_data_register_read
  63              		.syntax unified
  64              		.thumb
  65              		.thumb_func
  67              	crc_data_register_read:
  68              		@ args = 0, pretend = 0, frame = 0
  69              		@ frame_needed = 0, uses_anonymous_args = 0
  70              		@ link register save eliminated.
  71 0000 014B     		ldr	r3, .L8
  72 0002 1868     		ldr	r0, [r3]
  73 0004 7047     		bx	lr
  74              	.L9:
  75 0006 00BF     		.align	2
  76              	.L8:
  77 0008 00300240 		.word	1073885184
  79              		.section	.text.crc_free_data_register_read,"ax",%progbits
  80              		.align	1
  81              		.global	crc_free_data_register_read
  82              		.syntax unified
  83              		.thumb
  84              		.thumb_func
  86              	crc_free_data_register_read:
  87              		@ args = 0, pretend = 0, frame = 0
  88              		@ frame_needed = 0, uses_anonymous_args = 0
  89              		@ link register save eliminated.
  90 0000 014B     		ldr	r3, .L11
  91 0002 5868     		ldr	r0, [r3, #4]
  92 0004 C0B2     		uxtb	r0, r0
  93 0006 7047     		bx	lr
  94              	.L12:
  95              		.align	2
  96              	.L11:
  97 0008 00300240 		.word	1073885184
  99              		.section	.text.crc_free_data_register_write,"ax",%progbits
 100              		.align	1
 101              		.global	crc_free_data_register_write
 102              		.syntax unified
 103              		.thumb
 104              		.thumb_func
 106              	crc_free_data_register_write:
 107              		@ args = 0, pretend = 0, frame = 0
 108              		@ frame_needed = 0, uses_anonymous_args = 0
 109              		@ link register save eliminated.
 110 0000 014B     		ldr	r3, .L14
 111 0002 5860     		str	r0, [r3, #4]
 112 0004 7047     		bx	lr
 113              	.L15:
 114 0006 00BF     		.align	2
 115              	.L14:
 116 0008 00300240 		.word	1073885184
 118              		.section	.text.crc_single_data_calculate,"ax",%progbits
 119              		.align	1
 120              		.global	crc_single_data_calculate
 121              		.syntax unified
 122              		.thumb
 123              		.thumb_func
 125              	crc_single_data_calculate:
ARM GAS  /tmp/ccv8R8BJ.s 			page 3


 126              		@ args = 0, pretend = 0, frame = 0
 127              		@ frame_needed = 0, uses_anonymous_args = 0
 128              		@ link register save eliminated.
 129 0000 014B     		ldr	r3, .L17
 130 0002 1860     		str	r0, [r3]
 131 0004 1868     		ldr	r0, [r3]
 132 0006 7047     		bx	lr
 133              	.L18:
 134              		.align	2
 135              	.L17:
 136 0008 00300240 		.word	1073885184
 138              		.section	.text.crc_block_data_calculate,"ax",%progbits
 139              		.align	1
 140              		.global	crc_block_data_calculate
 141              		.syntax unified
 142              		.thumb
 143              		.thumb_func
 145              	crc_block_data_calculate:
 146              		@ args = 0, pretend = 0, frame = 0
 147              		@ frame_needed = 0, uses_anonymous_args = 0
 148              		@ link register save eliminated.
 149 0000 0023     		movs	r3, #0
 150 0002 05E0     		b	.L20
 151              	.L21:
 152 0004 054A     		ldr	r2, .L22
 153 0006 50F823C0 		ldr	ip, [r0, r3, lsl #2]
 154 000a C2F800C0 		str	ip, [r2]
 155 000e 0133     		adds	r3, r3, #1
 156              	.L20:
 157 0010 8B42     		cmp	r3, r1
 158 0012 F7D3     		bcc	.L21
 159 0014 014B     		ldr	r3, .L22
 160 0016 1868     		ldr	r0, [r3]
 161 0018 7047     		bx	lr
 162              	.L23:
 163 001a 00BF     		.align	2
 164              	.L22:
 165 001c 00300240 		.word	1073885184
 167              		.ident	"GCC: (xPack GNU Arm Embedded GCC x86_64) 12.2.1 20221205"
ARM GAS  /tmp/ccv8R8BJ.s 			page 4

