ARM GAS  /tmp/cc32xsTs.s 			page 1


   1              		.cpu cortex-m4
   2              		.arch armv7e-m
   3              		.fpu softvfp
   4              		.eabi_attribute 20, 1
   5              		.eabi_attribute 21, 1
   6              		.eabi_attribute 23, 3
   7              		.eabi_attribute 24, 1
   8              		.eabi_attribute 25, 1
   9              		.eabi_attribute 26, 1
  10              		.eabi_attribute 30, 1
  11              		.eabi_attribute 34, 1
  12              		.eabi_attribute 18, 4
  13              		.file	"gd32f4xx_usart.c"
  14              		.text
  15              		.section	.text.usart_deinit,"ax",%progbits
  16              		.align	1
  17              		.global	usart_deinit
  18              		.syntax unified
  19              		.thumb
  20              		.thumb_func
  22              	usart_deinit:
  23              		@ args = 0, pretend = 0, frame = 0
  24              		@ frame_needed = 0, uses_anonymous_args = 0
  25 0000 08B5     		push	{r3, lr}
  26 0002 334B     		ldr	r3, .L16
  27 0004 9842     		cmp	r0, r3
  28 0006 5AD0     		beq	.L2
  29 0008 21D8     		bhi	.L3
  30 000a A3F53053 		sub	r3, r3, #11264
  31 000e 9842     		cmp	r0, r3
  32 0010 4CD0     		beq	.L4
  33 0012 0BD9     		bls	.L14
  34 0014 2F4B     		ldr	r3, .L16+4
  35 0016 9842     		cmp	r0, r3
  36 0018 3ED1     		bne	.L1
  37 001a 40F61400 		movw	r0, #2068
  38 001e FFF7FEFF 		bl	rcu_periph_reset_enable
  39 0022 40F61400 		movw	r0, #2068
  40 0026 FFF7FEFF 		bl	rcu_periph_reset_disable
  41 002a 35E0     		b	.L1
  42              	.L14:
  43 002c A3F50063 		sub	r3, r3, #2048
  44 0030 9842     		cmp	r0, r3
  45 0032 32D0     		beq	.L6
  46 0034 03F58063 		add	r3, r3, #1024
  47 0038 9842     		cmp	r0, r3
  48 003a 2DD1     		bne	.L1
  49 003c 40F61200 		movw	r0, #2066
  50 0040 FFF7FEFF 		bl	rcu_periph_reset_enable
  51 0044 40F61200 		movw	r0, #2066
  52 0048 FFF7FEFF 		bl	rcu_periph_reset_disable
  53 004c 24E0     		b	.L1
  54              	.L3:
  55 004e 224B     		ldr	r3, .L16+8
  56 0050 9842     		cmp	r0, r3
  57 0052 19D0     		beq	.L10
  58 0054 03F58063 		add	r3, r3, #1024
ARM GAS  /tmp/cc32xsTs.s 			page 2


  59 0058 9842     		cmp	r0, r3
  60 005a 08D1     		bne	.L15
  61 005c 40F60510 		movw	r0, #2309
  62 0060 FFF7FEFF 		bl	rcu_periph_reset_enable
  63 0064 40F60510 		movw	r0, #2309
  64 0068 FFF7FEFF 		bl	rcu_periph_reset_disable
  65 006c 14E0     		b	.L1
  66              	.L15:
  67 006e A3F51843 		sub	r3, r3, #38912
  68 0072 9842     		cmp	r0, r3
  69 0074 10D1     		bne	.L1
  70 0076 40F61F00 		movw	r0, #2079
  71 007a FFF7FEFF 		bl	rcu_periph_reset_enable
  72 007e 40F61F00 		movw	r0, #2079
  73 0082 FFF7FEFF 		bl	rcu_periph_reset_disable
  74 0086 07E0     		b	.L1
  75              	.L10:
  76 0088 40F60410 		movw	r0, #2308
  77 008c FFF7FEFF 		bl	rcu_periph_reset_enable
  78 0090 40F60410 		movw	r0, #2308
  79 0094 FFF7FEFF 		bl	rcu_periph_reset_disable
  80              	.L1:
  81 0098 08BD     		pop	{r3, pc}
  82              	.L6:
  83 009a 40F61100 		movw	r0, #2065
  84 009e FFF7FEFF 		bl	rcu_periph_reset_enable
  85 00a2 40F61100 		movw	r0, #2065
  86 00a6 FFF7FEFF 		bl	rcu_periph_reset_disable
  87 00aa F5E7     		b	.L1
  88              	.L4:
  89 00ac 40F61300 		movw	r0, #2067
  90 00b0 FFF7FEFF 		bl	rcu_periph_reset_enable
  91 00b4 40F61300 		movw	r0, #2067
  92 00b8 FFF7FEFF 		bl	rcu_periph_reset_disable
  93 00bc ECE7     		b	.L1
  94              	.L2:
  95 00be 40F61E00 		movw	r0, #2078
  96 00c2 FFF7FEFF 		bl	rcu_periph_reset_enable
  97 00c6 40F61E00 		movw	r0, #2078
  98 00ca FFF7FEFF 		bl	rcu_periph_reset_disable
  99 00ce E3E7     		b	.L1
 100              	.L17:
 101              		.align	2
 102              	.L16:
 103 00d0 00780040 		.word	1073772544
 104 00d4 00500040 		.word	1073762304
 105 00d8 00100140 		.word	1073811456
 107              		.section	.text.usart_baudrate_set,"ax",%progbits
 108              		.align	1
 109              		.global	usart_baudrate_set
 110              		.syntax unified
 111              		.thumb
 112              		.thumb_func
 114              	usart_baudrate_set:
 115              		@ args = 0, pretend = 0, frame = 0
 116              		@ frame_needed = 0, uses_anonymous_args = 0
 117 0000 38B5     		push	{r3, r4, r5, lr}
ARM GAS  /tmp/cc32xsTs.s 			page 3


 118 0002 0446     		mov	r4, r0
 119 0004 0D46     		mov	r5, r1
 120 0006 2E4B     		ldr	r3, .L38
 121 0008 9842     		cmp	r0, r3
 122 000a 4DD0     		beq	.L19
 123 000c 2BD8     		bhi	.L20
 124 000e A3F53053 		sub	r3, r3, #11264
 125 0012 9842     		cmp	r0, r3
 126 0014 44D0     		beq	.L21
 127 0016 06D9     		bls	.L33
 128 0018 2A4B     		ldr	r3, .L38+4
 129 001a 9842     		cmp	r0, r3
 130 001c 11D1     		bne	.L34
 131 001e 0220     		movs	r0, #2
 132 0020 FFF7FEFF 		bl	rcu_clock_freq_get
 133 0024 0EE0     		b	.L25
 134              	.L33:
 135 0026 A3F50063 		sub	r3, r3, #2048
 136 002a 9842     		cmp	r0, r3
 137 002c 34D0     		beq	.L23
 138 002e 03F58063 		add	r3, r3, #1024
 139 0032 9842     		cmp	r0, r3
 140 0034 03D1     		bne	.L35
 141 0036 0220     		movs	r0, #2
 142 0038 FFF7FEFF 		bl	rcu_clock_freq_get
 143 003c 02E0     		b	.L25
 144              	.L35:
 145 003e 0020     		movs	r0, #0
 146 0040 00E0     		b	.L25
 147              	.L34:
 148 0042 0020     		movs	r0, #0
 149              	.L25:
 150 0044 E368     		ldr	r3, [r4, #12]
 151 0046 13F4004F 		tst	r3, #32768
 152 004a 31D0     		beq	.L30
 153 004c 6B08     		lsrs	r3, r5, #1
 154 004e 03EB4003 		add	r3, r3, r0, lsl #1
 155 0052 B3FBF5F3 		udiv	r3, r3, r5
 156 0056 4FF6F072 		movw	r2, #65520
 157 005a 1A40     		ands	r2, r2, r3
 158 005c C3F34203 		ubfx	r3, r3, #1, #3
 159 0060 1343     		orrs	r3, r3, r2
 160 0062 A360     		str	r3, [r4, #8]
 161              	.L18:
 162 0064 38BD     		pop	{r3, r4, r5, pc}
 163              	.L20:
 164 0066 184B     		ldr	r3, .L38+8
 165 0068 9842     		cmp	r0, r3
 166 006a 11D0     		beq	.L27
 167 006c 03F58063 		add	r3, r3, #1024
 168 0070 9842     		cmp	r0, r3
 169 0072 03D1     		bne	.L36
 170 0074 0320     		movs	r0, #3
 171 0076 FFF7FEFF 		bl	rcu_clock_freq_get
 172 007a E3E7     		b	.L25
 173              	.L36:
 174 007c A3F51843 		sub	r3, r3, #38912
ARM GAS  /tmp/cc32xsTs.s 			page 4


 175 0080 9842     		cmp	r0, r3
 176 0082 03D1     		bne	.L37
 177 0084 0220     		movs	r0, #2
 178 0086 FFF7FEFF 		bl	rcu_clock_freq_get
 179 008a DBE7     		b	.L25
 180              	.L37:
 181 008c 0020     		movs	r0, #0
 182 008e D9E7     		b	.L25
 183              	.L27:
 184 0090 0320     		movs	r0, #3
 185 0092 FFF7FEFF 		bl	rcu_clock_freq_get
 186 0096 D5E7     		b	.L25
 187              	.L23:
 188 0098 0220     		movs	r0, #2
 189 009a FFF7FEFF 		bl	rcu_clock_freq_get
 190 009e D1E7     		b	.L25
 191              	.L21:
 192 00a0 0220     		movs	r0, #2
 193 00a2 FFF7FEFF 		bl	rcu_clock_freq_get
 194 00a6 CDE7     		b	.L25
 195              	.L19:
 196 00a8 0220     		movs	r0, #2
 197 00aa FFF7FEFF 		bl	rcu_clock_freq_get
 198 00ae C9E7     		b	.L25
 199              	.L30:
 200 00b0 00EB5500 		add	r0, r0, r5, lsr #1
 201 00b4 B0FBF5F0 		udiv	r0, r0, r5
 202 00b8 80B2     		uxth	r0, r0
 203 00ba A060     		str	r0, [r4, #8]
 204 00bc D2E7     		b	.L18
 205              	.L39:
 206 00be 00BF     		.align	2
 207              	.L38:
 208 00c0 00780040 		.word	1073772544
 209 00c4 00500040 		.word	1073762304
 210 00c8 00100140 		.word	1073811456
 212              		.section	.text.usart_parity_config,"ax",%progbits
 213              		.align	1
 214              		.global	usart_parity_config
 215              		.syntax unified
 216              		.thumb
 217              		.thumb_func
 219              	usart_parity_config:
 220              		@ args = 0, pretend = 0, frame = 0
 221              		@ frame_needed = 0, uses_anonymous_args = 0
 222              		@ link register save eliminated.
 223 0000 C368     		ldr	r3, [r0, #12]
 224 0002 23F4C063 		bic	r3, r3, #1536
 225 0006 C360     		str	r3, [r0, #12]
 226 0008 C368     		ldr	r3, [r0, #12]
 227 000a 0B43     		orrs	r3, r3, r1
 228 000c C360     		str	r3, [r0, #12]
 229 000e 7047     		bx	lr
 231              		.section	.text.usart_word_length_set,"ax",%progbits
 232              		.align	1
 233              		.global	usart_word_length_set
 234              		.syntax unified
ARM GAS  /tmp/cc32xsTs.s 			page 5


 235              		.thumb
 236              		.thumb_func
 238              	usart_word_length_set:
 239              		@ args = 0, pretend = 0, frame = 0
 240              		@ frame_needed = 0, uses_anonymous_args = 0
 241              		@ link register save eliminated.
 242 0000 C368     		ldr	r3, [r0, #12]
 243 0002 23F48053 		bic	r3, r3, #4096
 244 0006 C360     		str	r3, [r0, #12]
 245 0008 C368     		ldr	r3, [r0, #12]
 246 000a 0B43     		orrs	r3, r3, r1
 247 000c C360     		str	r3, [r0, #12]
 248 000e 7047     		bx	lr
 250              		.section	.text.usart_stop_bit_set,"ax",%progbits
 251              		.align	1
 252              		.global	usart_stop_bit_set
 253              		.syntax unified
 254              		.thumb
 255              		.thumb_func
 257              	usart_stop_bit_set:
 258              		@ args = 0, pretend = 0, frame = 0
 259              		@ frame_needed = 0, uses_anonymous_args = 0
 260              		@ link register save eliminated.
 261 0000 0369     		ldr	r3, [r0, #16]
 262 0002 23F44053 		bic	r3, r3, #12288
 263 0006 0361     		str	r3, [r0, #16]
 264 0008 0369     		ldr	r3, [r0, #16]
 265 000a 0B43     		orrs	r3, r3, r1
 266 000c 0361     		str	r3, [r0, #16]
 267 000e 7047     		bx	lr
 269              		.section	.text.usart_enable,"ax",%progbits
 270              		.align	1
 271              		.global	usart_enable
 272              		.syntax unified
 273              		.thumb
 274              		.thumb_func
 276              	usart_enable:
 277              		@ args = 0, pretend = 0, frame = 0
 278              		@ frame_needed = 0, uses_anonymous_args = 0
 279              		@ link register save eliminated.
 280 0000 C368     		ldr	r3, [r0, #12]
 281 0002 43F40053 		orr	r3, r3, #8192
 282 0006 C360     		str	r3, [r0, #12]
 283 0008 7047     		bx	lr
 285              		.section	.text.usart_disable,"ax",%progbits
 286              		.align	1
 287              		.global	usart_disable
 288              		.syntax unified
 289              		.thumb
 290              		.thumb_func
 292              	usart_disable:
 293              		@ args = 0, pretend = 0, frame = 0
 294              		@ frame_needed = 0, uses_anonymous_args = 0
 295              		@ link register save eliminated.
 296 0000 C368     		ldr	r3, [r0, #12]
 297 0002 23F40053 		bic	r3, r3, #8192
 298 0006 C360     		str	r3, [r0, #12]
ARM GAS  /tmp/cc32xsTs.s 			page 6


 299 0008 7047     		bx	lr
 301              		.section	.text.usart_transmit_config,"ax",%progbits
 302              		.align	1
 303              		.global	usart_transmit_config
 304              		.syntax unified
 305              		.thumb
 306              		.thumb_func
 308              	usart_transmit_config:
 309              		@ args = 0, pretend = 0, frame = 0
 310              		@ frame_needed = 0, uses_anonymous_args = 0
 311              		@ link register save eliminated.
 312 0000 C368     		ldr	r3, [r0, #12]
 313 0002 23F00803 		bic	r3, r3, #8
 314 0006 0B43     		orrs	r3, r3, r1
 315 0008 C360     		str	r3, [r0, #12]
 316 000a 7047     		bx	lr
 318              		.section	.text.usart_receive_config,"ax",%progbits
 319              		.align	1
 320              		.global	usart_receive_config
 321              		.syntax unified
 322              		.thumb
 323              		.thumb_func
 325              	usart_receive_config:
 326              		@ args = 0, pretend = 0, frame = 0
 327              		@ frame_needed = 0, uses_anonymous_args = 0
 328              		@ link register save eliminated.
 329 0000 C368     		ldr	r3, [r0, #12]
 330 0002 23F00403 		bic	r3, r3, #4
 331 0006 0B43     		orrs	r3, r3, r1
 332 0008 C360     		str	r3, [r0, #12]
 333 000a 7047     		bx	lr
 335              		.section	.text.usart_data_first_config,"ax",%progbits
 336              		.align	1
 337              		.global	usart_data_first_config
 338              		.syntax unified
 339              		.thumb
 340              		.thumb_func
 342              	usart_data_first_config:
 343              		@ args = 0, pretend = 0, frame = 0
 344              		@ frame_needed = 0, uses_anonymous_args = 0
 345              		@ link register save eliminated.
 346 0000 D0F88030 		ldr	r3, [r0, #128]
 347 0004 23F40063 		bic	r3, r3, #2048
 348 0008 0B43     		orrs	r3, r3, r1
 349 000a C0F88030 		str	r3, [r0, #128]
 350 000e 7047     		bx	lr
 352              		.section	.text.usart_invert_config,"ax",%progbits
 353              		.align	1
 354              		.global	usart_invert_config
 355              		.syntax unified
 356              		.thumb
 357              		.thumb_func
 359              	usart_invert_config:
 360              		@ args = 0, pretend = 0, frame = 0
 361              		@ frame_needed = 0, uses_anonymous_args = 0
 362              		@ link register save eliminated.
 363 0000 0529     		cmp	r1, #5
ARM GAS  /tmp/cc32xsTs.s 			page 7


 364 0002 2DD8     		bhi	.L48
 365 0004 DFE801F0 		tbb	[pc, r1]
 366              	.L51:
 367 0008 03       		.byte	(.L56-.L51)/2
 368 0009 18       		.byte	(.L55-.L51)/2
 369 000a 0A       		.byte	(.L54-.L51)/2
 370 000b 1F       		.byte	(.L53-.L51)/2
 371 000c 11       		.byte	(.L52-.L51)/2
 372 000d 26       		.byte	(.L50-.L51)/2
 373              		.p2align 1
 374              	.L56:
 375 000e D0F88030 		ldr	r3, [r0, #128]
 376 0012 43F48063 		orr	r3, r3, #1024
 377 0016 C0F88030 		str	r3, [r0, #128]
 378 001a 7047     		bx	lr
 379              	.L54:
 380 001c D0F88030 		ldr	r3, [r0, #128]
 381 0020 43F40073 		orr	r3, r3, #512
 382 0024 C0F88030 		str	r3, [r0, #128]
 383 0028 7047     		bx	lr
 384              	.L52:
 385 002a D0F88030 		ldr	r3, [r0, #128]
 386 002e 43F48073 		orr	r3, r3, #256
 387 0032 C0F88030 		str	r3, [r0, #128]
 388 0036 7047     		bx	lr
 389              	.L55:
 390 0038 D0F88030 		ldr	r3, [r0, #128]
 391 003c 23F48063 		bic	r3, r3, #1024
 392 0040 C0F88030 		str	r3, [r0, #128]
 393 0044 7047     		bx	lr
 394              	.L53:
 395 0046 D0F88030 		ldr	r3, [r0, #128]
 396 004a 23F40073 		bic	r3, r3, #512
 397 004e C0F88030 		str	r3, [r0, #128]
 398 0052 7047     		bx	lr
 399              	.L50:
 400 0054 D0F88030 		ldr	r3, [r0, #128]
 401 0058 23F48073 		bic	r3, r3, #256
 402 005c C0F88030 		str	r3, [r0, #128]
 403              	.L48:
 404 0060 7047     		bx	lr
 406              		.section	.text.usart_oversample_config,"ax",%progbits
 407              		.align	1
 408              		.global	usart_oversample_config
 409              		.syntax unified
 410              		.thumb
 411              		.thumb_func
 413              	usart_oversample_config:
 414              		@ args = 0, pretend = 0, frame = 0
 415              		@ frame_needed = 0, uses_anonymous_args = 0
 416              		@ link register save eliminated.
 417 0000 C368     		ldr	r3, [r0, #12]
 418 0002 23F40043 		bic	r3, r3, #32768
 419 0006 C360     		str	r3, [r0, #12]
 420 0008 C368     		ldr	r3, [r0, #12]
 421 000a 0B43     		orrs	r3, r3, r1
 422 000c C360     		str	r3, [r0, #12]
ARM GAS  /tmp/cc32xsTs.s 			page 8


 423 000e 7047     		bx	lr
 425              		.section	.text.usart_sample_bit_config,"ax",%progbits
 426              		.align	1
 427              		.global	usart_sample_bit_config
 428              		.syntax unified
 429              		.thumb
 430              		.thumb_func
 432              	usart_sample_bit_config:
 433              		@ args = 0, pretend = 0, frame = 0
 434              		@ frame_needed = 0, uses_anonymous_args = 0
 435              		@ link register save eliminated.
 436 0000 4369     		ldr	r3, [r0, #20]
 437 0002 23F40063 		bic	r3, r3, #2048
 438 0006 4361     		str	r3, [r0, #20]
 439 0008 4369     		ldr	r3, [r0, #20]
 440 000a 0B43     		orrs	r3, r3, r1
 441 000c 4361     		str	r3, [r0, #20]
 442 000e 7047     		bx	lr
 444              		.section	.text.usart_receiver_timeout_enable,"ax",%progbits
 445              		.align	1
 446              		.global	usart_receiver_timeout_enable
 447              		.syntax unified
 448              		.thumb
 449              		.thumb_func
 451              	usart_receiver_timeout_enable:
 452              		@ args = 0, pretend = 0, frame = 0
 453              		@ frame_needed = 0, uses_anonymous_args = 0
 454              		@ link register save eliminated.
 455 0000 D0F88030 		ldr	r3, [r0, #128]
 456 0004 43F00103 		orr	r3, r3, #1
 457 0008 C0F88030 		str	r3, [r0, #128]
 458 000c 7047     		bx	lr
 460              		.section	.text.usart_receiver_timeout_disable,"ax",%progbits
 461              		.align	1
 462              		.global	usart_receiver_timeout_disable
 463              		.syntax unified
 464              		.thumb
 465              		.thumb_func
 467              	usart_receiver_timeout_disable:
 468              		@ args = 0, pretend = 0, frame = 0
 469              		@ frame_needed = 0, uses_anonymous_args = 0
 470              		@ link register save eliminated.
 471 0000 D0F88030 		ldr	r3, [r0, #128]
 472 0004 23F00103 		bic	r3, r3, #1
 473 0008 C0F88030 		str	r3, [r0, #128]
 474 000c 7047     		bx	lr
 476              		.section	.text.usart_receiver_timeout_threshold_config,"ax",%progbits
 477              		.align	1
 478              		.global	usart_receiver_timeout_threshold_config
 479              		.syntax unified
 480              		.thumb
 481              		.thumb_func
 483              	usart_receiver_timeout_threshold_config:
 484              		@ args = 0, pretend = 0, frame = 0
 485              		@ frame_needed = 0, uses_anonymous_args = 0
 486              		@ link register save eliminated.
 487 0000 D0F88430 		ldr	r3, [r0, #132]
ARM GAS  /tmp/cc32xsTs.s 			page 9


 488 0004 03F07F43 		and	r3, r3, #-16777216
 489 0008 C0F88430 		str	r3, [r0, #132]
 490 000c D0F88430 		ldr	r3, [r0, #132]
 491 0010 0B43     		orrs	r3, r3, r1
 492 0012 C0F88430 		str	r3, [r0, #132]
 493 0016 7047     		bx	lr
 495              		.section	.text.usart_data_transmit,"ax",%progbits
 496              		.align	1
 497              		.global	usart_data_transmit
 498              		.syntax unified
 499              		.thumb
 500              		.thumb_func
 502              	usart_data_transmit:
 503              		@ args = 0, pretend = 0, frame = 0
 504              		@ frame_needed = 0, uses_anonymous_args = 0
 505              		@ link register save eliminated.
 506 0000 C1F30801 		ubfx	r1, r1, #0, #9
 507 0004 4160     		str	r1, [r0, #4]
 508 0006 7047     		bx	lr
 510              		.section	.text.usart_data_receive,"ax",%progbits
 511              		.align	1
 512              		.global	usart_data_receive
 513              		.syntax unified
 514              		.thumb
 515              		.thumb_func
 517              	usart_data_receive:
 518              		@ args = 0, pretend = 0, frame = 0
 519              		@ frame_needed = 0, uses_anonymous_args = 0
 520              		@ link register save eliminated.
 521 0000 4068     		ldr	r0, [r0, #4]
 522 0002 C0F30800 		ubfx	r0, r0, #0, #9
 523 0006 7047     		bx	lr
 525              		.section	.text.usart_address_config,"ax",%progbits
 526              		.align	1
 527              		.global	usart_address_config
 528              		.syntax unified
 529              		.thumb
 530              		.thumb_func
 532              	usart_address_config:
 533              		@ args = 0, pretend = 0, frame = 0
 534              		@ frame_needed = 0, uses_anonymous_args = 0
 535              		@ link register save eliminated.
 536 0000 0369     		ldr	r3, [r0, #16]
 537 0002 23F00F03 		bic	r3, r3, #15
 538 0006 0361     		str	r3, [r0, #16]
 539 0008 0369     		ldr	r3, [r0, #16]
 540 000a 01F00F01 		and	r1, r1, #15
 541 000e 0B43     		orrs	r3, r3, r1
 542 0010 0361     		str	r3, [r0, #16]
 543 0012 7047     		bx	lr
 545              		.section	.text.usart_mute_mode_enable,"ax",%progbits
 546              		.align	1
 547              		.global	usart_mute_mode_enable
 548              		.syntax unified
 549              		.thumb
 550              		.thumb_func
 552              	usart_mute_mode_enable:
ARM GAS  /tmp/cc32xsTs.s 			page 10


 553              		@ args = 0, pretend = 0, frame = 0
 554              		@ frame_needed = 0, uses_anonymous_args = 0
 555              		@ link register save eliminated.
 556 0000 C368     		ldr	r3, [r0, #12]
 557 0002 43F00203 		orr	r3, r3, #2
 558 0006 C360     		str	r3, [r0, #12]
 559 0008 7047     		bx	lr
 561              		.section	.text.usart_mute_mode_disable,"ax",%progbits
 562              		.align	1
 563              		.global	usart_mute_mode_disable
 564              		.syntax unified
 565              		.thumb
 566              		.thumb_func
 568              	usart_mute_mode_disable:
 569              		@ args = 0, pretend = 0, frame = 0
 570              		@ frame_needed = 0, uses_anonymous_args = 0
 571              		@ link register save eliminated.
 572 0000 C368     		ldr	r3, [r0, #12]
 573 0002 23F00203 		bic	r3, r3, #2
 574 0006 C360     		str	r3, [r0, #12]
 575 0008 7047     		bx	lr
 577              		.section	.text.usart_mute_mode_wakeup_config,"ax",%progbits
 578              		.align	1
 579              		.global	usart_mute_mode_wakeup_config
 580              		.syntax unified
 581              		.thumb
 582              		.thumb_func
 584              	usart_mute_mode_wakeup_config:
 585              		@ args = 0, pretend = 0, frame = 0
 586              		@ frame_needed = 0, uses_anonymous_args = 0
 587              		@ link register save eliminated.
 588 0000 C368     		ldr	r3, [r0, #12]
 589 0002 23F40063 		bic	r3, r3, #2048
 590 0006 C360     		str	r3, [r0, #12]
 591 0008 C368     		ldr	r3, [r0, #12]
 592 000a 0B43     		orrs	r3, r3, r1
 593 000c C360     		str	r3, [r0, #12]
 594 000e 7047     		bx	lr
 596              		.section	.text.usart_lin_mode_enable,"ax",%progbits
 597              		.align	1
 598              		.global	usart_lin_mode_enable
 599              		.syntax unified
 600              		.thumb
 601              		.thumb_func
 603              	usart_lin_mode_enable:
 604              		@ args = 0, pretend = 0, frame = 0
 605              		@ frame_needed = 0, uses_anonymous_args = 0
 606              		@ link register save eliminated.
 607 0000 0369     		ldr	r3, [r0, #16]
 608 0002 43F48043 		orr	r3, r3, #16384
 609 0006 0361     		str	r3, [r0, #16]
 610 0008 7047     		bx	lr
 612              		.section	.text.usart_lin_mode_disable,"ax",%progbits
 613              		.align	1
 614              		.global	usart_lin_mode_disable
 615              		.syntax unified
 616              		.thumb
ARM GAS  /tmp/cc32xsTs.s 			page 11


 617              		.thumb_func
 619              	usart_lin_mode_disable:
 620              		@ args = 0, pretend = 0, frame = 0
 621              		@ frame_needed = 0, uses_anonymous_args = 0
 622              		@ link register save eliminated.
 623 0000 0369     		ldr	r3, [r0, #16]
 624 0002 23F48043 		bic	r3, r3, #16384
 625 0006 0361     		str	r3, [r0, #16]
 626 0008 7047     		bx	lr
 628              		.section	.text.usart_lin_break_detection_length_config,"ax",%progbits
 629              		.align	1
 630              		.global	usart_lin_break_detection_length_config
 631              		.syntax unified
 632              		.thumb
 633              		.thumb_func
 635              	usart_lin_break_detection_length_config:
 636              		@ args = 0, pretend = 0, frame = 0
 637              		@ frame_needed = 0, uses_anonymous_args = 0
 638              		@ link register save eliminated.
 639 0000 0369     		ldr	r3, [r0, #16]
 640 0002 23F02003 		bic	r3, r3, #32
 641 0006 0361     		str	r3, [r0, #16]
 642 0008 0369     		ldr	r3, [r0, #16]
 643 000a 01F02001 		and	r1, r1, #32
 644 000e 0B43     		orrs	r3, r3, r1
 645 0010 0361     		str	r3, [r0, #16]
 646 0012 7047     		bx	lr
 648              		.section	.text.usart_send_break,"ax",%progbits
 649              		.align	1
 650              		.global	usart_send_break
 651              		.syntax unified
 652              		.thumb
 653              		.thumb_func
 655              	usart_send_break:
 656              		@ args = 0, pretend = 0, frame = 0
 657              		@ frame_needed = 0, uses_anonymous_args = 0
 658              		@ link register save eliminated.
 659 0000 C368     		ldr	r3, [r0, #12]
 660 0002 43F00103 		orr	r3, r3, #1
 661 0006 C360     		str	r3, [r0, #12]
 662 0008 7047     		bx	lr
 664              		.section	.text.usart_halfduplex_enable,"ax",%progbits
 665              		.align	1
 666              		.global	usart_halfduplex_enable
 667              		.syntax unified
 668              		.thumb
 669              		.thumb_func
 671              	usart_halfduplex_enable:
 672              		@ args = 0, pretend = 0, frame = 0
 673              		@ frame_needed = 0, uses_anonymous_args = 0
 674              		@ link register save eliminated.
 675 0000 4369     		ldr	r3, [r0, #20]
 676 0002 43F00803 		orr	r3, r3, #8
 677 0006 4361     		str	r3, [r0, #20]
 678 0008 7047     		bx	lr
 680              		.section	.text.usart_halfduplex_disable,"ax",%progbits
 681              		.align	1
ARM GAS  /tmp/cc32xsTs.s 			page 12


 682              		.global	usart_halfduplex_disable
 683              		.syntax unified
 684              		.thumb
 685              		.thumb_func
 687              	usart_halfduplex_disable:
 688              		@ args = 0, pretend = 0, frame = 0
 689              		@ frame_needed = 0, uses_anonymous_args = 0
 690              		@ link register save eliminated.
 691 0000 4369     		ldr	r3, [r0, #20]
 692 0002 23F00803 		bic	r3, r3, #8
 693 0006 4361     		str	r3, [r0, #20]
 694 0008 7047     		bx	lr
 696              		.section	.text.usart_synchronous_clock_enable,"ax",%progbits
 697              		.align	1
 698              		.global	usart_synchronous_clock_enable
 699              		.syntax unified
 700              		.thumb
 701              		.thumb_func
 703              	usart_synchronous_clock_enable:
 704              		@ args = 0, pretend = 0, frame = 0
 705              		@ frame_needed = 0, uses_anonymous_args = 0
 706              		@ link register save eliminated.
 707 0000 0369     		ldr	r3, [r0, #16]
 708 0002 43F40063 		orr	r3, r3, #2048
 709 0006 0361     		str	r3, [r0, #16]
 710 0008 7047     		bx	lr
 712              		.section	.text.usart_synchronous_clock_disable,"ax",%progbits
 713              		.align	1
 714              		.global	usart_synchronous_clock_disable
 715              		.syntax unified
 716              		.thumb
 717              		.thumb_func
 719              	usart_synchronous_clock_disable:
 720              		@ args = 0, pretend = 0, frame = 0
 721              		@ frame_needed = 0, uses_anonymous_args = 0
 722              		@ link register save eliminated.
 723 0000 0369     		ldr	r3, [r0, #16]
 724 0002 23F40063 		bic	r3, r3, #2048
 725 0006 0361     		str	r3, [r0, #16]
 726 0008 7047     		bx	lr
 728              		.section	.text.usart_synchronous_clock_config,"ax",%progbits
 729              		.align	1
 730              		.global	usart_synchronous_clock_config
 731              		.syntax unified
 732              		.thumb
 733              		.thumb_func
 735              	usart_synchronous_clock_config:
 736              		@ args = 0, pretend = 0, frame = 0
 737              		@ frame_needed = 0, uses_anonymous_args = 0
 738              		@ link register save eliminated.
 739 0000 10B4     		push	{r4}
 740 0002 0469     		ldr	r4, [r0, #16]
 741 0004 24F4E064 		bic	r4, r4, #1792
 742 0008 0461     		str	r4, [r0, #16]
 743 000a 01F48071 		and	r1, r1, #256
 744 000e 02F40072 		and	r2, r2, #512
 745 0012 1143     		orrs	r1, r1, r2
ARM GAS  /tmp/cc32xsTs.s 			page 13


 746 0014 03F48063 		and	r3, r3, #1024
 747 0018 1943     		orrs	r1, r1, r3
 748 001a 0161     		str	r1, [r0, #16]
 749 001c 10BC     		pop	{r4}
 750 001e 7047     		bx	lr
 752              		.section	.text.usart_guard_time_config,"ax",%progbits
 753              		.align	1
 754              		.global	usart_guard_time_config
 755              		.syntax unified
 756              		.thumb
 757              		.thumb_func
 759              	usart_guard_time_config:
 760              		@ args = 0, pretend = 0, frame = 0
 761              		@ frame_needed = 0, uses_anonymous_args = 0
 762              		@ link register save eliminated.
 763 0000 8369     		ldr	r3, [r0, #24]
 764 0002 23F47F43 		bic	r3, r3, #65280
 765 0006 8361     		str	r3, [r0, #24]
 766 0008 8369     		ldr	r3, [r0, #24]
 767 000a 43EA0123 		orr	r3, r3, r1, lsl #8
 768 000e 8361     		str	r3, [r0, #24]
 769 0010 7047     		bx	lr
 771              		.section	.text.usart_smartcard_mode_enable,"ax",%progbits
 772              		.align	1
 773              		.global	usart_smartcard_mode_enable
 774              		.syntax unified
 775              		.thumb
 776              		.thumb_func
 778              	usart_smartcard_mode_enable:
 779              		@ args = 0, pretend = 0, frame = 0
 780              		@ frame_needed = 0, uses_anonymous_args = 0
 781              		@ link register save eliminated.
 782 0000 4369     		ldr	r3, [r0, #20]
 783 0002 43F02003 		orr	r3, r3, #32
 784 0006 4361     		str	r3, [r0, #20]
 785 0008 7047     		bx	lr
 787              		.section	.text.usart_smartcard_mode_disable,"ax",%progbits
 788              		.align	1
 789              		.global	usart_smartcard_mode_disable
 790              		.syntax unified
 791              		.thumb
 792              		.thumb_func
 794              	usart_smartcard_mode_disable:
 795              		@ args = 0, pretend = 0, frame = 0
 796              		@ frame_needed = 0, uses_anonymous_args = 0
 797              		@ link register save eliminated.
 798 0000 4369     		ldr	r3, [r0, #20]
 799 0002 23F02003 		bic	r3, r3, #32
 800 0006 4361     		str	r3, [r0, #20]
 801 0008 7047     		bx	lr
 803              		.section	.text.usart_smartcard_mode_nack_enable,"ax",%progbits
 804              		.align	1
 805              		.global	usart_smartcard_mode_nack_enable
 806              		.syntax unified
 807              		.thumb
 808              		.thumb_func
 810              	usart_smartcard_mode_nack_enable:
ARM GAS  /tmp/cc32xsTs.s 			page 14


 811              		@ args = 0, pretend = 0, frame = 0
 812              		@ frame_needed = 0, uses_anonymous_args = 0
 813              		@ link register save eliminated.
 814 0000 4369     		ldr	r3, [r0, #20]
 815 0002 43F01003 		orr	r3, r3, #16
 816 0006 4361     		str	r3, [r0, #20]
 817 0008 7047     		bx	lr
 819              		.section	.text.usart_smartcard_mode_nack_disable,"ax",%progbits
 820              		.align	1
 821              		.global	usart_smartcard_mode_nack_disable
 822              		.syntax unified
 823              		.thumb
 824              		.thumb_func
 826              	usart_smartcard_mode_nack_disable:
 827              		@ args = 0, pretend = 0, frame = 0
 828              		@ frame_needed = 0, uses_anonymous_args = 0
 829              		@ link register save eliminated.
 830 0000 4369     		ldr	r3, [r0, #20]
 831 0002 23F01003 		bic	r3, r3, #16
 832 0006 4361     		str	r3, [r0, #20]
 833 0008 7047     		bx	lr
 835              		.section	.text.usart_smartcard_autoretry_config,"ax",%progbits
 836              		.align	1
 837              		.global	usart_smartcard_autoretry_config
 838              		.syntax unified
 839              		.thumb
 840              		.thumb_func
 842              	usart_smartcard_autoretry_config:
 843              		@ args = 0, pretend = 0, frame = 0
 844              		@ frame_needed = 0, uses_anonymous_args = 0
 845              		@ link register save eliminated.
 846 0000 D0F88030 		ldr	r3, [r0, #128]
 847 0004 23F00E03 		bic	r3, r3, #14
 848 0008 C0F88030 		str	r3, [r0, #128]
 849 000c D0F88030 		ldr	r3, [r0, #128]
 850 0010 4900     		lsls	r1, r1, #1
 851 0012 01F00E01 		and	r1, r1, #14
 852 0016 0B43     		orrs	r3, r3, r1
 853 0018 C0F88030 		str	r3, [r0, #128]
 854 001c 7047     		bx	lr
 856              		.section	.text.usart_block_length_config,"ax",%progbits
 857              		.align	1
 858              		.global	usart_block_length_config
 859              		.syntax unified
 860              		.thumb
 861              		.thumb_func
 863              	usart_block_length_config:
 864              		@ args = 0, pretend = 0, frame = 0
 865              		@ frame_needed = 0, uses_anonymous_args = 0
 866              		@ link register save eliminated.
 867 0000 D0F88430 		ldr	r3, [r0, #132]
 868 0004 23F07F43 		bic	r3, r3, #-16777216
 869 0008 C0F88430 		str	r3, [r0, #132]
 870 000c D0F88430 		ldr	r3, [r0, #132]
 871 0010 43EA0163 		orr	r3, r3, r1, lsl #24
 872 0014 C0F88430 		str	r3, [r0, #132]
 873 0018 7047     		bx	lr
ARM GAS  /tmp/cc32xsTs.s 			page 15


 875              		.section	.text.usart_irda_mode_enable,"ax",%progbits
 876              		.align	1
 877              		.global	usart_irda_mode_enable
 878              		.syntax unified
 879              		.thumb
 880              		.thumb_func
 882              	usart_irda_mode_enable:
 883              		@ args = 0, pretend = 0, frame = 0
 884              		@ frame_needed = 0, uses_anonymous_args = 0
 885              		@ link register save eliminated.
 886 0000 4369     		ldr	r3, [r0, #20]
 887 0002 43F00203 		orr	r3, r3, #2
 888 0006 4361     		str	r3, [r0, #20]
 889 0008 7047     		bx	lr
 891              		.section	.text.usart_irda_mode_disable,"ax",%progbits
 892              		.align	1
 893              		.global	usart_irda_mode_disable
 894              		.syntax unified
 895              		.thumb
 896              		.thumb_func
 898              	usart_irda_mode_disable:
 899              		@ args = 0, pretend = 0, frame = 0
 900              		@ frame_needed = 0, uses_anonymous_args = 0
 901              		@ link register save eliminated.
 902 0000 4369     		ldr	r3, [r0, #20]
 903 0002 23F00203 		bic	r3, r3, #2
 904 0006 4361     		str	r3, [r0, #20]
 905 0008 7047     		bx	lr
 907              		.section	.text.usart_prescaler_config,"ax",%progbits
 908              		.align	1
 909              		.global	usart_prescaler_config
 910              		.syntax unified
 911              		.thumb
 912              		.thumb_func
 914              	usart_prescaler_config:
 915              		@ args = 0, pretend = 0, frame = 0
 916              		@ frame_needed = 0, uses_anonymous_args = 0
 917              		@ link register save eliminated.
 918 0000 8369     		ldr	r3, [r0, #24]
 919 0002 23F0FF03 		bic	r3, r3, #255
 920 0006 8361     		str	r3, [r0, #24]
 921 0008 8369     		ldr	r3, [r0, #24]
 922 000a 0B43     		orrs	r3, r3, r1
 923 000c 8361     		str	r3, [r0, #24]
 924 000e 7047     		bx	lr
 926              		.section	.text.usart_irda_lowpower_config,"ax",%progbits
 927              		.align	1
 928              		.global	usart_irda_lowpower_config
 929              		.syntax unified
 930              		.thumb
 931              		.thumb_func
 933              	usart_irda_lowpower_config:
 934              		@ args = 0, pretend = 0, frame = 0
 935              		@ frame_needed = 0, uses_anonymous_args = 0
 936              		@ link register save eliminated.
 937 0000 4369     		ldr	r3, [r0, #20]
 938 0002 23F00403 		bic	r3, r3, #4
ARM GAS  /tmp/cc32xsTs.s 			page 16


 939 0006 4361     		str	r3, [r0, #20]
 940 0008 4369     		ldr	r3, [r0, #20]
 941 000a 01F00401 		and	r1, r1, #4
 942 000e 0B43     		orrs	r3, r3, r1
 943 0010 4361     		str	r3, [r0, #20]
 944 0012 7047     		bx	lr
 946              		.section	.text.usart_hardware_flow_rts_config,"ax",%progbits
 947              		.align	1
 948              		.global	usart_hardware_flow_rts_config
 949              		.syntax unified
 950              		.thumb
 951              		.thumb_func
 953              	usart_hardware_flow_rts_config:
 954              		@ args = 0, pretend = 0, frame = 0
 955              		@ frame_needed = 0, uses_anonymous_args = 0
 956              		@ link register save eliminated.
 957 0000 4369     		ldr	r3, [r0, #20]
 958 0002 23F48073 		bic	r3, r3, #256
 959 0006 4361     		str	r3, [r0, #20]
 960 0008 4369     		ldr	r3, [r0, #20]
 961 000a 01F48071 		and	r1, r1, #256
 962 000e 0B43     		orrs	r3, r3, r1
 963 0010 4361     		str	r3, [r0, #20]
 964 0012 7047     		bx	lr
 966              		.section	.text.usart_hardware_flow_cts_config,"ax",%progbits
 967              		.align	1
 968              		.global	usart_hardware_flow_cts_config
 969              		.syntax unified
 970              		.thumb
 971              		.thumb_func
 973              	usart_hardware_flow_cts_config:
 974              		@ args = 0, pretend = 0, frame = 0
 975              		@ frame_needed = 0, uses_anonymous_args = 0
 976              		@ link register save eliminated.
 977 0000 4369     		ldr	r3, [r0, #20]
 978 0002 23F40073 		bic	r3, r3, #512
 979 0006 4361     		str	r3, [r0, #20]
 980 0008 4369     		ldr	r3, [r0, #20]
 981 000a 01F40071 		and	r1, r1, #512
 982 000e 0B43     		orrs	r3, r3, r1
 983 0010 4361     		str	r3, [r0, #20]
 984 0012 7047     		bx	lr
 986              		.section	.text.usart_break_frame_coherence_config,"ax",%progbits
 987              		.align	1
 988              		.global	usart_break_frame_coherence_config
 989              		.syntax unified
 990              		.thumb
 991              		.thumb_func
 993              	usart_break_frame_coherence_config:
 994              		@ args = 0, pretend = 0, frame = 0
 995              		@ frame_needed = 0, uses_anonymous_args = 0
 996              		@ link register save eliminated.
 997 0000 D0F8C030 		ldr	r3, [r0, #192]
 998 0004 23F00403 		bic	r3, r3, #4
 999 0008 C0F8C030 		str	r3, [r0, #192]
 1000 000c D0F8C030 		ldr	r3, [r0, #192]
 1001 0010 01F00401 		and	r1, r1, #4
ARM GAS  /tmp/cc32xsTs.s 			page 17


 1002 0014 0B43     		orrs	r3, r3, r1
 1003 0016 C0F8C030 		str	r3, [r0, #192]
 1004 001a 7047     		bx	lr
 1006              		.section	.text.usart_parity_check_coherence_config,"ax",%progbits
 1007              		.align	1
 1008              		.global	usart_parity_check_coherence_config
 1009              		.syntax unified
 1010              		.thumb
 1011              		.thumb_func
 1013              	usart_parity_check_coherence_config:
 1014              		@ args = 0, pretend = 0, frame = 0
 1015              		@ frame_needed = 0, uses_anonymous_args = 0
 1016              		@ link register save eliminated.
 1017 0000 D0F8C030 		ldr	r3, [r0, #192]
 1018 0004 23F00203 		bic	r3, r3, #2
 1019 0008 C0F8C030 		str	r3, [r0, #192]
 1020 000c D0F8C030 		ldr	r3, [r0, #192]
 1021 0010 01F00201 		and	r1, r1, #2
 1022 0014 0B43     		orrs	r3, r3, r1
 1023 0016 C0F8C030 		str	r3, [r0, #192]
 1024 001a 7047     		bx	lr
 1026              		.section	.text.usart_hardware_flow_coherence_config,"ax",%progbits
 1027              		.align	1
 1028              		.global	usart_hardware_flow_coherence_config
 1029              		.syntax unified
 1030              		.thumb
 1031              		.thumb_func
 1033              	usart_hardware_flow_coherence_config:
 1034              		@ args = 0, pretend = 0, frame = 0
 1035              		@ frame_needed = 0, uses_anonymous_args = 0
 1036              		@ link register save eliminated.
 1037 0000 D0F8C030 		ldr	r3, [r0, #192]
 1038 0004 23F00103 		bic	r3, r3, #1
 1039 0008 C0F8C030 		str	r3, [r0, #192]
 1040 000c D0F8C030 		ldr	r3, [r0, #192]
 1041 0010 01F00101 		and	r1, r1, #1
 1042 0014 0B43     		orrs	r3, r3, r1
 1043 0016 C0F8C030 		str	r3, [r0, #192]
 1044 001a 7047     		bx	lr
 1046              		.section	.text.usart_dma_receive_config,"ax",%progbits
 1047              		.align	1
 1048              		.global	usart_dma_receive_config
 1049              		.syntax unified
 1050              		.thumb
 1051              		.thumb_func
 1053              	usart_dma_receive_config:
 1054              		@ args = 0, pretend = 0, frame = 0
 1055              		@ frame_needed = 0, uses_anonymous_args = 0
 1056              		@ link register save eliminated.
 1057 0000 4369     		ldr	r3, [r0, #20]
 1058 0002 23F04003 		bic	r3, r3, #64
 1059 0006 4361     		str	r3, [r0, #20]
 1060 0008 4369     		ldr	r3, [r0, #20]
 1061 000a 01F04001 		and	r1, r1, #64
 1062 000e 0B43     		orrs	r3, r3, r1
 1063 0010 4361     		str	r3, [r0, #20]
 1064 0012 7047     		bx	lr
ARM GAS  /tmp/cc32xsTs.s 			page 18


 1066              		.section	.text.usart_dma_transmit_config,"ax",%progbits
 1067              		.align	1
 1068              		.global	usart_dma_transmit_config
 1069              		.syntax unified
 1070              		.thumb
 1071              		.thumb_func
 1073              	usart_dma_transmit_config:
 1074              		@ args = 0, pretend = 0, frame = 0
 1075              		@ frame_needed = 0, uses_anonymous_args = 0
 1076              		@ link register save eliminated.
 1077 0000 4369     		ldr	r3, [r0, #20]
 1078 0002 23F08003 		bic	r3, r3, #128
 1079 0006 4361     		str	r3, [r0, #20]
 1080 0008 4369     		ldr	r3, [r0, #20]
 1081 000a 01F08001 		and	r1, r1, #128
 1082 000e 0B43     		orrs	r3, r3, r1
 1083 0010 4361     		str	r3, [r0, #20]
 1084 0012 7047     		bx	lr
 1086              		.section	.text.usart_flag_get,"ax",%progbits
 1087              		.align	1
 1088              		.global	usart_flag_get
 1089              		.syntax unified
 1090              		.thumb
 1091              		.thumb_func
 1093              	usart_flag_get:
 1094              		@ args = 0, pretend = 0, frame = 0
 1095              		@ frame_needed = 0, uses_anonymous_args = 0
 1096              		@ link register save eliminated.
 1097 0000 8B09     		lsrs	r3, r1, #6
 1098 0002 1B58     		ldr	r3, [r3, r0]
 1099 0004 01F01F01 		and	r1, r1, #31
 1100 0008 CB40     		lsrs	r3, r3, r1
 1101 000a 13F0010F 		tst	r3, #1
 1102 000e 01D0     		beq	.L99
 1103 0010 0120     		movs	r0, #1
 1104 0012 7047     		bx	lr
 1105              	.L99:
 1106 0014 0020     		movs	r0, #0
 1107 0016 7047     		bx	lr
 1109              		.section	.text.usart_flag_clear,"ax",%progbits
 1110              		.align	1
 1111              		.global	usart_flag_clear
 1112              		.syntax unified
 1113              		.thumb
 1114              		.thumb_func
 1116              	usart_flag_clear:
 1117              		@ args = 0, pretend = 0, frame = 0
 1118              		@ frame_needed = 0, uses_anonymous_args = 0
 1119              		@ link register save eliminated.
 1120 0000 4FEA911C 		lsr	ip, r1, #6
 1121 0004 5CF80030 		ldr	r3, [ip, r0]
 1122 0008 01F01F01 		and	r1, r1, #31
 1123 000c 0122     		movs	r2, #1
 1124 000e 8A40     		lsls	r2, r2, r1
 1125 0010 23EA0203 		bic	r3, r3, r2
 1126 0014 4CF80030 		str	r3, [ip, r0]
 1127 0018 7047     		bx	lr
ARM GAS  /tmp/cc32xsTs.s 			page 19


 1129              		.section	.text.usart_interrupt_enable,"ax",%progbits
 1130              		.align	1
 1131              		.global	usart_interrupt_enable
 1132              		.syntax unified
 1133              		.thumb
 1134              		.thumb_func
 1136              	usart_interrupt_enable:
 1137              		@ args = 0, pretend = 0, frame = 0
 1138              		@ frame_needed = 0, uses_anonymous_args = 0
 1139              		@ link register save eliminated.
 1140 0000 4FEA911C 		lsr	ip, r1, #6
 1141 0004 5CF80030 		ldr	r3, [ip, r0]
 1142 0008 01F01F01 		and	r1, r1, #31
 1143 000c 0122     		movs	r2, #1
 1144 000e 8A40     		lsls	r2, r2, r1
 1145 0010 1343     		orrs	r3, r3, r2
 1146 0012 4CF80030 		str	r3, [ip, r0]
 1147 0016 7047     		bx	lr
 1149              		.section	.text.usart_interrupt_disable,"ax",%progbits
 1150              		.align	1
 1151              		.global	usart_interrupt_disable
 1152              		.syntax unified
 1153              		.thumb
 1154              		.thumb_func
 1156              	usart_interrupt_disable:
 1157              		@ args = 0, pretend = 0, frame = 0
 1158              		@ frame_needed = 0, uses_anonymous_args = 0
 1159              		@ link register save eliminated.
 1160 0000 4FEA911C 		lsr	ip, r1, #6
 1161 0004 5CF80030 		ldr	r3, [ip, r0]
 1162 0008 01F01F01 		and	r1, r1, #31
 1163 000c 0122     		movs	r2, #1
 1164 000e 8A40     		lsls	r2, r2, r1
 1165 0010 23EA0203 		bic	r3, r3, r2
 1166 0014 4CF80030 		str	r3, [ip, r0]
 1167 0018 7047     		bx	lr
 1169              		.section	.text.usart_interrupt_flag_get,"ax",%progbits
 1170              		.align	1
 1171              		.global	usart_interrupt_flag_get
 1172              		.syntax unified
 1173              		.thumb
 1174              		.thumb_func
 1176              	usart_interrupt_flag_get:
 1177              		@ args = 0, pretend = 0, frame = 0
 1178              		@ frame_needed = 0, uses_anonymous_args = 0
 1179              		@ link register save eliminated.
 1180 0000 10B4     		push	{r4}
 1181 0002 C1F38913 		ubfx	r3, r1, #6, #10
 1182 0006 1C58     		ldr	r4, [r3, r0]
 1183 0008 01F01F02 		and	r2, r1, #31
 1184 000c 0123     		movs	r3, #1
 1185 000e 03FA02F2 		lsl	r2, r3, r2
 1186 0012 1440     		ands	r4, r4, r2
 1187 0014 8A0D     		lsrs	r2, r1, #22
 1188 0016 1258     		ldr	r2, [r2, r0]
 1189 0018 C1F30441 		ubfx	r1, r1, #16, #5
 1190 001c 8B40     		lsls	r3, r3, r1
ARM GAS  /tmp/cc32xsTs.s 			page 20


 1191 001e 1A42     		tst	r2, r3
 1192 0020 02D0     		beq	.L105
 1193 0022 24B9     		cbnz	r4, .L106
 1194 0024 0020     		movs	r0, #0
 1195 0026 00E0     		b	.L104
 1196              	.L105:
 1197 0028 0020     		movs	r0, #0
 1198              	.L104:
 1199 002a 10BC     		pop	{r4}
 1200 002c 7047     		bx	lr
 1201              	.L106:
 1202 002e 0120     		movs	r0, #1
 1203 0030 FBE7     		b	.L104
 1205              		.section	.text.usart_interrupt_flag_clear,"ax",%progbits
 1206              		.align	1
 1207              		.global	usart_interrupt_flag_clear
 1208              		.syntax unified
 1209              		.thumb
 1210              		.thumb_func
 1212              	usart_interrupt_flag_clear:
 1213              		@ args = 0, pretend = 0, frame = 0
 1214              		@ frame_needed = 0, uses_anonymous_args = 0
 1215              		@ link register save eliminated.
 1216 0000 4FEA915C 		lsr	ip, r1, #22
 1217 0004 5CF80030 		ldr	r3, [ip, r0]
 1218 0008 C1F30441 		ubfx	r1, r1, #16, #5
 1219 000c 0122     		movs	r2, #1
 1220 000e 8A40     		lsls	r2, r2, r1
 1221 0010 23EA0203 		bic	r3, r3, r2
 1222 0014 4CF80030 		str	r3, [ip, r0]
 1223 0018 7047     		bx	lr
 1225              		.ident	"GCC: (xPack GNU Arm Embedded GCC x86_64) 12.2.1 20221205"
ARM GAS  /tmp/cc32xsTs.s 			page 21

